 System.Data.SQLite

 Timestamp is 5bafbe9d (Sat Sep 29 21:04:13 2018)

 Preferred load address is 10000000

 Start         Length     Name                   Class
 0001:00000000 00000130H .text                   CODE
 0001:00000130 000f069aH .text$mn                CODE
 0002:00000000 00000208H .idata$5                DATA
 0002:00000208 00000004H .00cfg                  DATA
 0002:0000020c 00000004H .CRT$XCA                DATA
 0002:00000210 00000004H .CRT$XCZ                DATA
 0002:00000214 00000004H .CRT$XIA                DATA
 0002:00000218 00000010H .CRT$XIC                DATA
 0002:00000228 00000004H .CRT$XIZ                DATA
 0002:0000022c 00000004H .CRT$XPA                DATA
 0002:00000230 00000008H .CRT$XPX                DATA
 0002:00000238 00000004H .CRT$XPXA               DATA
 0002:0000023c 00000004H .CRT$XPZ                DATA
 0002:00000240 00000004H .CRT$XTA                DATA
 0002:00000244 0000000cH .CRT$XTZ                DATA
 0002:00000250 00055b80H .rdata                  DATA
 0002:00055dd0 00000000H .rdata$r                DATA
 0002:00055dd0 0000000cH .rdata$sxdata           DATA
 0002:00055ddc 0000036cH .rdata$zzzdbg           DATA
 0002:00056148 00000004H .rtc$IAA                DATA
 0002:0005614c 00000004H .rtc$IZZ                DATA
 0002:00056150 00000004H .rtc$TAA                DATA
 0002:00056154 00000004H .rtc$TZZ                DATA
 0002:00056158 00000418H .xdata$x                DATA
 0002:00056570 000030f8H .edata                  DATA
 0002:00059668 0000003cH .idata$2                DATA
 0002:000596a4 00000014H .idata$3                DATA
 0002:000596b8 00000208H .idata$4                DATA
 0002:000598c0 0000093aH .idata$6                DATA
 0003:00000000 00001a70H .data                   DATA
 0003:00001a70 00000000H .data$r                 DATA
 0003:00001a70 00002c88H .bss                    DATA
 0004:00000000 00000094H .gfids$x                DATA
 0004:00000094 00000014H .gfids$y                DATA
 0005:00000000 00000350H CONST                   DATA
 0006:00000000 00000060H .rsrc$01                DATA
 0006:00000060 000005f0H .rsrc$02                DATA

  Address         Publics by Value              Rva+Base       Lib:Object

 0000:00000000       ___guard_longjmp_table     00000000     <absolute>
 0000:00000000       ___guard_iat_count         00000000     <absolute>
 0000:00000000       ___guard_longjmp_count     00000000     <absolute>
 0000:00000000       ___guard_fids_table        00000000     <absolute>
 0000:00000000       ___guard_iat_table         00000000     <absolute>
 0000:00000000       ___dynamic_value_reloc_table 00000000     <absolute>
 0000:00000000       __except_list              00000000     <absolute>
 0000:00000000       ___guard_fids_count        00000000     <absolute>
 0000:00000003       ___safe_se_handler_count   00000003     <absolute>
 0000:00000100       ___guard_flags             00000100     <absolute>
 0000:00000000       ___ImageBase               10000000     <linker-defined>
 0001:00000130       _AreFileApisANSI@0         10001130 f   kernel32:KERNEL32.dll
 0001:00000136       _ReadFile@20               10001136 f   kernel32:KERNEL32.dll
 0001:0000013c       _HeapCreate@12             1000113c f   kernel32:KERNEL32.dll
 0001:00000142       _HeapFree@12               10001142 f   kernel32:KERNEL32.dll
 0001:00000148       _GetFullPathNameW@16       10001148 f   kernel32:KERNEL32.dll
 0001:0000014e       _WriteFile@20              1000114e f   kernel32:KERNEL32.dll
 0001:00000154       _GetDiskFreeSpaceW@20      10001154 f   kernel32:KERNEL32.dll
 0001:0000015a       _OutputDebugStringA@4      1000115a f   kernel32:KERNEL32.dll
 0001:00000160       _LockFile@20               10001160 f   kernel32:KERNEL32.dll
 0001:00000166       _SetFilePointer@16         10001166 f   kernel32:KERNEL32.dll
 0001:0000016c       _GetFullPathNameA@16       1000116c f   kernel32:KERNEL32.dll
 0001:00000172       _SetEndOfFile@4            10001172 f   kernel32:KERNEL32.dll
 0001:00000178       _UnlockFileEx@20           10001178 f   kernel32:KERNEL32.dll
 0001:0000017e       _GetTempPathW@8            1000117e f   kernel32:KERNEL32.dll
 0001:00000184       _CreateMutexW@12           10001184 f   kernel32:KERNEL32.dll
 0001:0000018a       _WaitForSingleObject@8     1000118a f   kernel32:KERNEL32.dll
 0001:00000190       _CreateFileW@28            10001190 f   kernel32:KERNEL32.dll
 0001:00000196       _GetFileAttributesW@4      10001196 f   kernel32:KERNEL32.dll
 0001:0000019c       _UnmapViewOfFile@4         1000119c f   kernel32:KERNEL32.dll
 0001:000001a2       _HeapValidate@12           100011a2 f   kernel32:KERNEL32.dll
 0001:000001a8       _HeapSize@12               100011a8 f   kernel32:KERNEL32.dll
 0001:000001ae       _MultiByteToWideChar@24    100011ae f   kernel32:KERNEL32.dll
 0001:000001b4       _Sleep@4                   100011b4 f   kernel32:KERNEL32.dll
 0001:000001ba       _GetTempPathA@8            100011ba f   kernel32:KERNEL32.dll
 0001:000001c0       _FormatMessageW@28         100011c0 f   kernel32:KERNEL32.dll
 0001:000001c6       _GetDiskFreeSpaceA@20      100011c6 f   kernel32:KERNEL32.dll
 0001:000001cc       _GetLastError@0            100011cc f   kernel32:KERNEL32.dll
 0001:000001d2       _GetFileAttributesA@4      100011d2 f   kernel32:KERNEL32.dll
 0001:000001d8       _GetFileAttributesExW@12   100011d8 f   kernel32:KERNEL32.dll
 0001:000001de       _OutputDebugStringW@4      100011de f   kernel32:KERNEL32.dll
 0001:000001e4       _FlushViewOfFile@8         100011e4 f   kernel32:KERNEL32.dll
 0001:000001ea       _CreateFileA@28            100011ea f   kernel32:KERNEL32.dll
 0001:000001f0       _LoadLibraryA@4            100011f0 f   kernel32:KERNEL32.dll
 0001:000001f6       _WaitForSingleObjectEx@12  100011f6 f   kernel32:KERNEL32.dll
 0001:000001fc       _DeleteFileA@4             100011fc f   kernel32:KERNEL32.dll
 0001:00000202       _DeleteFileW@4             10001202 f   kernel32:KERNEL32.dll
 0001:00000208       _HeapReAlloc@16            10001208 f   kernel32:KERNEL32.dll
 0001:0000020e       _CloseHandle@4             1000120e f   kernel32:KERNEL32.dll
 0001:00000214       _GetSystemInfo@4           10001214 f   kernel32:KERNEL32.dll
 0001:0000021a       _LoadLibraryW@4            1000121a f   kernel32:KERNEL32.dll
 0001:00000220       _HeapAlloc@12              10001220 f   kernel32:KERNEL32.dll
 0001:00000226       _HeapCompact@8             10001226 f   kernel32:KERNEL32.dll
 0001:0000022c       _HeapDestroy@4             1000122c f   kernel32:KERNEL32.dll
 0001:00000232       _UnlockFile@20             10001232 f   kernel32:KERNEL32.dll
 0001:00000238       _GetProcAddress@8          10001238 f   kernel32:KERNEL32.dll
 0001:0000023e       _CreateFileMappingA@24     1000123e f   kernel32:KERNEL32.dll
 0001:00000244       _LocalFree@4               10001244 f   kernel32:KERNEL32.dll
 0001:0000024a       _LockFileEx@24             1000124a f   kernel32:KERNEL32.dll
 0001:00000250       _GetFileSize@8             10001250 f   kernel32:KERNEL32.dll
 0001:00000256       _GetCurrentProcessId@0     10001256 f   kernel32:KERNEL32.dll
 0001:0000025c       _GetProcessHeap@0          1000125c f   kernel32:KERNEL32.dll
 0001:00000262       _SystemTimeToFileTime@8    10001262 f   kernel32:KERNEL32.dll
 0001:00000268       _FreeLibrary@4             10001268 f   kernel32:KERNEL32.dll
 0001:0000026e       _WideCharToMultiByte@32    1000126e f   kernel32:KERNEL32.dll
 0001:00000274       _GetSystemTimeAsFileTime@4 10001274 f   kernel32:KERNEL32.dll
 0001:0000027a       _GetSystemTime@4           1000127a f   kernel32:KERNEL32.dll
 0001:00000280       _FormatMessageA@28         10001280 f   kernel32:KERNEL32.dll
 0001:00000286       _CreateFileMappingW@24     10001286 f   kernel32:KERNEL32.dll
 0001:0000028c       _MapViewOfFile@20          1000128c f   kernel32:KERNEL32.dll
 0001:00000292       _QueryPerformanceCounter@4 10001292 f   kernel32:KERNEL32.dll
 0001:00000298       _GetTickCount@0            10001298 f   kernel32:KERNEL32.dll
 0001:0000029e       _FlushFileBuffers@4        1000129e f   kernel32:KERNEL32.dll
 0001:000002a4       @__security_check_cookie@4 100012a4 f   LIBCMT:_secchk_.obj
 0001:000002b5       ___raise_securityfailure   100012b5 f   LIBCMT:gs_report.obj
 0001:000002dd       ___report_gsfailure        100012dd f   LIBCMT:gs_report.obj
 0001:000003d8       ___report_rangecheckfailure 100013d8 f   LIBCMT:gs_report.obj
 0001:000003e4       ___report_securityfailure  100013e4 f   LIBCMT:gs_report.obj
 0001:000007bc       __DllMainCRTStartup@12     100017bc f   LIBCMT:dll_dllmain.obj
 0001:000007df       ??$__crt_fast_encode_pointer@PAX@@YAPAXQAX@Z 100017df f i libvcruntime:winapi_downlevel.obj
 0001:000007df       ??$__crt_fast_encode_pointer@PAP6AXXZ@@YAPAP6AXXZQAP6AXXZ@Z 100017df f i LIBCMT:utility.obj
 0001:00000840       ___scrt_acquire_startup_lock 10001840 f   LIBCMT:utility.obj
 0001:00000875       ___scrt_dllmain_after_initialize_c 10001875 f   LIBCMT:utility.obj
 0001:000008a0       ___scrt_dllmain_before_initialize_c 100018a0 f   LIBCMT:utility.obj
 0001:000008ae       ___scrt_dllmain_crt_thread_attach 100018ae f   LIBCMT:utility.obj
 0001:000008cd       ___scrt_dllmain_crt_thread_detach 100018cd f   LIBCMT:utility.obj
 0001:000008da       ___scrt_dllmain_exception_filter 100018da f   LIBCMT:utility.obj
 0001:0000090d       ___scrt_dllmain_uninitialize_c 1000190d f   LIBCMT:utility.obj
 0001:00000930       ___scrt_dllmain_uninitialize_critical 10001930 f   LIBCMT:utility.obj
 0001:0000093d       ___scrt_initialize_crt     1000193d f   LIBCMT:utility.obj
 0001:00000976       ___scrt_initialize_onexit_tables 10001976 f   LIBCMT:utility.obj
 0001:00000a0d       ___scrt_is_nonwritable_in_current_image 10001a0d f   LIBCMT:utility.obj
 0001:00000a97       ___scrt_release_startup_lock 10001a97 f   LIBCMT:utility.obj
 0001:00000ab4       ___scrt_uninitialize_crt   10001ab4 f   LIBCMT:utility.obj
 0001:00000adc       __onexit                   10001adc f   LIBCMT:utility.obj
 0001:00000b17       _atexit                    10001b17 f   LIBCMT:utility.obj
 0001:00000b2c       ___security_init_cookie    10001b2c f   LIBCMT:gs_support.obj
 0001:00000bc8       _DllMain@12                10001bc8 f   LIBCMT:dll_dllmain_stub.obj
 0001:00000bce       ?__scrt_initialize_type_info@@YAXXZ 10001bce f   LIBCMT:tncleanup.obj
 0001:00000bda       ?__scrt_uninitialize_type_info@@YAXXZ 10001bda f   LIBCMT:tncleanup.obj
 0001:00000be6       ___local_stdio_printf_options 10001be6 f i LIBCMT:default_local_stdio_options.obj
 0001:00000bec       ___local_stdio_scanf_options 10001bec f i LIBCMT:default_local_stdio_options.obj
 0001:00000bf2       ___scrt_initialize_default_local_stdio_options 10001bf2 f   LIBCMT:default_local_stdio_options.obj
 0001:00000c0f       ___scrt_get_dyn_tls_init_callback 10001c0f f   LIBCMT:dyn_tls_init.obj
 0001:00000c15       ___scrt_fastfail           10001c15 f   LIBCMT:utility_desktop.obj
 0001:00000d30       __crt_debugger_hook        10001d30 f   LIBCMT:utility_desktop.obj
 0001:00000d38       __RTC_Initialize           10001d38 f   LIBCMT:_initsect_.obj
 0001:00000d63       __RTC_Terminate            10001d63 f   LIBCMT:_initsect_.obj
 0001:00000d8e       @_guard_check_icall@4      10001d8e f i LIBCMT:checkcfg.obj
 0001:00000da0       __SEH_prolog4              10001da0 f   LIBCMT:_sehprolg4_.obj
 0001:00000de6       __SEH_epilog4              10001de6 f   LIBCMT:_sehprolg4_.obj
 0001:00000dfb       ___isa_available_init      10001dfb f   LIBCMT:_cpu_disp_.obj
 0001:00000f95       __get_startup_argv_mode    10001f95 f   LIBCMT:argv_mode.obj
 0001:00000f99       ___scrt_is_ucrt_dll_in_use 10001f99 f   LIBCMT:ucrt_detection.obj
 0001:00000fb0       _memmove                   10001fb0 f   libvcruntime:memmove.obj
 0001:00001570       __except_handler4          10002570 f   libvcruntime:_chandler4_.obj
 0001:000016d6       ___vcrt_initialize         100026d6 f   libvcruntime:initialization.obj
 0001:000016ff       ___vcrt_thread_attach      100026ff f   libvcruntime:initialization.obj
 0001:0000170a       ___vcrt_thread_detach      1000270a f   libvcruntime:initialization.obj
 0001:00001715       ___vcrt_uninitialize       10002715 f   libvcruntime:initialization.obj
 0001:00001734       ___vcrt_uninitialize_critical 10002734 f   libvcruntime:initialization.obj
 0001:0000173c       ___std_type_info_destroy_list 1000273c f   libvcruntime:std_type_info.obj
 0001:00001760       _memset                    10002760 f   libvcruntime:memset.obj
 0001:000018c0       __local_unwind4            100028c0 f   libvcruntime:_exsup4_.obj
 0001:00001996       __seh_longjmp_unwind4@4    10002996 f   libvcruntime:_exsup4_.obj
 0001:000019be       @_EH4_CallFilterFunc@8     100029be f   libvcruntime:_exsup4_.obj
 0001:000019d5       @_EH4_TransferToHandler@8  100029d5 f   libvcruntime:_exsup4_.obj
 0001:000019ee       @_EH4_GlobalUnwind2@8      100029ee f   libvcruntime:_exsup4_.obj
 0001:00001a07       @_EH4_LocalUnwind@16       10002a07 f   libvcruntime:_exsup4_.obj
 0001:00001a1e       ___except_validate_jump_buffer 10002a1e f   libvcruntime:jbcxrval.obj
 0001:00001a1e       @_guard_check_icall_nop@4  10002a1e f   LIBCMT:guard_support.obj
 0001:00001a1e       ___except_validate_context_record 10002a1e f   libvcruntime:jbcxrval.obj
 0001:00001a1f       ___vcrt_freefls@4          10002a1f f   libvcruntime:per_thread_data.obj
 0001:00001a3b       ___vcrt_freeptd            10002a3b f   libvcruntime:per_thread_data.obj
 0001:00001a71       ___vcrt_getptd_noexit      10002a71 f   libvcruntime:per_thread_data.obj
 0001:00001b03       ___vcrt_initialize_ptd     10002b03 f   libvcruntime:per_thread_data.obj
 0001:00001b36       ___vcrt_uninitialize_ptd   10002b36 f   libvcruntime:per_thread_data.obj
 0001:00001b51       ___vcrt_initialize_locks   10002b51 f   libvcruntime:locks.obj
 0001:00001b8d       ___vcrt_uninitialize_locks 10002b8d f   libvcruntime:locks.obj
 0001:00001cdd       ___vcrt_FlsAlloc           10002cdd f   libvcruntime:winapi_downlevel.obj
 0001:00001d17       ___vcrt_FlsFree            10002d17 f   libvcruntime:winapi_downlevel.obj
 0001:00001d51       ___vcrt_FlsGetValue        10002d51 f   libvcruntime:winapi_downlevel.obj
 0001:00001d8b       ___vcrt_FlsSetValue        10002d8b f   libvcruntime:winapi_downlevel.obj
 0001:00001dc8       ___vcrt_InitializeCriticalSectionEx 10002dc8 f   libvcruntime:winapi_downlevel.obj
 0001:00001e0e       ___vcrt_initialize_winapi_thunks 10002e0e f   libvcruntime:winapi_downlevel.obj
 0001:00001e48       ___vcrt_uninitialize_winapi_thunks 10002e48 f   libvcruntime:winapi_downlevel.obj
 0001:00001e7a       ___vcrt_initialize_pure_virtual_call_handler 10002e7a f   libvcruntime:purevirt_data.obj
 0001:00001ea0       __global_unwind2           10002ea0 f   libvcruntime:_exsup_.obj
 0001:00001f05       __local_unwind2            10002f05 f   libvcruntime:_exsup_.obj
 0001:00001f89       __abnormal_termination     10002f89 f   libvcruntime:_exsup_.obj
 0001:00001fac       __NLG_Notify1              10002fac f   libvcruntime:_exsup_.obj
 0001:00001fb5       __NLG_Notify               10002fb5 f   libvcruntime:_exsup_.obj
 0001:00001fcc       __NLG_Dispatch             10002fcc     libvcruntime:_exsup_.obj
 0001:00001fcc       __NLG_Dispatch2            10002fcc     libvcruntime:_exsup_.obj
 0001:00001fd4       __NLG_Call                 10002fd4 f   libvcruntime:_exsup_.obj
 0001:00001fd6       __NLG_Return2              10002fd6     libvcruntime:_exsup_.obj
 0001:00001fd7       _calloc                    10002fd7 f   libucrt:calloc.obj
 0001:00002061       ??Rthread_parameter_free_policy@?A0xe57bf005@@QAEXQAU__acrt_thread_parameter@@@Z 10003061 f i libucrt:thread.obj
 0001:00002138       __beginthreadex            10003138 f   libucrt:thread.obj
 0001:000021bd       __endthreadex              100031bd f   libucrt:thread.obj
 0001:0000245f       ??0_LocaleUpdate@@QAE@QAU__crt_locale_pointers@@@Z 1000345f f i libucrt:tolower_toupper.obj
 0001:0000251c       __chvalidchk_l             1000351c f i libucrt:tolower_toupper.obj
 0001:00002546       __ischartype_l             10003546 f i libucrt:tolower_toupper.obj
 0001:00002579       __tolower_l                10003579 f   libucrt:tolower_toupper.obj
 0001:00002593       __toupper_l                10003593 f   libucrt:tolower_toupper.obj
 0001:000025ad       _tolower                   100035ad f   libucrt:tolower_toupper.obj
 0001:000025dd       _toupper                   100035dd f   libucrt:tolower_toupper.obj
 0001:00002897       __localtime64_s            10003897 f   libucrt:localtime.obj
 0001:000028a2       _atanh                     100038a2 f   libucrt:atanh.obj
 0001:00002940       _strcspn                   10003940 f   libucrt:strcspn.obj
 0001:00002986       __isalpha_l                10003986 f i libucrt:_ctype.obj
 0001:000029c1       __isblank_l                100039c1 f i libucrt:_ctype.obj
 0001:00002a04       _isalpha                   10003a04 f i libucrt:_ctype.obj
 0001:00002a33       _isblank                   10003a33 f i libucrt:_ctype.obj
 0001:00002b50       _qsort                     10003b50 f   libucrt:qsort.obj
 0001:00002ef0       _strncpy                   10003ef0 f   libucrt:strncpy.obj
 0001:00003020       _strncmp                   10004020 f   libucrt:strncmp.obj
 0001:00003098       ___acrt_errno_from_os_error 10004098 f   libucrt:errno.obj
 0001:000030db       ___acrt_errno_map_os_error 100040db f   libucrt:errno.obj
 0001:000030fe       ___doserrno                100040fe f   libucrt:errno.obj
 0001:00003111       __errno                    10004111 f   libucrt:errno.obj
 0001:00003124       _acosh                     10004124 f   libucrt:acosh.obj
 0001:000031cf       _free                      100041cf f   libucrt:free.obj
 0001:00003250       __get_sys_err_msg          10004250 f i libucrt:strerror.obj
 0001:00003274       _strerror                  10004274 f   libucrt:strerror.obj
 0001:0000327f       _asinh                     1000427f f   libucrt:asinh.obj
 0001:0000330e       __initterm                 1000430e f   libucrt:initterm.obj
 0001:0000336a       __initterm_e               1000436a f   libucrt:initterm.obj
 0001:000033af       __seh_filter_dll           100043af f   libucrt:exception_filter.obj
 0001:000033cf       __seh_filter_exe           100043cf f   libucrt:exception_filter.obj
 0001:0000375d       ___acrt_initialize_thread_local_exit_callback 1000475d f   libucrt:exit.obj
 0001:0000376c       __cexit                    1000476c f   libucrt:exit.obj
 0001:0000377b       __exit                     1000477b f   libucrt:exit.obj
 0001:00003791       __is_c_termination_complete 10004791 f   libucrt:exit.obj
 0001:00003a30       ___acrt_allocate_buffer_for_argv 10004a30 f   libucrt:argv_parsing.obj
 0001:00003a85       __configure_narrow_argv    10004a85 f   libucrt:argv_parsing.obj
 0001:00003c97       ??$uninitialize@A6AXAAPAPA_W@Z@?$dual_state_global@PAPA_W@__crt_state_management@@QAEXA6AXAAPAPA_W@Z@Z 10004c97 f i libucrt:environment_initialization.obj
 0001:00003c97       ??$uninitialize@A6AXAAPAPAD@Z@?$dual_state_global@PAPAD@__crt_state_management@@QAEXA6AXAAPAPAD@Z@Z 10004c97 f i libucrt:environment_initialization.obj
 0001:00003d0d       ___dcrt_get_or_create_narrow_environment_nolock 10004d0d f   libucrt:environment_initialization.obj
 0001:00003d12       ___dcrt_uninitialize_environments_nolock 10004d12 f   libucrt:environment_initialization.obj
 0001:00003d49       __initialize_narrow_environment 10004d49 f   libucrt:environment_initialization.obj
 0001:00003d4e       ??$?RV<lambda_800076c951b434888f4765a74a194fcc>@@AAV<lambda_4e60a939b0d047cfe11ddc22648dfba9>@@V<lambda_6dbb1268764f43b569ce7b67e331d33a>@@@?$__crt_seh_guarded_call@H@@QAEH$$QAV<lambda_800076c951b434888f4765a74a194fcc>@@AAV<lambda_4e60a939b0d047cfe11ddc22648dfba9>@@$$QAV<lambda_6dbb1268764f43b569ce7b67e331d33a>@@@Z 10004d4e f i libucrt:onexit.obj
 0001:00003d9f       ??$?RV<lambda_995298e7d72eb4c2aab26c0585b3abe5>@@AAV<lambda_275893d493268fdec8709772e3fcec0e>@@V<lambda_293819299cbf9a7022e18b56a874bb5c>@@@?$__crt_seh_guarded_call@H@@QAEH$$QAV<lambda_995298e7d72eb4c2aab26c0585b3abe5>@@AAV<lambda_275893d493268fdec8709772e3fcec0e>@@$$QAV<lambda_293819299cbf9a7022e18b56a874bb5c>@@@Z 10004d9f f i libucrt:onexit.obj
 0001:00003df0       ??$__acrt_lock_and_call@V<lambda_275893d493268fdec8709772e3fcec0e>@@@@YAHW4__acrt_lock_id@@$$QAV<lambda_275893d493268fdec8709772e3fcec0e>@@@Z 10004df0 f i libucrt:onexit.obj
 0001:00003e18       ??$__acrt_lock_and_call@V<lambda_4e60a939b0d047cfe11ddc22648dfba9>@@@@YAHW4__acrt_lock_id@@$$QAV<lambda_4e60a939b0d047cfe11ddc22648dfba9>@@@Z 10004e18 f i libucrt:onexit.obj
 0001:00003e40       ??$__crt_fast_encode_pointer@P6AHXZ@@YAP6AHXZQ6AHXZ@Z 10004e40 f i libucrt:onexit.obj
 0001:000040c0       __crt_atexit               100050c0 f   libucrt:onexit.obj
 0001:000040d6       __execute_onexit_table     100050d6 f   libucrt:onexit.obj
 0001:000040f3       __initialize_onexit_table  100050f3 f   libucrt:onexit.obj
 0001:00004130       __register_onexit_function 10005130 f   libucrt:onexit.obj
 0001:00004245       ___acrt_uninitialize_command_line 10005245 f   libucrt:argv_data.obj
 0001:00004248       ___acrt_initialize         10005248 f   libucrt:initialization.obj
 0001:0000425a       ___acrt_thread_attach      1000525a f   libucrt:initialization.obj
 0001:00004265       ___acrt_thread_detach      10005265 f   libucrt:initialization.obj
 0001:0000426d       ___acrt_uninitialize       1000526d f   libucrt:initialization.obj
 0001:0000427f       ___acrt_uninitialize_critical 1000527f f   libucrt:initialization.obj
 0001:00004291       _terminate                 10005291 f   libucrt:terminate.obj
 0001:000042cd       __free_base                100052cd f   libucrt:free_base.obj
 0001:00004307       __malloc_base              10005307 f   libucrt:malloc_base.obj
 0001:00004355       _strcpy_s                  10005355 f   libucrt:strcpy_s.obj
 0001:000043af       _abort                     100053af f   libucrt:abort.obj
 0001:000043f2       __calloc_base              100053f2 f   libucrt:calloc_base.obj
 0001:0000444f       ??$is_overflow_condition@K@__crt_strtox@@YA_NIK@Z 1000544f f i libucrt:atox.obj
 0001:00004482       ??$make_c_string_character_source@D$$T@__crt_strtox@@YA?AV?$c_string_character_source@D@0@QBD$$T@Z 10005482 f i libucrt:atox.obj
 0001:0000449d       ??$parse_integer@KV?$c_string_character_source@D@__crt_strtox@@@__crt_strtox@@YAKQAU__crt_locale_pointers@@V?$c_string_character_source@D@0@H_N@Z 1000549d f i libucrt:atox.obj
 0001:000046c5       ?unget@?$c_string_character_source@D@__crt_strtox@@QAEXD@Z 100056c5 f i libucrt:atox.obj
 0001:000046ed       ?validate@?$c_string_character_source@D@__crt_strtox@@QBE_NXZ 100056ed f i libucrt:atox.obj
 0001:00004708       _atol                      10005708 f   libucrt:atox.obj
 0001:00004732       ___acrt_call_reportfault   10005732 f   libucrt:invalid_parameter.obj
 0001:0000486d       ___acrt_initialize_invalid_parameter_handler 1000586d f   libucrt:invalid_parameter.obj
 0001:00004881       __invalid_parameter        10005881 f   libucrt:invalid_parameter.obj
 0001:000048fc       __invalid_parameter_noinfo 100058fc f   libucrt:invalid_parameter.obj
 0001:0000490c       __invoke_watson            1000590c f   libucrt:invalid_parameter.obj
 0001:0000493f       ??$?RV<lambda_3518db117f0e7cdb002338c5d3c47b6c>@@AAV<lambda_b2ea41f6bbb362cd97d94c6828d90b61>@@V<lambda_abdedf541bb04549bc734292b4a045d4>@@@?$__crt_seh_guarded_call@X@@QAEX$$QAV<lambda_3518db117f0e7cdb002338c5d3c47b6c>@@AAV<lambda_b2ea41f6bbb362cd97d94c6828d90b61>@@$$QAV<lambda_abdedf541bb04549bc734292b4a045d4>@@@Z 1000593f f i libucrt:per_thread_data.obj
 0001:0000498f       ??$?RV<lambda_51b6e8b1eb166f2a3faf91f424b38130>@@AAV<lambda_6250bd4b2a391816dd638c3bf72b0bcb>@@V<lambda_0b5a4a3e68152e1d9b943535f5f47bed>@@@?$__crt_seh_guarded_call@X@@QAEX$$QAV<lambda_51b6e8b1eb166f2a3faf91f424b38130>@@AAV<lambda_6250bd4b2a391816dd638c3bf72b0bcb>@@$$QAV<lambda_0b5a4a3e68152e1d9b943535f5f47bed>@@@Z 1000598f f i libucrt:per_thread_data.obj
 0001:000049f0       ??$?RV<lambda_5b71d36f03204c0beab531769a5b5694>@@AAV<lambda_be2b3da3f62db62e9dad5dc70221a656>@@V<lambda_8f9ce462984622f9bf76b59e2aaaf805>@@@?$__crt_seh_guarded_call@X@@QAEX$$QAV<lambda_5b71d36f03204c0beab531769a5b5694>@@AAV<lambda_be2b3da3f62db62e9dad5dc70221a656>@@$$QAV<lambda_8f9ce462984622f9bf76b59e2aaaf805>@@@Z 100059f0 f i libucrt:per_thread_data.obj
 0001:00004a3b       ??$?RV<lambda_9df27f884b057bc3edfc946cb5b7cf47>@@AAV<lambda_e69574bed617af4e071282c136b37893>@@V<lambda_cc0d902bcbbeb830f749456577db4721>@@@?$__crt_seh_guarded_call@X@@QAEX$$QAV<lambda_9df27f884b057bc3edfc946cb5b7cf47>@@AAV<lambda_e69574bed617af4e071282c136b37893>@@$$QAV<lambda_cc0d902bcbbeb830f749456577db4721>@@@Z 10005a3b f i libucrt:per_thread_data.obj
 0001:00004a83       ??$__acrt_lock_and_call@V<lambda_6250bd4b2a391816dd638c3bf72b0bcb>@@@@YAXW4__acrt_lock_id@@$$QAV<lambda_6250bd4b2a391816dd638c3bf72b0bcb>@@@Z 10005a83 f i libucrt:per_thread_data.obj
 0001:00004aab       ??$__acrt_lock_and_call@V<lambda_b2ea41f6bbb362cd97d94c6828d90b61>@@@@YAXW4__acrt_lock_id@@$$QAV<lambda_b2ea41f6bbb362cd97d94c6828d90b61>@@@Z 10005aab f i libucrt:per_thread_data.obj
 0001:00004ad3       ??$__acrt_lock_and_call@V<lambda_be2b3da3f62db62e9dad5dc70221a656>@@@@YAXW4__acrt_lock_id@@$$QAV<lambda_be2b3da3f62db62e9dad5dc70221a656>@@@Z 10005ad3 f i libucrt:per_thread_data.obj
 0001:00004afb       ??$__acrt_lock_and_call@V<lambda_e69574bed617af4e071282c136b37893>@@@@YAXW4__acrt_lock_id@@$$QAV<lambda_e69574bed617af4e071282c136b37893>@@@Z 10005afb f i libucrt:per_thread_data.obj
 0001:00004cb1       ___acrt_freeptd            10005cb1 f   libucrt:per_thread_data.obj
 0001:00004cdd       ___acrt_getptd             10005cdd f   libucrt:per_thread_data.obj
 0001:00004d61       ___acrt_getptd_noexit      10005d61 f   libucrt:per_thread_data.obj
 0001:00004de6       ___acrt_initialize_ptd     10005de6 f   libucrt:per_thread_data.obj
 0001:00004e12       ___acrt_uninitialize_ptd   10005e12 f   libucrt:per_thread_data.obj
 0001:00004f5d       ___acrt_CompareStringEx@36 10005f5d f   libucrt:winapi_thunks.obj
 0001:00004fd1       ___acrt_FlsAlloc@4         10005fd1 f   libucrt:winapi_thunks.obj
 0001:00005027       ___acrt_FlsFree@4          10006027 f   libucrt:winapi_thunks.obj
 0001:0000507d       ___acrt_FlsGetValue@4      1000607d f   libucrt:winapi_thunks.obj
 0001:000050d3       ___acrt_FlsSetValue@8      100060d3 f   libucrt:winapi_thunks.obj
 0001:0000512c       ___acrt_InitializeCriticalSectionEx@12 1000612c f   libucrt:winapi_thunks.obj
 0001:0000518e       ___acrt_LCMapStringEx@36   1000618e f   libucrt:winapi_thunks.obj
 0001:00005216       ___acrt_LocaleNameToLCID@8 10006216 f   libucrt:winapi_thunks.obj
 0001:00005272       ___acrt_RoInitialize@4     10006272 f   libucrt:winapi_thunks.obj
 0001:000052c4       ___acrt_RoUninitialize@0   100062c4 f   libucrt:winapi_thunks.obj
 0001:0000530d       ___acrt_initialize_winapi_thunks 1000630d f   libucrt:winapi_thunks.obj
 0001:00005333       ___acrt_is_packaged_app    10006333 f   libucrt:winapi_thunks.obj
 0001:000053ba       ___acrt_uninitialize_winapi_thunks 100063ba f   libucrt:winapi_thunks.obj
 0001:000053f0       ___pctype_func             100063f0 f   libucrt:ctype.obj
 0001:00005416       __isleadbyte_l             10006416 f i libucrt:_wctype.obj
 0001:0000544f       __isctype_l                1000644f f   libucrt:isctype.obj
 0001:0000573e       ___acrt_LCMapStringA       1000673e f   libucrt:lcmapstringa.obj
 0001:00005789       __freea_crt                10006789 f i libucrt:lcmapstringa.obj
 0001:000057a9       ___acrt_update_locale_info 100067a9 f   libucrt:locale_update.obj
 0001:000057d6       ___acrt_update_multibyte_info 100067d6 f   libucrt:locale_update.obj
 0001:00005803       ___acrt_set_locale_changed 10006803 f   libucrt:wsetlocale.obj
 0001:0000580e       ___acrt_uninitialize_locale 1000680e f   libucrt:wsetlocale.obj
 0001:00005860       ___acrt_initialize_timeset 10006860 f   libucrt:timeset.obj
 0001:00005897       ___daylight                10006897 f   libucrt:timeset.obj
 0001:0000589d       ___dstbias                 1000689d f   libucrt:timeset.obj
 0001:000058a3       ___timezone                100068a3 f   libucrt:timeset.obj
 0001:000058a9       ___tzname                  100068a9 f   libucrt:timeset.obj
 0001:000058af       __get_daylight             100068af f   libucrt:timeset.obj
 0001:000058db       __get_dstbias              100068db f   libucrt:timeset.obj
 0001:00005907       __get_timezone             10006907 f   libucrt:timeset.obj
 0001:00005933       ??$__crt_time_elapsed_leap_years@H@@YAHH@Z 10006933 f i libucrt:gmtime.obj
 0001:0000596d       ??$__crt_time_is_leap_year@H@@YA_NH@Z 1000696d f i libucrt:gmtime.obj
 0001:00005b9f       __gmtime64_s               10006b9f f   libucrt:gmtime.obj
 0001:000062f1       ___tzset                   100072f1 f   libucrt:tzset.obj
 0001:00006342       __isindst                  10007342 f   libucrt:tzset.obj
 0001:0000638c       __dtest                    1000738c f   libucrt:_test.obj
 0001:000063f0       __fperrraise               100073f0 f   libucrt:_test.obj
 0001:0000648d       _log1p                     1000748d f   libucrt:log1p.obj
 0001:00006530       _log                       10007530 f   libucrt:log.obj
 0001:00006570       __CIlog                    10007570 f   libucrt:log.obj
 0001:000065ab       __CIlog_default            100075ab f   libucrt:log.obj
 0001:000065bf       __log_default              100075bf     libucrt:log.obj
 0001:00006680       __CIsqrt                   10007680 f   libucrt:sqrt.obj
 0001:00006694       _sqrt                      10007694     libucrt:sqrt.obj
 0001:0000673a       ___sys_errlist             1000773a f   libucrt:syserr.obj
 0001:00006740       ___sys_nerr                10007740 f   libucrt:syserr.obj
 0001:000067f7       _strncpy_s                 100077f7 f   libucrt:strncpy_s.obj
 0001:00006802       ___acrt_initialize_locks   10007802 f   libucrt:locks.obj
 0001:00006843       ___acrt_lock               10007843 f   libucrt:locks.obj
 0001:0000685a       ___acrt_uninitialize_locks 1000785a f   libucrt:locks.obj
 0001:0000688b       ___acrt_unlock             1000788b f   libucrt:locks.obj
 0001:00006c64       ??1?$argument_list@D@?A0xb0e4b824@@QAE@XZ 10007c64 f i libucrt:argv_wildcards.obj
 0001:00006c89       ?append@?$argument_list@D@?A0xb0e4b824@@QAEHQAD@Z 10007c89 f i libucrt:argv_wildcards.obj
 0001:00006cbe       ?expand_if_necessary@?$argument_list@D@?A0xb0e4b824@@AAEHXZ 10007cbe f i libucrt:argv_wildcards.obj
 0001:00006d45       ___acrt_expand_narrow_argv_wildcards 10007d45 f   libucrt:argv_wildcards.obj
 0001:00006d50       ??$?RV<lambda_978dc153c237d78434369da87b74ff60>@@AAV<lambda_ad1ced32f4ac17aa236e5ef05d6b3b7c>@@V<lambda_4a8533e2866a575feecb8298ce776b0d>@@@?$__crt_seh_guarded_call@X@@QAEX$$QAV<lambda_978dc153c237d78434369da87b74ff60>@@AAV<lambda_ad1ced32f4ac17aa236e5ef05d6b3b7c>@@$$QAV<lambda_4a8533e2866a575feecb8298ce776b0d>@@@Z 10007d50 f i libucrt:mbctype.obj
 0001:00006d93       ??$__acrt_lock_and_call@V<lambda_ad1ced32f4ac17aa236e5ef05d6b3b7c>@@@@YAXW4__acrt_lock_id@@$$QAV<lambda_ad1ced32f4ac17aa236e5ef05d6b3b7c>@@@Z 10007d93 f i libucrt:mbctype.obj
 0001:0000722a       ___acrt_initialize_multibyte 1000822a f   libucrt:mbctype.obj
 0001:00007248       ___acrt_update_thread_multibyte_data 10008248 f   libucrt:mbctype.obj
 0001:000072ea       __setmbcp_nolock           100082ea f   libucrt:mbctype.obj
 0001:000075b5       __ismbblead                100085b5 f   libucrt:ismbbyte.obj
 0001:000075cd       ___acrt_initialize_command_line 100085cd f   libucrt:argv_data.obj
 0001:0000761d       ___dcrt_get_narrow_environment_from_os 1000861d f   libucrt:get_environment_from_os.obj
 0001:000079e0       ___dcrt_set_variable_in_narrow_environment_nolock 100089e0 f   libucrt:setenv.obj
 0001:000079eb       __recalloc                 100089eb f   libucrt:recalloc.obj
 0001:000079f6       __recalloc_base            100089f6 f   libucrt:recalloc.obj
 0001:00007a63       ___acrt_initialize_heap    10008a63 f   libucrt:heap_handle.obj
 0001:00007a74       ___acrt_uninitialize_heap  10008a74 f   libucrt:heap_handle.obj
 0001:00007bea       ___acrt_initialize_lowio   10008bea f   libucrt:ioinit.obj
 0001:00007c40       ___acrt_uninitialize_lowio 10008c40 f   libucrt:ioinit.obj
 0001:00007c6c       ___acrt_execute_initializers 10008c6c f   libucrt:shared_initialization.obj
 0001:00007cef       ___acrt_execute_uninitializers 10008cef f   libucrt:shared_initialization.obj
 0001:00007d3c       ___acrt_initialize_new_handler 10008d3c f   libucrt:new_handler.obj
 0001:00007d50       __callnewh                 10008d50 f   libucrt:new_handler.obj
 0001:00007d94       __query_new_handler        10008d94 f   libucrt:new_handler.obj
 0001:00007de6       ??$?RV<lambda_a048d3beccc847880fc8490e18b82769>@@AAV<lambda_ec61778202f4f5fc7e7711acc23c3bca>@@V<lambda_f7496a158712204296dd6628a163878e>@@@?$__crt_seh_guarded_call@P6AXH@Z@@QAEP6AXH@Z$$QAV<lambda_a048d3beccc847880fc8490e18b82769>@@AAV<lambda_ec61778202f4f5fc7e7711acc23c3bca>@@$$QAV<lambda_f7496a158712204296dd6628a163878e>@@@Z 10008de6 f i libucrt:signal.obj
 0001:00007e40       ??$__acrt_lock_and_call@V<lambda_ec61778202f4f5fc7e7711acc23c3bca>@@@@YAP6AXH@ZW4__acrt_lock_id@@$$QAV<lambda_ec61778202f4f5fc7e7711acc23c3bca>@@@Z 10008e40 f i libucrt:signal.obj
 0001:00007ed2       ___acrt_get_sigabrt_handler 10008ed2 f   libucrt:signal.obj
 0001:00007ee9       ___acrt_initialize_signal_handlers 10008ee9 f   libucrt:signal.obj
 0001:00007f24       ___fpecode                 10008f24 f   libucrt:signal.obj
 0001:00007f2d       _raise                     10008f2d f   libucrt:signal.obj
 0001:00008135       ?initialize@?$dual_state_global@P6AXH@Z@__crt_state_management@@QAEXQ6AXH@Z@Z 10009135 f i libucrt:signal.obj
 0001:00008135       ?initialize@?$dual_state_global@H@__crt_state_management@@QAEXH@Z 10009135 f i libucrt:timeset.obj
 0001:00008135       ?initialize@?$dual_state_global@J@__crt_state_management@@QAEXJ@Z 10009135 f i libucrt:timeset.obj
 0001:00008135       ?initialize@?$dual_state_global@PAU__crt_locale_data@@@__crt_state_management@@QAEXQAU__crt_locale_data@@@Z 10009135 f i libucrt:initialization.obj
 0001:00008135       ?initialize@?$dual_state_global@PAPAD@__crt_state_management@@QAEXQAPAD@Z 10009135 f i libucrt:environment_initialization.obj
 0001:00008135       ?initialize@?$dual_state_global@P6AXPB_W00II@Z@__crt_state_management@@QAEXQ6AXPB_W00II@Z@Z 10009135 f i libucrt:invalid_parameter.obj
 0001:00008135       ?initialize@?$dual_state_global@P6AHI@Z@__crt_state_management@@QAEXQ6AHI@Z@Z 10009135 f i libucrt:new_handler.obj
 0001:00008135       ?initialize@?$dual_state_global@P6AHPAU_exception@@@Z@__crt_state_management@@QAEXQ6AHPAU_exception@@@Z@Z 10009135 f i libucrt:matherr.obj
 0001:00008166       ___acrt_has_user_matherr   10009166 f   libucrt:matherr.obj
 0001:0000817f       ___acrt_initialize_user_matherr 1000917f f   libucrt:matherr.obj
 0001:00008193       ___acrt_invoke_user_matherr 10009193 f   libucrt:matherr.obj
 0001:000081dc       __query_new_mode           100091dc f   libucrt:new_mode.obj
 0001:000081e2       __mbtowc_l                 100091e2 f   libucrt:mbtowc.obj
 0001:000082dc       _mbtowc                    100092dc f   libucrt:mbtowc.obj
 0001:000082f6       __fileno                   100092f6 f   libucrt:fileno.obj
 0001:0000831c       ___acrt_initialize_stdio   1000931c f   libucrt:_file.obj
 0001:000083e4       ___acrt_uninitialize_stdio 100093e4 f   libucrt:_file.obj
 0001:00008430       __lock_file                10009430 f   libucrt:_file.obj
 0001:00008444       __unlock_file              10009444 f   libucrt:_file.obj
 0001:00008458       ___acrt_add_locale_ref     10009458 f   libucrt:locale_refcounting.obj
 0001:000084d5       ___acrt_free_locale        100094d5 f   libucrt:locale_refcounting.obj
 0001:0000861f       ___acrt_locale_add_lc_time_reference 1000961f f   libucrt:locale_refcounting.obj
 0001:00008648       ___acrt_locale_free_lc_time_if_unreferenced 10009648 f   libucrt:locale_refcounting.obj
 0001:00008678       ___acrt_locale_release_lc_time_reference 10009678 f   libucrt:locale_refcounting.obj
 0001:000086a1       ___acrt_release_locale_ref 100096a1 f   libucrt:locale_refcounting.obj
 0001:00008722       ___acrt_update_thread_locale_data 10009722 f   libucrt:locale_refcounting.obj
 0001:00008799       __updatetlocinfoEx_nolock  10009799 f   libucrt:locale_refcounting.obj
 0001:000088a5       ___acrt_DownlevelLocaleNameToLCID 100098a5 f   libucrt:lcidtoname_downlevel.obj
 0001:000088d1       ___acrt_GetStringTypeA     100098d1 f   libucrt:getstringtypea.obj
 0001:000089ee       ___strncnt                 100099ee f   libucrt:strncnt.obj
 0001:00008a0a       ____lc_codepage_func       10009a0a f   libucrt:initctype.obj
 0001:00008a31       ___acrt_locale_free_monetary 10009a31 f   libucrt:initmon.obj
 0001:00008b2f       ___acrt_locale_free_numeric 10009b2f f   libucrt:initnum.obj
 0001:00008bd4       ___acrt_locale_free_time   10009bd4 f   libucrt:inittime.obj
 0001:00008e25       _getenv_s                  10009e25 f   libucrt:getenv.obj
 0001:00008e30       _fegetexceptflag           10009e30 f   libucrt:fegetexceptflag.obj
 0001:00008e61       _fesetexceptflag           10009e61 f   libucrt:fesetexceptflag.obj
 0001:00008eaf       ___acrt_fenv_get_fp_status_word_from_exception_mask 10009eaf f   libucrt:_fenvutils.obj
 0001:00008fb4       __getfpstatusword          10009fb4 f   libucrt:_fenvutils.obj
 0001:0000905c       __setfpstatusword          1000a05c f   libucrt:_fenvutils.obj
 0001:000090dc       ___acrt_initialize_sse2    1000a0dc f   libucrt:mathfcns.obj
 0001:000090f0       __CIlog_pentium4           1000a0f0 f   libucrt:log_pentium4.obj
 0001:00009108       __log_pentium4             1000a108     libucrt:log_pentium4.obj
 0001:00009371       __fFEXP                    1000a371     libucrt:87tran.obj
 0001:000093c8       __rtinfpopse               1000a3c8     libucrt:87tran.obj
 0001:000093ca       __rtinfnpopse              1000a3ca     libucrt:87tran.obj
 0001:000093da       __fFLN                     1000a3da     libucrt:87tran.obj
 0001:0000948f       __rtinfpop                 1000a48f     libucrt:87tran.obj
 0001:00009491       __rtinfnpop                1000a491     libucrt:87tran.obj
 0001:000094ae       __ffexpm1                  1000a4ae     libucrt:87tran.obj
 0001:00009560       __trandisp1                1000a560 f   libucrt:87disp.obj
 0001:000095c7       __trandisp2                1000a5c7 f   libucrt:87disp.obj
 0001:00009653       __rttospopde               1000a653     libucrt:87disp.obj
 0001:00009658       __rttospop                 1000a658     libucrt:87disp.obj
 0001:0000965a       __rtnospop                 1000a65a     libucrt:87disp.obj
 0001:0000965c       __rttosnpop                1000a65c     libucrt:87disp.obj
 0001:0000965d       __rtnospopde               1000a65d     libucrt:87disp.obj
 0001:00009664       __rtzeropop                1000a664     libucrt:87disp.obj
 0001:00009666       __rtzeronpop               1000a666     libucrt:87disp.obj
 0001:0000966b       __rtzerospop               1000a66b     libucrt:87disp.obj
 0001:00009678       __rtonepop                 1000a678     libucrt:87disp.obj
 0001:0000967a       __rtonenpop                1000a67a     libucrt:87disp.obj
 0001:0000967f       __tosnan1                  1000a67f     libucrt:87disp.obj
 0001:000096aa       __nosnan2                  1000a6aa     libucrt:87disp.obj
 0001:000096ac       __tosnan2                  1000a6ac     libucrt:87disp.obj
 0001:000096d4       __nan2                     1000a6d4     libucrt:87disp.obj
 0001:00009713       __rtindfpop                1000a713     libucrt:87disp.obj
 0001:00009715       __rtindfnpop               1000a715     libucrt:87disp.obj
 0001:00009726       __rttosnpopde              1000a726     libucrt:87disp.obj
 0001:00009730       __rtatan2inf               1000a730     libucrt:87disp.obj
 0001:0000974d       __rtchsifneg               1000a74d     libucrt:87disp.obj
 0001:00009760       __twoToTOS                 1000a760 f   libucrt:common.obj
 0001:00009775       __load_CW                  1000a775 f   libucrt:common.obj
 0001:0000978c       __convertTOStoQNaN         1000a78c f   libucrt:common.obj
 0001:000097a5       __fload_withFB             1000a7a5 f   libucrt:common.obj
 0001:000097e8       __checkTOS_withFB          1000a7e8 f   libucrt:common.obj
 0001:000097fe       __fast_exit                1000a7fe f   libucrt:common.obj
 0001:0000980b       __math_exit                1000a80b f   libucrt:common.obj
 0001:00009835       __check_overflow_exit      1000a835 f   libucrt:common.obj
 0001:00009849       __check_range_exit         1000a849 f   libucrt:common.obj
 0001:000098f0       __startTwoArgErrorHandling 1000a8f0 f   libucrt:genexcep.obj
 0001:00009907       __startOneArgErrorHandling 1000a907 f   libucrt:genexcep.obj
 0001:00009950       _strpbrk                   1000a950 f   libucrt:strpbrk.obj
 0001:00009990       __mbsdec                   1000a990 f   libucrt:mbsdec.obj
 0001:000099a7       __mbsdec_l                 1000a9a7 f   libucrt:mbsdec.obj
 0001:00009a43       __strnicoll                1000aa43 f   libucrt:strnicol.obj
 0001:00009a6c       __strnicoll_l              1000aa6c f   libucrt:strnicol.obj
 0001:00009b36       __msize                    1000ab36 f   libucrt:msize.obj
 0001:00009b69       __realloc_base             1000ab69 f   libucrt:realloc_base.obj
 0001:00009bd2       ___acrt_lowio_create_handle_array 1000abd2 f   libucrt:osfinfo.obj
 0001:00009c4c       ___acrt_lowio_destroy_handle_array 1000ac4c f   libucrt:osfinfo.obj
 0001:00009c81       ___acrt_lowio_ensure_fh_exists 1000ac81 f   libucrt:osfinfo.obj
 0001:00009d19       ___acrt_lowio_lock_fh      1000ad19 f   libucrt:osfinfo.obj
 0001:00009d3c       ___acrt_lowio_unlock_fh    1000ad3c f   libucrt:osfinfo.obj
 0001:00009d5f       __free_osfhnd              1000ad5f f   libucrt:osfinfo.obj
 0001:00009df0       __get_osfhandle            1000adf0 f   libucrt:osfinfo.obj
 0001:00009e5a       __isatty                   1000ae5a f   libucrt:isatty.obj
 0001:00009eb0       ___acrt_stdio_flush_nolock 1000aeb0 f   libucrt:fflush.obj
 0001:00009f16       __fflush_nolock            1000af16 f   libucrt:fflush.obj
 0001:00009f5d       __flushall                 1000af5d f   libucrt:fflush.obj
 0001:0000a03e       __fcloseall                1000b03e f   libucrt:closeall.obj
 0001:0000a0de       ___acrt_stdio_free_buffer_nolock 1000b0de f   libucrt:_freebuf.obj
 0001:0000a11c       _fetestexcept              1000b11c f   libucrt:fetestexcept.obj
 0001:0000a13e       ___libm_error_support      1000b13e f   libucrt:libm_error.obj
 0001:0000a356       __d_inttype                1000b356 f   libucrt:powhlp.obj
 0001:0000a3c0       __powhlp                   1000b3c0 f   libucrt:powhlp.obj
 0001:0000a4eb       __87except                 1000b4eb f   libucrt:87except.obj
 0001:0000a5f6       __strnicmp                 1000b5f6 f   libucrt:strnicmp.obj
 0001:0000a662       __strnicmp_l               1000b662 f   libucrt:strnicmp.obj
 0001:0000a9c1       ___acrt_CompareStringA     1000b9c1 f   libucrt:comparestringa.obj
 0001:0000aa09       __query_app_type           1000ba09 f   libucrt:report_runtime_error.obj
 0001:0000aa0f       ??$?RV<lambda_61cee617f5178ae960314fd4d05640a0>@@AAV<lambda_6978c1fb23f02e42e1d9e99668cc68aa>@@V<lambda_9cd88cf8ad10232537feb2133f08c833>@@@?$__crt_seh_guarded_call@H@@QAEH$$QAV<lambda_61cee617f5178ae960314fd4d05640a0>@@AAV<lambda_6978c1fb23f02e42e1d9e99668cc68aa>@@$$QAV<lambda_9cd88cf8ad10232537feb2133f08c833>@@@Z 1000ba0f f i libucrt:commit.obj
 0001:0000aaa7       ??$__acrt_lowio_lock_fh_and_call@V<lambda_6978c1fb23f02e42e1d9e99668cc68aa>@@@@YAHH$$QAV<lambda_6978c1fb23f02e42e1d9e99668cc68aa>@@@Z 1000baa7 f i libucrt:commit.obj
 0001:0000aacf       __commit                   1000bacf f   libucrt:commit.obj
 0001:0000b0ce       __write                    1000c0ce f   libucrt:write.obj
 0001:0000b1b9       __write_nolock             1000c1b9 f   libucrt:write.obj
 0001:0000b3d0       _log10                     1000c3d0 f   libucrt:log10.obj
 0001:0000b410       __CIlog10                  1000c410 f   libucrt:log10.obj
 0001:0000b44b       __CIlog10_default          1000c44b f   libucrt:log10.obj
 0001:0000b45f       __log10_default            1000c45f     libucrt:log10.obj
 0001:0000b520       _ceil                      1000c520 f   libucrt:ceil_pentium4.obj
 0001:0000b560       __ceil_pentium4            1000c560 f   libucrt:ceil_pentium4.obj
 0001:0000b6bb       __lseeki64_nolock          1000c6bb f   libucrt:lseek.obj
 0001:0000b6d6       __fclose_nolock            1000c6d6 f   libucrt:fclose.obj
 0001:0000b74c       _fclose                    1000c74c f   libucrt:fclose.obj
 0001:0000b7cc       __frnd                     1000c7cc f   libucrt:frnd.obj
 0001:0000b7e2       __fpclass                  1000c7e2 f   libucrt:ieeemisc.obj
 0001:0000b886       __decomp                   1000c886 f   libucrt:util.obj
 0001:0000b95a       __set_exp                  1000c95a f   libucrt:util.obj
 0001:0000b989       __sptype                   1000c989 f   libucrt:util.obj
 0001:0000b9e7       __errcode                  1000c9e7 f   libucrt:fpexcept.obj
 0001:0000ba1b       __except1                  1000ca1b f   libucrt:fpexcept.obj
 0001:0000bae9       __handle_exc               1000cae9 f   libucrt:fpexcept.obj
 0001:0000bcc9       __raise_exc                1000ccc9 f   libucrt:fpexcept.obj
 0001:0000bcec       __raise_exc_ex             1000ccec f   libucrt:fpexcept.obj
 0001:0000bfdd       __set_errno_from_matherr   1000cfdd f   libucrt:fpexcept.obj
 0001:0000c00c       __umatherr                 1000d00c f   libucrt:fpexcept.obj
 0001:0000c0ae       __clrfp                    1000d0ae f   libucrt:fpctrl.obj
 0001:0000c0c1       __ctrlfp                   1000d0c1 f   libucrt:fpctrl.obj
 0001:0000c0ed       __set_statfp               1000d0ed f   libucrt:fpctrl.obj
 0001:0000c148       __statfp                   1000d148 f   libucrt:fpctrl.obj
 0001:0000c160       ___ascii_strnicmp          1000d160 f   libucrt:_strnicm.obj
 0001:0000c1c1       __putwch_nolock            1000d1c1 f   libucrt:putwch.obj
 0001:0000c210       __CIlog10_pentium4         1000d210 f   libucrt:log10_pentium4.obj
 0001:0000c228       __log10_pentium4           1000d228     libucrt:log10_pentium4.obj
 0001:0000c4a0       __ceil_default             1000d4a0 f   libucrt:ceil.obj
 0001:0000c559       ??$?RV<lambda_123407a5e2ac06da108355a851863b7a>@@AAV<lambda_2fe9b910cf3cbf4a0ab98a02ba45b3ec>@@V<lambda_ae55bdf541ad94d75914d381c370e64d>@@@?$__crt_seh_guarded_call@H@@QAEH$$QAV<lambda_123407a5e2ac06da108355a851863b7a>@@AAV<lambda_2fe9b910cf3cbf4a0ab98a02ba45b3ec>@@$$QAV<lambda_ae55bdf541ad94d75914d381c370e64d>@@@Z 1000d559 f i libucrt:close.obj
 0001:0000c5db       ??$__acrt_lowio_lock_fh_and_call@V<lambda_2fe9b910cf3cbf4a0ab98a02ba45b3ec>@@@@YAHH$$QAV<lambda_2fe9b910cf3cbf4a0ab98a02ba45b3ec>@@@Z 1000d5db f i libucrt:close.obj
 0001:0000c603       __close                    1000d603 f   libucrt:close.obj
 0001:0000c682       __close_nolock             1000d682 f   libucrt:close.obj
 0001:0000c71e       ?__acrt_stdio_free_stream@@YAXV__crt_stdio_stream@@@Z 1000d71e f   libucrt:stream.obj
 0001:0000c759       ___dcrt_lowio_initialize_console_output 1000d759 f   libucrt:initcon.obj
 0001:0000c778       ___dcrt_terminate_console_output 1000d778 f   libucrt:initcon.obj
 0001:0000c790       _IsProcessorFeaturePresent@4 1000d790 f   kernel32:KERNEL32.dll
 0001:0000c796       _RtlUnwind@16              1000d796 f   kernel32:KERNEL32.dll
 0001:0000c7a0       __FindPESection            1000d7a0 f   LIBCMT:pesect.obj
 0001:0000c7f0       __IsNonwritableInCurrentImage 1000d7f0 f   LIBCMT:pesect.obj
 0001:0000c8b0       __ValidateImageBase        1000d8b0 f   LIBCMT:pesect.obj
 0001:0000c8f0       __aulldvrm                 1000d8f0 f   LIBCMT:ulldvrm.obj
 0001:0000c990       __SEH_prolog4_GS           1000d990 f   LIBCMT:_sehprolg4gs_.obj
 0001:0000c9d9       __SEH_epilog4_GS           1000d9d9 f   LIBCMT:_sehprolg4gs_.obj
 0001:0000c9f0       __alldiv                   1000d9f0 f   LIBCMT:lldiv.obj
 0001:0000caa0       __allrem                   1000daa0 f   LIBCMT:llrem.obj
 0001:0000cb60       __allmul                   1000db60 f   LIBCMT:llmul.obj
 0001:0000cba0       __alloca_probe_16          1000dba0 f   LIBCMT:alloca16.obj
 0001:0000cbb6       __alloca_probe_8           1000dbb6     LIBCMT:alloca16.obj
 0001:0000cbd0       __alldvrm                  1000dbd0 f   LIBCMT:lldvrm.obj
 0001:0000ccb0       __aullshr                  1000dcb0 f   LIBCMT:ullshr.obj
 0001:0000ccd0       __allshl                   1000dcd0 f   LIBCMT:llshl.obj
 0001:0000ccf0       __ftol2_sse                1000dcf0 f   LIBCMT:_ftol2_.obj
 0001:0000ccf9       __ftol2_pentium4           1000dcf9 f   LIBCMT:_ftol2_.obj
 0001:0000cd0c       __ftol2_sse_excpt          1000dd0c f   LIBCMT:_ftol2_.obj
 0001:0000cd30       __ftol2                    1000dd30 f   LIBCMT:_ftol2_.obj
 0001:0000cdb0       __alloca_probe             1000ddb0 f   LIBCMT:chkstk.obj
 0001:0000cdb0       __chkstk                   1000ddb0 f   LIBCMT:chkstk.obj
 0001:0000cde0       _memcpy                    1000dde0 f   libvcruntime:memcpy.obj
 0001:0000d360       _strchr                    1000e360 f   libvcruntime:strchr.obj
 0001:0000d3ce       ___from_strstr_to_strchr   1000e3ce     libvcruntime:strchr.obj
 0001:0000d490       _strrchr                   1000e490 f   libvcruntime:strrchr.obj
 0001:0000d5c8       ?System.Data.SQLite.AssemblySourceIdAttribute..ctor@@2001010O 1000e5c8 f   System.Data.SQLite.netmodule
 0001:0000d5e4       ?System.Data.SQLite.AssemblySourceIdAttribute.get_SourceId@@20000O 1000e5e4 f   System.Data.SQLite.netmodule
 0001:0000d5f8       ?System.Data.SQLite.AssemblySourceTimeStampAttribute..ctor@@2001010O 1000e5f8 f   System.Data.SQLite.netmodule
 0001:0000d614       ?System.Data.SQLite.AssemblySourceTimeStampAttribute.get_SourceTimeStamp@@20000O 1000e614 f   System.Data.SQLite.netmodule
 0001:0000d628       ?System.Data.SQLite.SQLite3..ctor@@2006011180O411790O180O02 1000e628 f   System.Data.SQLite.netmodule
 0001:0000d6d4       ?System.Data.SQLite.SQLite3.CheckDisposed@@200001 1000e6d4 f   System.Data.SQLite.netmodule
 0001:0000d700       ?System.Data.SQLite.SQLite3.Dispose@@20010102 1000e700 f   System.Data.SQLite.netmodule
 0001:0000d750       ?System.Data.SQLite.SQLite3.DisposeModules@@200001 1000e750 f   System.Data.SQLite.netmodule
 0001:0000d7cc       ?System.Data.SQLite.SQLite3.Close@@20010102 1000e7cc f   System.Data.SQLite.netmodule
 0001:0000d918       ?System.Data.SQLite.SQLite3.GetCancelCount@@200008 1000e918 f   System.Data.SQLite.netmodule
 0001:0000d934       ?System.Data.SQLite.SQLite3.ShouldThrowForCancel@@200002 1000e934 f   System.Data.SQLite.netmodule
 0001:0000d94c       ?System.Data.SQLite.SQLite3.ResetCancelCount@@200008 1000e94c f   System.Data.SQLite.netmodule
 0001:0000d96c       ?System.Data.SQLite.SQLite3.Cancel@@200001 1000e96c f   System.Data.SQLite.netmodule
 0001:0000d9b4       ?System.Data.SQLite.SQLite3.BindFunction@@200301128160128128112M 1000e9b4 f   System.Data.SQLite.netmodule
 0001:0000da08       ?System.Data.SQLite.SQLite3.UnbindFunction@@200202128160112M 1000ea08 f   System.Data.SQLite.netmodule
 0001:0000da5c       ?System.Data.SQLite.SQLite3.get_Version@@20000O 1000ea5c f   System.Data.SQLite.netmodule
 0001:0000da70       ?System.Data.SQLite.SQLite3.get_VersionNumber@@200008 1000ea70 f   System.Data.SQLite.netmodule
 0001:0000da84       ?System.Data.SQLite.SQLite3.get_DefineConstants@@00000O 1000ea84 f   System.Data.SQLite.netmodule
 0001:0000db04       ?System.Data.SQLite.SQLite3.get_SQLiteVersion@@00000O 1000eb04 f   System.Data.SQLite.netmodule
 0001:0000db1c       ?System.Data.SQLite.SQLite3.get_SQLiteVersionNumber@@000008 1000eb1c f   System.Data.SQLite.netmodule
 0001:0000db30       ?System.Data.SQLite.SQLite3.get_SQLiteSourceId@@00000O 1000eb30 f   System.Data.SQLite.netmodule
 0001:0000db48       ?System.Data.SQLite.SQLite3.get_SQLiteCompileOptions@@00000O 1000eb48 f   System.Data.SQLite.netmodule
 0001:0000dba8       ?System.Data.SQLite.SQLite3.get_InteropVersion@@00000O 1000eba8 f   System.Data.SQLite.netmodule
 0001:0000dbc0       ?System.Data.SQLite.SQLite3.get_InteropSourceId@@00000O 1000ebc0 f   System.Data.SQLite.netmodule
 0001:0000dbd8       ?System.Data.SQLite.SQLite3.get_InteropCompileOptions@@00000O 1000ebd8 f   System.Data.SQLite.netmodule
 0001:0000dc38       ?System.Data.SQLite.SQLite3.get_AutoCommit@@200002 1000ec38 f   System.Data.SQLite.netmodule
 0001:0000dc5c       ?System.Data.SQLite.SQLite3.IsReadOnly@@2001020O 1000ec5c f   System.Data.SQLite.netmodule
 0001:0000dcf0       ?System.Data.SQLite.SQLite3.get_LastInsertRowId@@20000K 1000ecf0 f   System.Data.SQLite.netmodule
 0001:0000dd10       ?System.Data.SQLite.SQLite3.get_Changes@@200008 1000ed10 f   System.Data.SQLite.netmodule
 0001:0000dd30       ?System.Data.SQLite.SQLite3.get_MemoryUsed@@20000K 1000ed30 f   System.Data.SQLite.netmodule
 0001:0000dd44       ?System.Data.SQLite.SQLite3.get_StaticMemoryUsed@@00000K 1000ed44 f   System.Data.SQLite.netmodule
 0001:0000dd58       ?System.Data.SQLite.SQLite3.get_MemoryHighwater@@20000K 1000ed58 f   System.Data.SQLite.netmodule
 0001:0000dd6c       ?System.Data.SQLite.SQLite3.get_StaticMemoryHighwater@@00000K 1000ed6c f   System.Data.SQLite.netmodule
 0001:0000dd80       ?System.Data.SQLite.SQLite3.get_OwnHandle@@200002 1000ed80 f   System.Data.SQLite.netmodule
 0001:0000ddac       ?System.Data.SQLite.SQLite3.get_Functions@@20001512809102128160128128 1000edac f   System.Data.SQLite.netmodule
 0001:0000ddc0       ?System.Data.SQLite.SQLite3.SetMemoryStatus@@200111812002 1000edc0 f   System.Data.SQLite.netmodule
 0001:0000ddd4       ?System.Data.SQLite.SQLite3.StaticSetMemoryStatus@@000111812002 1000edd4 f   System.Data.SQLite.netmodule
 0001:0000ddf0       ?System.Data.SQLite.SQLite3.ReleaseMemory@@2000118120 1000edf0 f   System.Data.SQLite.netmodule
 0001:0000de10       ?System.Data.SQLite.SQLite3.StaticReleaseMemory@@0006118120080202100810021009 1000ee10 f   System.Data.SQLite.netmodule
 0001:0000de6c       ?System.Data.SQLite.SQLite3.Shutdown@@2000118120 1000ee6c f   System.Data.SQLite.netmodule
 0001:0000de80       ?System.Data.SQLite.SQLite3.StaticShutdown@@000111812002 1000ee80 f   System.Data.SQLite.netmodule
 0001:0000debc       ?System.Data.SQLite.SQLite3.IsOpen@@200002 1000eebc f   System.Data.SQLite.netmodule
 0001:0000def0       ?System.Data.SQLite.SQLite3.GetFileName@@20010O0O 1000eef0 f   System.Data.SQLite.netmodule
 0001:0000df24       ?System.Data.SQLite.SQLite3.IsAllowedToUsePool@@0001021128 1000ef24 f   System.Data.SQLite.netmodule
 0001:0000df38       ?System.Data.SQLite.SQLite3.Open@@2006010O0O112M11280802 1000ef38 f   System.Data.SQLite.netmodule
 0001:0000e1c8       ?System.Data.SQLite.SQLite3.ClearPool@@200001 1000f1c8 f   System.Data.SQLite.netmodule
 0001:0000e1e0       ?System.Data.SQLite.SQLite3.CountPool@@200008 1000f1e0 f   System.Data.SQLite.netmodule
 0001:0000e20c       ?System.Data.SQLite.SQLite3.SetTimeout@@20010108 1000f20c f   System.Data.SQLite.netmodule
 0001:0000e254       ?System.Data.SQLite.SQLite3.Step@@200102128180 1000f254 f   System.Data.SQLite.netmodule
 0001:0000e34c       ?System.Data.SQLite.SQLite3.GetErrorString@@00010O118120 1000f34c f   System.Data.SQLite.netmodule
 0001:0000e3d4       ?System.Data.SQLite.SQLite3.IsReadOnly@@200102128180 1000f3d4 f   System.Data.SQLite.netmodule
 0001:0000e450       ?System.Data.SQLite.SQLite3.Reset@@2001118120128180 1000f450 f   System.Data.SQLite.netmodule
 0001:0000e504       ?System.Data.SQLite.SQLite3.GetLastError@@20000O 1000f504 f   System.Data.SQLite.netmodule
 0001:0000e518       ?System.Data.SQLite.SQLite3.GetLastError@@20010O0O 1000f518 f   System.Data.SQLite.netmodule
 0001:0000e548       ?System.Data.SQLite.SQLite3.ForceLogPrepare@@000002 1000f548 f   System.Data.SQLite.netmodule
 0001:0000e5cc       ?System.Data.SQLite.SQLite3.Prepare@@200512818012780O12818009100O 1000f5cc f   System.Data.SQLite.netmodule
 0001:0000ea18       ?System.Data.SQLite.SQLite3.LogBind@@0002011281K808 1000fa18 f   System.Data.SQLite.netmodule
 0001:0000ea58       ?System.Data.SQLite.SQLite3.LogBind@@0003011281K8081280K1 1000fa58 f   System.Data.SQLite.netmodule
 0001:0000eaa8       ?System.Data.SQLite.SQLite3.FormatDateTime@@00010O1180K5 1000faa8 f   System.Data.SQLite.netmodule
 0001:0000eb08       ?System.Data.SQLite.SQLite3.LogBind@@0003011281K8081180K5 1000fb08 f   System.Data.SQLite.netmodule
 0001:0000eb60       ?System.Data.SQLite.SQLite3.LogBind@@0003011281K8080O 1000fb60 f   System.Data.SQLite.netmodule
 0001:0000ebbc       ?System.Data.SQLite.SQLite3.ToHexadecimalString@@00010O1N05 1000fbbc f   System.Data.SQLite.netmodule
 0001:0000ec08       ?System.Data.SQLite.SQLite3.LogBind@@0003011281K8081N05 1000fc08 f   System.Data.SQLite.netmodule
 0001:0000ec68       ?System.Data.SQLite.SQLite3.Bind_Double@@200401128180112M080N 1000fc68 f   System.Data.SQLite.netmodule
 0001:0000ecb8       ?System.Data.SQLite.SQLite3.Bind_Int32@@200401128180112M0808 1000fcb8 f   System.Data.SQLite.netmodule
 0001:0000ed08       ?System.Data.SQLite.SQLite3.Bind_UInt32@@200401128180112M0809 1000fd08 f   System.Data.SQLite.netmodule
 0001:0000ed78       ?System.Data.SQLite.SQLite3.Bind_Int64@@200401128180112M080K 1000fd78 f   System.Data.SQLite.netmodule
 0001:0000edc8       ?System.Data.SQLite.SQLite3.Bind_UInt64@@200401128180112M080L 1000fdc8 f   System.Data.SQLite.netmodule
 0001:0000ee18       ?System.Data.SQLite.SQLite3.Bind_Boolean@@200401128180112M0802 1000fe18 f   System.Data.SQLite.netmodule
 0001:0000ee70       ?System.Data.SQLite.SQLite3.Bind_Text@@200401128180112M080O 1000fe70 f   System.Data.SQLite.netmodule
 0001:0000eee4       ?System.Data.SQLite.SQLite3.Bind_DateTime@@200401128180112M081180K5 1000fee4 f   System.Data.SQLite.netmodule
 0001:0000f0c4       ?System.Data.SQLite.SQLite3.Bind_Blob@@200401128180112M081N05 100100c4 f   System.Data.SQLite.netmodule
 0001:0000f11c       ?System.Data.SQLite.SQLite3.Bind_Null@@200301128180112M08 1001011c f   System.Data.SQLite.netmodule
 0001:0000f164       ?System.Data.SQLite.SQLite3.Bind_ParamCount@@200208128180112M 10010164 f   System.Data.SQLite.netmodule
 0001:0000f1c8       ?System.Data.SQLite.SQLite3.Bind_ParamName@@20030O128180112M08 100101c8 f   System.Data.SQLite.netmodule
 0001:0000f23c       ?System.Data.SQLite.SQLite3.Bind_ParamIndex@@200308128180112M0O 1001023c f   System.Data.SQLite.netmodule
 0001:0000f2ac       ?System.Data.SQLite.SQLite3.ColumnCount@@200108128180 100102ac f   System.Data.SQLite.netmodule
 0001:0000f2cc       ?System.Data.SQLite.SQLite3.ColumnName@@20020O12818008 100102cc f   System.Data.SQLite.netmodule
 0001:0000f310       ?System.Data.SQLite.SQLite3.ColumnAffinity@@20021180NM12818008 10010310 f   System.Data.SQLite.netmodule
 0001:0000f330       ?System.Data.SQLite.SQLite3.ColumnType@@20030O12818008101180NM 10010330 f   System.Data.SQLite.netmodule
 0001:0000f3a4       ?System.Data.SQLite.SQLite3.ColumnIndex@@2002081281800O 100103a4 f   System.Data.SQLite.netmodule
 0001:0000f3dc       ?System.Data.SQLite.SQLite3.ColumnOriginalName@@20020O12818008 100103dc f   System.Data.SQLite.netmodule
 0001:0000f404       ?System.Data.SQLite.SQLite3.ColumnDatabaseName@@20020O12818008 10010404 f   System.Data.SQLite.netmodule
 0001:0000f42c       ?System.Data.SQLite.SQLite3.ColumnTableName@@20020O12818008 1001042c f   System.Data.SQLite.netmodule
 0001:0000f454       ?System.Data.SQLite.SQLite3.DoesTableExist@@2002020O0O 10010454 f   System.Data.SQLite.netmodule
 0001:0000f480       ?System.Data.SQLite.SQLite3.ColumnMetaData@@2009020O0O0O02100O100O100210021002 10010480 f   System.Data.SQLite.netmodule
 0001:0000f520       ?System.Data.SQLite.SQLite3.GetObject@@20021M12818008 10010520 f   System.Data.SQLite.netmodule
 0001:0000f5b8       ?System.Data.SQLite.SQLite3.GetDouble@@20020N12818008 100105b8 f   System.Data.SQLite.netmodule
 0001:0000f5d8       ?System.Data.SQLite.SQLite3.GetBoolean@@20020212818008 100105d8 f   System.Data.SQLite.netmodule
 0001:0000f5f8       ?System.Data.SQLite.SQLite3.GetSByte@@20020412818008 100105f8 f   System.Data.SQLite.netmodule
 0001:0000f614       ?System.Data.SQLite.SQLite3.GetByte@@20020512818008 10010614 f   System.Data.SQLite.netmodule
 0001:0000f630       ?System.Data.SQLite.SQLite3.GetInt16@@20020612818008 10010630 f   System.Data.SQLite.netmodule
 0001:0000f64c       ?System.Data.SQLite.SQLite3.GetUInt16@@20020712818008 1001064c f   System.Data.SQLite.netmodule
 0001:0000f668       ?System.Data.SQLite.SQLite3.GetInt32@@20020812818008 10010668 f   System.Data.SQLite.netmodule
 0001:0000f688       ?System.Data.SQLite.SQLite3.GetUInt32@@20020912818008 10010688 f   System.Data.SQLite.netmodule
 0001:0000f6a0       ?System.Data.SQLite.SQLite3.GetInt64@@20020K12818008 100106a0 f   System.Data.SQLite.netmodule
 0001:0000f6c0       ?System.Data.SQLite.SQLite3.GetUInt64@@20020L12818008 100106c0 f   System.Data.SQLite.netmodule
 0001:0000f6d8       ?System.Data.SQLite.SQLite3.GetText@@20020O12818008 100106d8 f   System.Data.SQLite.netmodule
 0001:0000f700       ?System.Data.SQLite.SQLite3.GetDateTime@@20021180K512818008 10010700 f   System.Data.SQLite.netmodule
 0001:0000f780       ?System.Data.SQLite.SQLite3.GetBytes@@20060K12818008081N050808 10010780 f   System.Data.SQLite.netmodule
 0001:0000f7fc       ?System.Data.SQLite.SQLite3.GetChar@@20020312818008 100107fc f   System.Data.SQLite.netmodule
 0001:0000f818       ?System.Data.SQLite.SQLite3.GetChars@@20060K12818008081N030808 10010818 f   System.Data.SQLite.netmodule
 0001:0000f874       ?System.Data.SQLite.SQLite3.IsNull@@20020212818008 10010874 f   System.Data.SQLite.netmodule
 0001:0000f88c       ?System.Data.SQLite.SQLite3.AggregateCount@@20010818 1001088c f   System.Data.SQLite.netmodule
 0001:0000f8a0       ?System.Data.SQLite.SQLite3.CreateFunction@@20071181200O080212814812814812814M02 100108a0 f   System.Data.SQLite.netmodule
 0001:0000f91c       ?System.Data.SQLite.SQLite3.CreateCollation@@20041181200O12815012815002 1001091c f   System.Data.SQLite.netmodule
 0001:0000f980       ?System.Data.SQLite.SQLite3.ContextCollateCompare@@200408118158180O0O 10010980 f   System.Data.SQLite.netmodule
 0001:0000f9dc       ?System.Data.SQLite.SQLite3.ContextCollateCompare@@200408118158181N031N03 100109dc f   System.Data.SQLite.netmodule
 0001:0000fa38       ?System.Data.SQLite.SQLite3.GetCollationSequence@@200211815M12812818 10010a38 f   System.Data.SQLite.netmodule
 0001:0000fa88       ?System.Data.SQLite.SQLite3.GetParamValueBytes@@20050K18081N050808 10010a88 f   System.Data.SQLite.netmodule
 0001:0000fae8       ?System.Data.SQLite.SQLite3.GetParamValueDouble@@20010N18 10010ae8 f   System.Data.SQLite.netmodule
 0001:0000fafc       ?System.Data.SQLite.SQLite3.GetParamValueInt32@@20010818 10010afc f   System.Data.SQLite.netmodule
 0001:0000fb10       ?System.Data.SQLite.SQLite3.GetParamValueInt64@@20010K18 10010b10 f   System.Data.SQLite.netmodule
 0001:0000fb24       ?System.Data.SQLite.SQLite3.GetParamValueText@@20010O18 10010b24 f   System.Data.SQLite.netmodule
 0001:0000fb44       ?System.Data.SQLite.SQLite3.GetParamValueType@@20011180NM18 10010b44 f   System.Data.SQLite.netmodule
 0001:0000fb58       ?System.Data.SQLite.SQLite3.ReturnBlob@@200201181N05 10010b58 f   System.Data.SQLite.netmodule
 0001:0000fb78       ?System.Data.SQLite.SQLite3.ReturnDouble@@200201180N 10010b78 f   System.Data.SQLite.netmodule
 0001:0000fb8c       ?System.Data.SQLite.SQLite3.ReturnError@@200201180O 10010b8c f   System.Data.SQLite.netmodule
 0001:0000fbac       ?System.Data.SQLite.SQLite3.ReturnInt32@@2002011808 10010bac f   System.Data.SQLite.netmodule
 0001:0000fbc0       ?System.Data.SQLite.SQLite3.ReturnInt64@@200201180K 10010bc0 f   System.Data.SQLite.netmodule
 0001:0000fbd4       ?System.Data.SQLite.SQLite3.ReturnNull@@20010118 10010bd4 f   System.Data.SQLite.netmodule
 0001:0000fbe8       ?System.Data.SQLite.SQLite3.ReturnText@@200201180O 10010be8 f   System.Data.SQLite.netmodule
 0001:0000fc14       ?System.Data.SQLite.SQLite3.GetShimExtensionFileName@@20010O1002 10010c14 f   System.Data.SQLite.netmodule
 0001:0000fc50       ?System.Data.SQLite.SQLite3.CreateModule@@200201128208112M 10010c50 f   System.Data.SQLite.netmodule
 0001:0000fd38       ?System.Data.SQLite.SQLite3.DisposeModule@@200201128208112M 10010d38 f   System.Data.SQLite.netmodule
 0001:0000fd5c       ?System.Data.SQLite.SQLite3.AggregateContext@@20011818 10010d5c f   System.Data.SQLite.netmodule
 0001:0000fd70       ?System.Data.SQLite.SQLite3.DeclareVirtualTable@@20031181201282080O100O 10010d70 f   System.Data.SQLite.netmodule
 0001:0000fe00       ?System.Data.SQLite.SQLite3.DeclareVirtualFunction@@2004118120128208080O100O 10010e00 f   System.Data.SQLite.netmodule
 0001:0000fe84       ?System.Data.SQLite.SQLite3.GetStatusDbOpsNames@@00000O 10010e84 f   System.Data.SQLite.netmodule
 0001:0000fee4       ?System.Data.SQLite.SQLite3.GetConfigDbOpsNames@@00000O 10010ee4 f   System.Data.SQLite.netmodule
 0001:0000ff44       ?System.Data.SQLite.SQLite3.GetStatusParameter@@200411812011300210081008 10010f44 f   System.Data.SQLite.netmodule
 0001:0000ffa8       ?System.Data.SQLite.SQLite3.SetConfigurationOption@@200211812011341M 10010fa8 f   System.Data.SQLite.netmodule
 0001:00010268       ?System.Data.SQLite.SQLite3.SetLoadExtension@@20010102 10011268 f   System.Data.SQLite.netmodule
 0001:000102c0       ?System.Data.SQLite.SQLite3.LoadExtension@@2002010O0O 100112c0 f   System.Data.SQLite.netmodule
 0001:00010370       ?System.Data.SQLite.SQLite3.SetExtendedResultCodes@@20010102 10011370 f   System.Data.SQLite.netmodule
 0001:000103a8       ?System.Data.SQLite.SQLite3.ResultCode@@2000118120 100113a8 f   System.Data.SQLite.netmodule
 0001:000103c8       ?System.Data.SQLite.SQLite3.ExtendedResultCode@@2000118120 100113c8 f   System.Data.SQLite.netmodule
 0001:000103e8       ?System.Data.SQLite.SQLite3.LogMessage@@2002011181200O 100113e8 f   System.Data.SQLite.netmodule
 0001:000103fc       ?System.Data.SQLite.SQLite3.StaticLogMessage@@0002011181200O 100113fc f   System.Data.SQLite.netmodule
 0001:00010418       ?System.Data.SQLite.SQLite3.SetPassword@@2001011N05 10011418 f   System.Data.SQLite.netmodule
 0001:0001045c       ?System.Data.SQLite.SQLite3.ChangePassword@@2001011N05 1001145c f   System.Data.SQLite.netmodule
 0001:000104a4       ?System.Data.SQLite.SQLite3.SetProgressHook@@20020108128080 100114a4 f   System.Data.SQLite.netmodule
 0001:000104c8       ?System.Data.SQLite.SQLite3.SetAuthorizerHook@@200101128084 100114c8 f   System.Data.SQLite.netmodule
 0001:000104ec       ?System.Data.SQLite.SQLite3.SetUpdateHook@@200101128088 100114ec f   System.Data.SQLite.netmodule
 0001:00010510       ?System.Data.SQLite.SQLite3.SetCommitHook@@20010112808M 10011510 f   System.Data.SQLite.netmodule
 0001:00010534       ?System.Data.SQLite.SQLite3.SetTraceCallback@@200101128090 10011534 f   System.Data.SQLite.netmodule
 0001:00010558       ?System.Data.SQLite.SQLite3.SetTraceCallback2@@200201113M128094 10011558 f   System.Data.SQLite.netmodule
 0001:00010580       ?System.Data.SQLite.SQLite3.SetRollbackHook@@200101128098 10011580 f   System.Data.SQLite.netmodule
 0001:000105a4       ?System.Data.SQLite.SQLite3.SetLogCallback@@20011181201210 100115a4 f   System.Data.SQLite.netmodule
 0001:000105cc       ?System.Data.SQLite.SQLite3.AppendError@@0002011280850O 100115cc f   System.Data.SQLite.netmodule
 0001:000105e8       ?System.Data.SQLite.SQLite3.UnhookNativeCallbacks@@2002020202 100115e8 f   System.Data.SQLite.netmodule
 0001:000107b8       ?System.Data.SQLite.SQLite3.FreeDbName@@20010202 100117b8 f   System.Data.SQLite.netmodule
 0001:00010818       ?System.Data.SQLite.SQLite3.InitializeBackup@@2003121M12780O0O 10011818 f   System.Data.SQLite.netmodule
 0001:00010968       ?System.Data.SQLite.SQLite3.StepBackup@@200302121M081002 10011968 f   System.Data.SQLite.netmodule
 0001:000109f0       ?System.Data.SQLite.SQLite3.RemainingBackup@@200108121M 100119f0 f   System.Data.SQLite.netmodule
 0001:00010a44       ?System.Data.SQLite.SQLite3.PageCountBackup@@200108121M 10011a44 f   System.Data.SQLite.netmodule
 0001:00010a98       ?System.Data.SQLite.SQLite3.FinishBackup@@200101121M 10011a98 f   System.Data.SQLite.netmodule
 0001:00010b0c       ?System.Data.SQLite.SQLite3.IsInitialized@@200002 10011b0c f   System.Data.SQLite.netmodule
 0001:00010b20       ?System.Data.SQLite.SQLite3.StaticIsInitialized@@000002 10011b20 f   System.Data.SQLite.netmodule
 0001:00010ba0       ?System.Data.SQLite.SQLite3.GetValue@@20041M128180112M08128100 10011ba0 f   System.Data.SQLite.netmodule
 0001:00010e10       ?System.Data.SQLite.SQLite3.GetCursorForTable@@2003081281800808 10011e10 f   System.Data.SQLite.netmodule
 0001:00010e30       ?System.Data.SQLite.SQLite3.GetRowIdForCursor@@20020K12818008 10011e30 f   System.Data.SQLite.netmodule
 0001:00010e5c       ?System.Data.SQLite.SQLite3.GetIndexColumnExtendedInfo@@2006010O0O0O10081008100O 10011e5c f   System.Data.SQLite.netmodule
 0001:00010eb4       ?System.Data.SQLite.SQLite3.FileControl@@20031181200O0818 10011eb4 f   System.Data.SQLite.netmodule
 0001:00010ee0       ?System.Data.SQLite.SQLite3..cctor@@000001 10011ee0 f   System.Data.SQLite.netmodule
 0001:00010f18       ?System.Data.SQLite.SQLite3_UTF16..ctor@@2006011180O411790O180O02 10011f18 f   System.Data.SQLite.netmodule
 0001:00010f34       ?System.Data.SQLite.SQLite3_UTF16.CheckDisposed@@200001 10011f34 f   System.Data.SQLite.netmodule
 0001:00010f60       ?System.Data.SQLite.SQLite3_UTF16.Dispose@@20010102 10011f60 f   System.Data.SQLite.netmodule
 0001:00010fa4       ?System.Data.SQLite.SQLite3_UTF16.ToString@@20020O1808 10011fa4 f   System.Data.SQLite.netmodule
 0001:00010fc0       ?System.Data.SQLite.SQLite3_UTF16.UTF16ToString@@00020O1808 10011fc0 f   System.Data.SQLite.netmodule
 0001:00010ff8       ?System.Data.SQLite.SQLite3_UTF16.Open@@2006010O0O112M11280802 10011ff8 f   System.Data.SQLite.netmodule
 0001:000112a4       ?System.Data.SQLite.SQLite3_UTF16.Bind_DateTime@@200401128180112M081180K5 100122a4 f   System.Data.SQLite.netmodule
 0001:0001130c       ?System.Data.SQLite.SQLite3_UTF16.Bind_Text@@200401128180112M080O 1001230c f   System.Data.SQLite.netmodule
 0001:00011360       ?System.Data.SQLite.SQLite3_UTF16.GetDateTime@@20021180K512818008 10012360 f   System.Data.SQLite.netmodule
 0001:000113d4       ?System.Data.SQLite.SQLite3_UTF16.ColumnName@@20020O12818008 100123d4 f   System.Data.SQLite.netmodule
 0001:00011418       ?System.Data.SQLite.SQLite3_UTF16.GetText@@20020O12818008 10012418 f   System.Data.SQLite.netmodule
 0001:00011440       ?System.Data.SQLite.SQLite3_UTF16.ColumnOriginalName@@20020O12818008 10012440 f   System.Data.SQLite.netmodule
 0001:00011468       ?System.Data.SQLite.SQLite3_UTF16.ColumnDatabaseName@@20020O12818008 10012468 f   System.Data.SQLite.netmodule
 0001:00011490       ?System.Data.SQLite.SQLite3_UTF16.ColumnTableName@@20020O12818008 10012490 f   System.Data.SQLite.netmodule
 0001:000114b8       ?System.Data.SQLite.SQLite3_UTF16.GetParamValueText@@20010O18 100124b8 f   System.Data.SQLite.netmodule
 0001:000114d8       ?System.Data.SQLite.SQLite3_UTF16.ReturnError@@200201180O 100124d8 f   System.Data.SQLite.netmodule
 0001:000114f4       ?System.Data.SQLite.SQLite3_UTF16.ReturnText@@200201180O 100124f4 f   System.Data.SQLite.netmodule
 0001:00011518       ?System.Data.SQLite.SQLiteBackup..ctor@@20060112201281KM181N05181N05 10012518 f   System.Data.SQLite.netmodule
 0001:00011558       ?System.Data.SQLite.SQLiteBackup.Dispose@@200001 10012558 f   System.Data.SQLite.netmodule
 0001:00011574       ?System.Data.SQLite.SQLiteBackup.CheckDisposed@@200001 10012574 f   System.Data.SQLite.netmodule
 0001:000115a0       ?System.Data.SQLite.SQLiteBackup.Dispose@@20010102 100125a0 f   System.Data.SQLite.netmodule
 0001:00011604       ?System.Data.SQLite.SQLiteBackup.Finalize@@200001 10012604 f   System.Data.SQLite.netmodule
 0001:00011640       ?System.Data.SQLite.SQLiteBase..ctor@@2003011180O411790O 10012640 f   System.Data.SQLite.netmodule
 0001:00011658       ?System.Data.SQLite.SQLiteBase.Dispose@@200001 10012658 f   System.Data.SQLite.netmodule
 0001:00011674       ?System.Data.SQLite.SQLiteBase.CheckDisposed@@200001 10012674 f   System.Data.SQLite.netmodule
 0001:000116a0       ?System.Data.SQLite.SQLiteBase.Dispose@@20010102 100126a0 f   System.Data.SQLite.netmodule
 0001:000116bc       ?System.Data.SQLite.SQLiteBase.Finalize@@200001 100126bc f   System.Data.SQLite.netmodule
 0001:000116f8       ?System.Data.SQLite.SQLiteBase.FallbackGetErrorString@@00010O118120 100126f8 f   System.Data.SQLite.netmodule
 0001:00011754       ?System.Data.SQLite.SQLiteBase.GetLastError@@00020O1281K418 10012754 f   System.Data.SQLite.netmodule
 0001:000117f8       ?System.Data.SQLite.SQLiteBase.FinishBackup@@0002011281K418 100127f8 f   System.Data.SQLite.netmodule
 0001:00011878       ?System.Data.SQLite.SQLiteBase.CloseBlob@@0002011281K418 10012878 f   System.Data.SQLite.netmodule
 0001:000118f8       ?System.Data.SQLite.SQLiteBase.FinalizeStatement@@0002011281K418 100128f8 f   System.Data.SQLite.netmodule
 0001:00011978       ?System.Data.SQLite.SQLiteBase.CloseConnection@@0002011281K418 10012978 f   System.Data.SQLite.netmodule
 0001:00011a00       ?System.Data.SQLite.SQLiteBase.CloseConnectionV2@@0002011281K418 10012a00 f   System.Data.SQLite.netmodule
 0001:00011a88       ?System.Data.SQLite.SQLiteBase.ResetConnection@@0003021281K41802 10012a88 f   System.Data.SQLite.netmodule
 0001:00011bb4       ?System.Data.SQLite.SQLiteBase.IsAutocommit@@0002021281K418 10012bb4 f   System.Data.SQLite.netmodule
 0001:00011c48       ?System.Data.SQLite.SQLiteBase..cctor@@000001 10012c48 f   System.Data.SQLite.netmodule
 0001:00011d60       ?System.Data.SQLite.SQLiteBlob..ctor@@20020112201281L0 10012d60 f   System.Data.SQLite.netmodule
 0001:00011d84       ?System.Data.SQLite.SQLiteBlob.Create@@000312401281140802 10012d84 f   System.Data.SQLite.netmodule
 0001:00011de4       ?System.Data.SQLite.SQLiteBlob.Create@@0006124012780O0O0O0K02 10012de4 f   System.Data.SQLite.netmodule
 0001:00011ee4       ?System.Data.SQLite.SQLiteBlob.CheckOpen@@200001 10012ee4 f   System.Data.SQLite.netmodule
 0001:00011f14       ?System.Data.SQLite.SQLiteBlob.VerifyParameters@@2003011N050808 10012f14 f   System.Data.SQLite.netmodule
 0001:00011f60       ?System.Data.SQLite.SQLiteBlob.Reopen@@2001010K 10012f60 f   System.Data.SQLite.netmodule
 0001:00011f9c       ?System.Data.SQLite.SQLiteBlob.GetCount@@200008 10012f9c f   System.Data.SQLite.netmodule
 0001:00011fc8       ?System.Data.SQLite.SQLiteBlob.Read@@2003011N050808 10012fc8 f   System.Data.SQLite.netmodule
 0001:0001200c       ?System.Data.SQLite.SQLiteBlob.Write@@2003011N050808 1001300c f   System.Data.SQLite.netmodule
 0001:00012050       ?System.Data.SQLite.SQLiteBlob.Close@@200001 10013050 f   System.Data.SQLite.netmodule
 0001:00012064       ?System.Data.SQLite.SQLiteBlob.Dispose@@200001 10013064 f   System.Data.SQLite.netmodule
 0001:00012080       ?System.Data.SQLite.SQLiteBlob.CheckDisposed@@200001 10013080 f   System.Data.SQLite.netmodule
 0001:000120ac       ?System.Data.SQLite.SQLiteBlob.Dispose@@20010102 100130ac f   System.Data.SQLite.netmodule
 0001:000120ec       ?System.Data.SQLite.SQLiteBlob.Finalize@@200001 100130ec f   System.Data.SQLite.netmodule
 0001:00012128       ?System.Data.SQLite.SQLiteCommand..ctor@@200001 10013128 f   System.Data.SQLite.netmodule
 0001:00012140       ?System.Data.SQLite.SQLiteCommand..ctor@@2001010O 10013140 f   System.Data.SQLite.netmodule
 0001:00012158       ?System.Data.SQLite.SQLiteCommand..ctor@@2002010O1278 10013158 f   System.Data.SQLite.netmodule
 0001:00012170       ?System.Data.SQLite.SQLiteCommand..ctor@@2001011278 10013170 f   System.Data.SQLite.netmodule
 0001:00012188       ?System.Data.SQLite.SQLiteCommand..ctor@@2001011244 10013188 f   System.Data.SQLite.netmodule
 0001:00012234       ?System.Data.SQLite.SQLiteCommand..ctor@@2003010O1278128184 10013234 f   System.Data.SQLite.netmodule
 0001:000122a8       ?System.Data.SQLite.SQLiteCommand.Check@@0001011244 100132a8 f   System.Data.SQLite.netmodule
 0001:000122cc       ?System.Data.SQLite.SQLiteCommand.CheckDisposed@@200001 100132cc f   System.Data.SQLite.netmodule
 0001:000122f8       ?System.Data.SQLite.SQLiteCommand.Dispose@@20010102 100132f8 f   System.Data.SQLite.netmodule
 0001:000123e4       ?System.Data.SQLite.SQLiteCommand.GetFlags@@0001112M1244 100133e4 f   System.Data.SQLite.netmodule
 0001:00012434       ?System.Data.SQLite.SQLiteCommand.DisposeStatements@@200001 10013434 f   System.Data.SQLite.netmodule
 0001:00012480       ?System.Data.SQLite.SQLiteCommand.ClearDataReader@@200001 10013480 f   System.Data.SQLite.netmodule
 0001:000124dc       ?System.Data.SQLite.SQLiteCommand.ClearCommands@@200001 100134dc f   System.Data.SQLite.netmodule
 0001:00012500       ?System.Data.SQLite.SQLiteCommand.BuildNextCommand@@2000128180 10013500 f   System.Data.SQLite.netmodule
 0001:00012624       ?System.Data.SQLite.SQLiteCommand.GetStatement@@200112818008 10013624 f   System.Data.SQLite.netmodule
 0001:00012678       ?System.Data.SQLite.SQLiteCommand.Cancel@@200001 10013678 f   System.Data.SQLite.netmodule
 0001:000126b0       ?System.Data.SQLite.SQLiteCommand.get_CommandText@@20000O 100136b0 f   System.Data.SQLite.netmodule
 0001:000126cc       ?System.Data.SQLite.SQLiteCommand.set_CommandText@@2001010O 100136cc f   System.Data.SQLite.netmodule
 0001:00012724       ?System.Data.SQLite.SQLiteCommand.get_CommandTimeout@@200008 10013724 f   System.Data.SQLite.netmodule
 0001:00012740       ?System.Data.SQLite.SQLiteCommand.set_CommandTimeout@@20010108 10013740 f   System.Data.SQLite.netmodule
 0001:0001275c       ?System.Data.SQLite.SQLiteCommand.get_CommandType@@20001180P1 1001375c f   System.Data.SQLite.netmodule
 0001:00012770       ?System.Data.SQLite.SQLiteCommand.set_CommandType@@2001011180P1 10013770 f   System.Data.SQLite.netmodule
 0001:00012790       ?System.Data.SQLite.SQLiteCommand.CreateDbParameter@@20001280P5 10013790 f   System.Data.SQLite.netmodule
 0001:000127a4       ?System.Data.SQLite.SQLiteCommand.CreateParameter@@2000128178 100137a4 f   System.Data.SQLite.netmodule
 0001:000127c0       ?System.Data.SQLite.SQLiteCommand.get_Connection@@20001278 100137c0 f   System.Data.SQLite.netmodule
 0001:000127dc       ?System.Data.SQLite.SQLiteCommand.set_Connection@@2001011278 100137dc f   System.Data.SQLite.netmodule
 0001:00012840       ?System.Data.SQLite.SQLiteCommand.get_DbConnection@@20001280P9 10013840 f   System.Data.SQLite.netmodule
 0001:00012854       ?System.Data.SQLite.SQLiteCommand.set_DbConnection@@2001011280P9 10013854 f   System.Data.SQLite.netmodule
 0001:00012870       ?System.Data.SQLite.SQLiteCommand.get_Parameters@@200012817M 10013870 f   System.Data.SQLite.netmodule
 0001:0001288c       ?System.Data.SQLite.SQLiteCommand.get_DbParameterCollection@@20001280PN 1001388c f   System.Data.SQLite.netmodule
 0001:000128a0       ?System.Data.SQLite.SQLiteCommand.get_Transaction@@2000128184 100138a0 f   System.Data.SQLite.netmodule
 0001:000128bc       ?System.Data.SQLite.SQLiteCommand.set_Transaction@@200101128184 100138bc f   System.Data.SQLite.netmodule
 0001:00012934       ?System.Data.SQLite.SQLiteCommand.get_DbTransaction@@2000128101 10013934 f   System.Data.SQLite.netmodule
 0001:00012948       ?System.Data.SQLite.SQLiteCommand.set_DbTransaction@@200101128101 10013948 f   System.Data.SQLite.netmodule
 0001:00012964       ?System.Data.SQLite.SQLiteCommand.VerifyOnly@@200001 10013964 f   System.Data.SQLite.netmodule
 0001:00012a78       ?System.Data.SQLite.SQLiteCommand.InitializeForReader@@200001 10013a78 f   System.Data.SQLite.netmodule
 0001:00012b08       ?System.Data.SQLite.SQLiteCommand.ExecuteDbDataReader@@200112810911810N 10013b08 f   System.Data.SQLite.netmodule
 0001:00012b1c       ?System.Data.SQLite.SQLiteCommand.Execute@@00041M0O1180P00O1N1M 10013b1c f   System.Data.SQLite.netmodule
 0001:00012b34       ?System.Data.SQLite.SQLiteCommand.Execute@@00051M0O1180P011810N0O1N1M 10013b34 f   System.Data.SQLite.netmodule
 0001:00012cb8       ?System.Data.SQLite.SQLiteCommand.ExecuteReader@@200112811411810N 10013cb8 f   System.Data.SQLite.netmodule
 0001:00012ce8       ?System.Data.SQLite.SQLiteCommand.ExecuteReader@@2000128114 10013ce8 f   System.Data.SQLite.netmodule
 0001:00012d04       ?System.Data.SQLite.SQLiteCommand.ResetDataReader@@200001 10013d04 f   System.Data.SQLite.netmodule
 0001:00012d18       ?System.Data.SQLite.SQLiteCommand.ExecuteNonQuery@@200008 10013d18 f   System.Data.SQLite.netmodule
 0001:00012d34       ?System.Data.SQLite.SQLiteCommand.ExecuteNonQuery@@20010811810N 10013d34 f   System.Data.SQLite.netmodule
 0001:00012d8c       ?System.Data.SQLite.SQLiteCommand.ExecuteScalar@@20001M 10013d8c f   System.Data.SQLite.netmodule
 0001:00012da8       ?System.Data.SQLite.SQLiteCommand.ExecuteScalar@@20011M11810N 10013da8 f   System.Data.SQLite.netmodule
 0001:00012e10       ?System.Data.SQLite.SQLiteCommand.Reset@@200001 10013e10 f   System.Data.SQLite.netmodule
 0001:00012e2c       ?System.Data.SQLite.SQLiteCommand.Reset@@2002010202 10013e2c f   System.Data.SQLite.netmodule
 0001:00012f04       ?System.Data.SQLite.SQLiteCommand.Prepare@@200001 10013f04 f   System.Data.SQLite.netmodule
 0001:00012f18       ?System.Data.SQLite.SQLiteCommand.get_UpdatedRowSource@@20001180N9 10013f18 f   System.Data.SQLite.netmodule
 0001:00012f34       ?System.Data.SQLite.SQLiteCommand.set_UpdatedRowSource@@2001011180N9 10013f34 f   System.Data.SQLite.netmodule
 0001:00012f50       ?System.Data.SQLite.SQLiteCommand.get_DesignTimeVisible@@200002 10013f50 f   System.Data.SQLite.netmodule
 0001:00012f6c       ?System.Data.SQLite.SQLiteCommand.set_DesignTimeVisible@@20010102 10013f6c f   System.Data.SQLite.netmodule
 0001:00012f8c       ?System.Data.SQLite.SQLiteCommand.Clone@@20001M 10013f8c f   System.Data.SQLite.netmodule
 0001:00012fa8       ?System.Data.SQLite.SQLiteCommand..cctor@@000001 10013fa8 f   System.Data.SQLite.netmodule
 0001:00012fc0       ?System.Data.SQLite.SQLiteCommandBuilder..ctor@@200001 10013fc0 f   System.Data.SQLite.netmodule
 0001:00012fd4       ?System.Data.SQLite.SQLiteCommandBuilder..ctor@@200101128110 10013fd4 f   System.Data.SQLite.netmodule
 0001:00013004       ?System.Data.SQLite.SQLiteCommandBuilder.CheckDisposed@@200001 10014004 f   System.Data.SQLite.netmodule
 0001:00013030       ?System.Data.SQLite.SQLiteCommandBuilder.Dispose@@20010102 10014030 f   System.Data.SQLite.netmodule
 0001:00013074       ?System.Data.SQLite.SQLiteCommandBuilder.ApplyParameterInfo@@2004011280P512814111814502 10014074 f   System.Data.SQLite.netmodule
 0001:0001309c       ?System.Data.SQLite.SQLiteCommandBuilder.GetParameterName@@20010O0O 1001409c f   System.Data.SQLite.netmodule
 0001:000130c4       ?System.Data.SQLite.SQLiteCommandBuilder.GetParameterName@@20010O08 100140c4 f   System.Data.SQLite.netmodule
 0001:000130f0       ?System.Data.SQLite.SQLiteCommandBuilder.GetParameterPlaceholder@@20010O08 100140f0 f   System.Data.SQLite.netmodule
 0001:00013104       ?System.Data.SQLite.SQLiteCommandBuilder.SetRowUpdatingHandler@@200101128149 10014104 f   System.Data.SQLite.netmodule
 0001:0001314c       ?System.Data.SQLite.SQLiteCommandBuilder.RowUpdatingEventHandler@@2002011M12814N 1001414c f   System.Data.SQLite.netmodule
 0001:00013160       ?System.Data.SQLite.SQLiteCommandBuilder.get_DataAdapter@@2000128110 10014160 f   System.Data.SQLite.netmodule
 0001:00013180       ?System.Data.SQLite.SQLiteCommandBuilder.set_DataAdapter@@200101128110 10014180 f   System.Data.SQLite.netmodule
 0001:0001319c       ?System.Data.SQLite.SQLiteCommandBuilder.GetDeleteCommand@@20001244 1001419c f   System.Data.SQLite.netmodule
 0001:000131bc       ?System.Data.SQLite.SQLiteCommandBuilder.GetDeleteCommand@@2001124402 100141bc f   System.Data.SQLite.netmodule
 0001:000131dc       ?System.Data.SQLite.SQLiteCommandBuilder.GetUpdateCommand@@20001244 100141dc f   System.Data.SQLite.netmodule
 0001:000131fc       ?System.Data.SQLite.SQLiteCommandBuilder.GetUpdateCommand@@2001124402 100141fc f   System.Data.SQLite.netmodule
 0001:0001321c       ?System.Data.SQLite.SQLiteCommandBuilder.GetInsertCommand@@20001244 1001421c f   System.Data.SQLite.netmodule
 0001:0001323c       ?System.Data.SQLite.SQLiteCommandBuilder.GetInsertCommand@@2001124402 1001423c f   System.Data.SQLite.netmodule
 0001:0001325c       ?System.Data.SQLite.SQLiteCommandBuilder.get_CatalogLocation@@2000118151 1001425c f   System.Data.SQLite.netmodule
 0001:00013278       ?System.Data.SQLite.SQLiteCommandBuilder.set_CatalogLocation@@200101118151 10014278 f   System.Data.SQLite.netmodule
 0001:00013294       ?System.Data.SQLite.SQLiteCommandBuilder.get_CatalogSeparator@@20000O 10014294 f   System.Data.SQLite.netmodule
 0001:000132b0       ?System.Data.SQLite.SQLiteCommandBuilder.set_CatalogSeparator@@2001010O 100142b0 f   System.Data.SQLite.netmodule
 0001:000132cc       ?System.Data.SQLite.SQLiteCommandBuilder.get_QuotePrefix@@20000O 100142cc f   System.Data.SQLite.netmodule
 0001:000132e8       ?System.Data.SQLite.SQLiteCommandBuilder.set_QuotePrefix@@2001010O 100142e8 f   System.Data.SQLite.netmodule
 0001:00013304       ?System.Data.SQLite.SQLiteCommandBuilder.get_QuoteSuffix@@20000O 10014304 f   System.Data.SQLite.netmodule
 0001:00013320       ?System.Data.SQLite.SQLiteCommandBuilder.set_QuoteSuffix@@2001010O 10014320 f   System.Data.SQLite.netmodule
 0001:0001333c       ?System.Data.SQLite.SQLiteCommandBuilder.QuoteIdentifier@@20010O0O 1001433c f   System.Data.SQLite.netmodule
 0001:000133a4       ?System.Data.SQLite.SQLiteCommandBuilder.UnquoteIdentifier@@20010O0O 100143a4 f   System.Data.SQLite.netmodule
 0001:00013448       ?System.Data.SQLite.SQLiteCommandBuilder.get_SchemaSeparator@@20000O 10014448 f   System.Data.SQLite.netmodule
 0001:00013464       ?System.Data.SQLite.SQLiteCommandBuilder.set_SchemaSeparator@@2001010O 10014464 f   System.Data.SQLite.netmodule
 0001:00013480       ?System.Data.SQLite.SQLiteCommandBuilder.GetSchemaTable@@20011281551280MN 10014480 f   System.Data.SQLite.netmodule
 0001:000134d8       ?System.Data.SQLite.SQLiteCommandBuilder.HasSchemaPrimaryKey@@200102128155 100144d8 f   System.Data.SQLite.netmodule
 0001:0001355c       ?System.Data.SQLite.SQLiteCommandBuilder.ResetIsUniqueSchemaColumn@@200101128155 1001455c f   System.Data.SQLite.netmodule
 0001:00013600       ?System.Data.SQLite.SQLiteDataReaderValue..ctor@@200001 10014600 f   System.Data.SQLite.netmodule
 0001:00013614       ?System.Data.SQLite.SQLiteReadEventArgs..ctor@@200001 10014614 f   System.Data.SQLite.netmodule
 0001:00013628       ?System.Data.SQLite.SQLiteReadBlobEventArgs..ctor@@20010102 10014628 f   System.Data.SQLite.netmodule
 0001:00013644       ?System.Data.SQLite.SQLiteReadBlobEventArgs.get_ReadOnly@@200002 10014644 f   System.Data.SQLite.netmodule
 0001:00013658       ?System.Data.SQLite.SQLiteReadBlobEventArgs.set_ReadOnly@@20010102 10014658 f   System.Data.SQLite.netmodule
 0001:0001366c       ?System.Data.SQLite.SQLiteReadArrayEventArgs..ctor@@2004010K1N050808 1001466c f   System.Data.SQLite.netmodule
 0001:0001369c       ?System.Data.SQLite.SQLiteReadArrayEventArgs..ctor@@2004010K1N030808 1001469c f   System.Data.SQLite.netmodule
 0001:000136cc       ?System.Data.SQLite.SQLiteReadArrayEventArgs.get_DataOffset@@20000K 100146cc f   System.Data.SQLite.netmodule
 0001:000136e0       ?System.Data.SQLite.SQLiteReadArrayEventArgs.set_DataOffset@@2001010K 100146e0 f   System.Data.SQLite.netmodule
 0001:000136f4       ?System.Data.SQLite.SQLiteReadArrayEventArgs.get_ByteBuffer@@20001N05 100146f4 f   System.Data.SQLite.netmodule
 0001:00013708       ?System.Data.SQLite.SQLiteReadArrayEventArgs.get_CharBuffer@@20001N03 10014708 f   System.Data.SQLite.netmodule
 0001:0001371c       ?System.Data.SQLite.SQLiteReadArrayEventArgs.get_BufferOffset@@200008 1001471c f   System.Data.SQLite.netmodule
 0001:00013730       ?System.Data.SQLite.SQLiteReadArrayEventArgs.set_BufferOffset@@20010108 10014730 f   System.Data.SQLite.netmodule
 0001:00013744       ?System.Data.SQLite.SQLiteReadArrayEventArgs.get_Length@@200008 10014744 f   System.Data.SQLite.netmodule
 0001:00013758       ?System.Data.SQLite.SQLiteReadArrayEventArgs.set_Length@@20010108 10014758 f   System.Data.SQLite.netmodule
 0001:0001376c       ?System.Data.SQLite.SQLiteReadValueEventArgs..ctor@@2003010O1250124M 1001476c f   System.Data.SQLite.netmodule
 0001:00013794       ?System.Data.SQLite.SQLiteReadValueEventArgs.get_MethodName@@20000O 10014794 f   System.Data.SQLite.netmodule
 0001:000137a8       ?System.Data.SQLite.SQLiteReadValueEventArgs.get_ExtraEventArgs@@20001250 100147a8 f   System.Data.SQLite.netmodule
 0001:000137bc       ?System.Data.SQLite.SQLiteReadValueEventArgs.get_Value@@2000124M 100147bc f   System.Data.SQLite.netmodule
 0001:000137d0       ?System.Data.SQLite.SQLiteTypeCallbacks..ctor@@200401126012641M1M 100147d0 f   System.Data.SQLite.netmodule
 0001:00013800       ?System.Data.SQLite.SQLiteTypeCallbacks.Create@@00041268126012641M1M 10014800 f   System.Data.SQLite.netmodule
 0001:00013818       ?System.Data.SQLite.SQLiteTypeCallbacks.get_TypeName@@20000O 10014818 f   System.Data.SQLite.netmodule
 0001:0001382c       ?System.Data.SQLite.SQLiteTypeCallbacks.set_TypeName@@2001010O 1001482c f   System.Data.SQLite.netmodule
 0001:00013840       ?System.Data.SQLite.SQLiteTypeCallbacks.get_BindValueCallback@@20001260 10014840 f   System.Data.SQLite.netmodule
 0001:00013854       ?System.Data.SQLite.SQLiteTypeCallbacks.get_ReadValueCallback@@20001264 10014854 f   System.Data.SQLite.netmodule
 0001:00013868       ?System.Data.SQLite.SQLiteTypeCallbacks.get_BindValueUserData@@20001M 10014868 f   System.Data.SQLite.netmodule
 0001:0001387c       ?System.Data.SQLite.SQLiteTypeCallbacks.get_ReadValueUserData@@20001M 1001487c f   System.Data.SQLite.netmodule
 0001:00013890       ?System.Data.SQLite.SQLiteTypeCallbacksMap..ctor@@200001 10014890 f   System.Data.SQLite.netmodule
 0001:000138a8       ?System.Data.SQLite.ConnectionEventArgs..ctor@@2008011180O012816N1281711281751281591281790O1M 100148a8 f   System.Data.SQLite.netmodule
 0001:000138f8       ?System.Data.SQLite.SQLiteConnection.add__handlers@@0001011274 100148f8 f   System.Data.SQLite.netmodule
 0001:0001392c       ?System.Data.SQLite.SQLiteConnection.remove__handlers@@0001011274 1001492c f   System.Data.SQLite.netmodule
 0001:00013960       ?System.Data.SQLite.SQLiteConnection.add__progressHandler@@20010112809M 10014960 f   System.Data.SQLite.netmodule
 0001:00013998       ?System.Data.SQLite.SQLiteConnection.remove__progressHandler@@20010112809M 10014998 f   System.Data.SQLite.netmodule
 0001:000139d0       ?System.Data.SQLite.SQLiteConnection.add__authorizerHandler@@2001011280K0 100149d0 f   System.Data.SQLite.netmodule
 0001:00013a08       ?System.Data.SQLite.SQLiteConnection.remove__authorizerHandler@@2001011280K0 10014a08 f   System.Data.SQLite.netmodule
 0001:00013a40       ?System.Data.SQLite.SQLiteConnection.add__updateHandler@@2001011280K8 10014a40 f   System.Data.SQLite.netmodule
 0001:00013a78       ?System.Data.SQLite.SQLiteConnection.remove__updateHandler@@2001011280K8 10014a78 f   System.Data.SQLite.netmodule
 0001:00013ab0       ?System.Data.SQLite.SQLiteConnection.add__commitHandler@@2001011280K4 10014ab0 f   System.Data.SQLite.netmodule
 0001:00013ae8       ?System.Data.SQLite.SQLiteConnection.remove__commitHandler@@2001011280K4 10014ae8 f   System.Data.SQLite.netmodule
 0001:00013b20       ?System.Data.SQLite.SQLiteConnection.add__traceHandler@@2001011280KM 10014b20 f   System.Data.SQLite.netmodule
 0001:00013b58       ?System.Data.SQLite.SQLiteConnection.remove__traceHandler@@2001011280KM 10014b58 f   System.Data.SQLite.netmodule
 0001:00013b90       ?System.Data.SQLite.SQLiteConnection.add__rollbackHandler@@20010112817N 10014b90 f   System.Data.SQLite.netmodule
 0001:00013bc8       ?System.Data.SQLite.SQLiteConnection.remove__rollbackHandler@@20010112817N 10014bc8 f   System.Data.SQLite.netmodule
 0001:00013c00       ?System.Data.SQLite.SQLiteConnection.GetDefaultCatalogName@@00000O 10014c00 f   System.Data.SQLite.netmodule
 0001:00013c14       ?System.Data.SQLite.SQLiteConnection.IsDefaultCatalogName@@0001020O 10014c14 f   System.Data.SQLite.netmodule
 0001:00013c30       ?System.Data.SQLite.SQLiteConnection.GetTemporaryCatalogName@@00000O 10014c30 f   System.Data.SQLite.netmodule
 0001:00013c44       ?System.Data.SQLite.SQLiteConnection.IsTemporaryCatalogName@@0001020O 10014c44 f   System.Data.SQLite.netmodule
 0001:00013c60       ?System.Data.SQLite.SQLiteConnection.GetMasterTableName@@00010O02 10014c60 f   System.Data.SQLite.netmodule
 0001:00013c7c       ?System.Data.SQLite.SQLiteConnection.add_StateChange@@200101128181 10014c7c f   System.Data.SQLite.netmodule
 0001:00013cb4       ?System.Data.SQLite.SQLiteConnection.remove_StateChange@@200101128181 10014cb4 f   System.Data.SQLite.netmodule
 0001:00013cec       ?System.Data.SQLite.SQLiteConnection..ctor@@200001 10014cec f   System.Data.SQLite.netmodule
 0001:00013d00       ?System.Data.SQLite.SQLiteConnection..ctor@@2001010O 10014d00 f   System.Data.SQLite.netmodule
 0001:00013d18       ?System.Data.SQLite.SQLiteConnection..ctor@@200301180O02 10014d18 f   System.Data.SQLite.netmodule
 0001:00013d64       ?System.Data.SQLite.SQLiteConnection..ctor@@2002010O02 10014d64 f   System.Data.SQLite.netmodule
 0001:00013e20       ?System.Data.SQLite.SQLiteConnection..ctor@@2001011278 10014e20 f   System.Data.SQLite.netmodule
 0001:00013f5c       ?System.Data.SQLite.SQLiteConnection.GetNativeHandle@@00011281K41278 10014f5c f   System.Data.SQLite.netmodule
 0001:00013fc0       ?System.Data.SQLite.SQLiteConnection.OnChanged@@00020112781270 10014fc0 f   System.Data.SQLite.netmodule
 0001:00014038       ?System.Data.SQLite.SQLiteConnection.add_Changed@@0001011274 10015038 f   System.Data.SQLite.netmodule
 0001:0001408c       ?System.Data.SQLite.SQLiteConnection.remove_Changed@@0001011274 1001508c f   System.Data.SQLite.netmodule
 0001:000140d8       ?System.Data.SQLite.SQLiteConnection.get_ConnectionPool@@00001280MM 100150d8 f   System.Data.SQLite.netmodule
 0001:000140ec       ?System.Data.SQLite.SQLiteConnection.set_ConnectionPool@@0001011280MM 100150ec f   System.Data.SQLite.netmodule
 0001:00014100       ?System.Data.SQLite.SQLiteConnection.CreateHandle@@00011M18 10015100 f   System.Data.SQLite.netmodule
 0001:00014178       ?System.Data.SQLite.SQLiteConnection.BackupDatabase@@20060112780O0O081280L008 10015178 f   System.Data.SQLite.netmodule
 0001:000142bc       ?System.Data.SQLite.SQLiteConnection.ClearCachedSettings@@200008 100152bc f   System.Data.SQLite.netmodule
 0001:000142f4       ?System.Data.SQLite.SQLiteConnection.TryGetCachedSetting@@2003020O1M101M 100152f4 f   System.Data.SQLite.netmodule
 0001:00014320       ?System.Data.SQLite.SQLiteConnection.SetCachedSetting@@2002010O1M 10015320 f   System.Data.SQLite.netmodule
 0001:00014348       ?System.Data.SQLite.SQLiteConnection.ClearTypeMappings@@200008 10015348 f   System.Data.SQLite.netmodule
 0001:00014374       ?System.Data.SQLite.SQLiteConnection.GetTypeMappings@@2000151271020O1M 10015374 f   System.Data.SQLite.netmodule
 0001:00014450       ?System.Data.SQLite.SQLiteConnection.AddTypeMapping@@2003080O11818502 10015450 f   System.Data.SQLite.netmodule
 0001:000144dc       ?System.Data.SQLite.SQLiteConnection.ClearTypeCallbacks@@200008 100154dc f   System.Data.SQLite.netmodule
 0001:00014514       ?System.Data.SQLite.SQLiteConnection.TryGetTypeCallbacks@@2002020O101268 10015514 f   System.Data.SQLite.netmodule
 0001:00014550       ?System.Data.SQLite.SQLiteConnection.SetTypeCallbacks@@2002020O1268 10015550 f   System.Data.SQLite.netmodule
 0001:000145a0       ?System.Data.SQLite.SQLiteConnection.BindFunction@@200201128160128128 100155a0 f   System.Data.SQLite.netmodule
 0001:000145dc       ?System.Data.SQLite.SQLiteConnection.BindFunction@@20030112816012819N12819N 100155dc f   System.Data.SQLite.netmodule
 0001:0001461c       ?System.Data.SQLite.SQLiteConnection.UnbindFunction@@200102128160 1001561c f   System.Data.SQLite.netmodule
 0001:00014654       ?System.Data.SQLite.SQLiteConnection.UnbindAllFunctions@@20010202 10015654 f   System.Data.SQLite.netmodule
 0001:0001468c       ?System.Data.SQLite.SQLiteConnection.Check@@0001011278 1001568c f   System.Data.SQLite.netmodule
 0001:00014714       ?System.Data.SQLite.SQLiteConnection.ParseConnectionString@@0003151281K1020O0O0O0202 10015714 f   System.Data.SQLite.netmodule
 0001:0001472c       ?System.Data.SQLite.SQLiteConnection.ParseConnectionString@@0004151281K1020O0O12780O0202 1001572c f   System.Data.SQLite.netmodule
 0001:00014750       ?System.Data.SQLite.SQLiteConnection.SetupSQLiteBase@@200101151281K1020O0O 10015750 f   System.Data.SQLite.netmodule
 0001:00014830       ?System.Data.SQLite.SQLiteConnection.Dispose@@200001 10015830 f   System.Data.SQLite.netmodule
 0001:0001484c       ?System.Data.SQLite.SQLiteConnection.CheckDisposed@@200001 1001584c f   System.Data.SQLite.netmodule
 0001:00014878       ?System.Data.SQLite.SQLiteConnection.Dispose@@20010102 10015878 f   System.Data.SQLite.netmodule
 0001:00014908       ?System.Data.SQLite.SQLiteConnection.Clone@@20001M 10015908 f   System.Data.SQLite.netmodule
 0001:00014924       ?System.Data.SQLite.SQLiteConnection.CreateFile@@0001010O 10015924 f   System.Data.SQLite.netmodule
 0001:0001493c       ?System.Data.SQLite.SQLiteConnection.OnStateChange@@2002011181991012816N 1001593c f   System.Data.SQLite.netmodule
 0001:0001497c       ?System.Data.SQLite.SQLiteConnection.GetFallbackDefaultIsolationLevel@@0000118189 1001597c f   System.Data.SQLite.netmodule
 0001:00014990       ?System.Data.SQLite.SQLiteConnection.GetDefaultIsolationLevel@@2000118189 10015990 f   System.Data.SQLite.netmodule
 0001:000149a4       ?System.Data.SQLite.SQLiteConnection.BeginTransaction@@200212818411818902 100159a4 f   System.Data.SQLite.netmodule
 0001:000149d4       ?System.Data.SQLite.SQLiteConnection.BeginTransaction@@200112818402 100159d4 f   System.Data.SQLite.netmodule
 0001:00014a04       ?System.Data.SQLite.SQLiteConnection.BeginTransaction@@2001128184118189 10015a04 f   System.Data.SQLite.netmodule
 0001:00014a24       ?System.Data.SQLite.SQLiteConnection.BeginTransaction@@2000128184 10015a24 f   System.Data.SQLite.netmodule
 0001:00014a48       ?System.Data.SQLite.SQLiteConnection.BeginDbTransaction@@2001128101118189 10015a48 f   System.Data.SQLite.netmodule
 0001:00014aec       ?System.Data.SQLite.SQLiteConnection.ChangeDatabase@@2001010O 10015aec f   System.Data.SQLite.netmodule
 0001:00014b18       ?System.Data.SQLite.SQLiteConnection.Close@@200001 10015b18 f   System.Data.SQLite.netmodule
 0001:00014c50       ?System.Data.SQLite.SQLiteConnection.get_PoolCount@@200008 10015c50 f   System.Data.SQLite.netmodule
 0001:00014c74       ?System.Data.SQLite.SQLiteConnection.ClearPool@@0001011278 10015c74 f   System.Data.SQLite.netmodule
 0001:00014c98       ?System.Data.SQLite.SQLiteConnection.ClearAllPools@@000001 10015c98 f   System.Data.SQLite.netmodule
 0001:00014cac       ?System.Data.SQLite.SQLiteConnection.get_ConnectionString@@20000O 10015cac f   System.Data.SQLite.netmodule
 0001:00014cc8       ?System.Data.SQLite.SQLiteConnection.set_ConnectionString@@2001010O 10015cc8 f   System.Data.SQLite.netmodule
 0001:00014cfc       ?System.Data.SQLite.SQLiteConnection.CreateCommand@@20001244 10015cfc f   System.Data.SQLite.netmodule
 0001:00014d18       ?System.Data.SQLite.SQLiteConnection.CreateDbCommand@@20001280MN 10015d18 f   System.Data.SQLite.netmodule
 0001:00014d2c       ?System.Data.SQLite.SQLiteConnection.CreateSession@@20011282380O 10015d2c f   System.Data.SQLite.netmodule
 0001:00014d54       ?System.Data.SQLite.SQLiteConnection.CreateChangeSet@@200112822M1N05 10015d54 f   System.Data.SQLite.netmodule
 0001:00014d7c       ?System.Data.SQLite.SQLiteConnection.CreateChangeSet@@200212822M1281K91281K9 10015d7c f   System.Data.SQLite.netmodule
 0001:00014da4       ?System.Data.SQLite.SQLiteConnection.CreateChangeGroup@@2000128230 10015da4 f   System.Data.SQLite.netmodule
 0001:00014dc4       ?System.Data.SQLite.SQLiteConnection.get_DataSource@@20000O 10015dc4 f   System.Data.SQLite.netmodule
 0001:00014de0       ?System.Data.SQLite.SQLiteConnection.get_FileName@@20000O 10015de0 f   System.Data.SQLite.netmodule
 0001:00014e18       ?System.Data.SQLite.SQLiteConnection.get_Database@@20000O 10015e18 f   System.Data.SQLite.netmodule
 0001:00014e30       ?System.Data.SQLite.SQLiteConnection.MapUriPath@@00010O0O 10015e30 f   System.Data.SQLite.netmodule
 0001:00014e84       ?System.Data.SQLite.SQLiteConnection.ShouldUseLegacyConnectionStringParser@@0001021278 10015e84 f   System.Data.SQLite.netmodule
 0001:00014ee0       ?System.Data.SQLite.SQLiteConnection.ParseConnectionString@@0002151281K1020O0O0O02 10015ee0 f   System.Data.SQLite.netmodule
 0001:00014ef8       ?System.Data.SQLite.SQLiteConnection.ParseConnectionString@@0003151281K1020O0O12780O02 10015ef8 f   System.Data.SQLite.netmodule
 0001:00015024       ?System.Data.SQLite.SQLiteConnection.ParseConnectionStringViaFramework@@0003151281K1020O0O12780O02 10016024 f   System.Data.SQLite.netmodule
 0001:000150e4       ?System.Data.SQLite.SQLiteConnection.EnlistTransaction@@2001011281L1 100160e4 f   System.Data.SQLite.netmodule
 0001:00015250       ?System.Data.SQLite.SQLiteConnection.WaitForEnlistmentReset@@200202081511750102 10016250 f   System.Data.SQLite.netmodule
 0001:00015334       ?System.Data.SQLite.SQLiteConnection.FindKey@@00030O151281K1020O0O0O0O 10016334 f   System.Data.SQLite.netmodule
 0001:00015394       ?System.Data.SQLite.SQLiteConnection.TryParseEnum@@00031M1280L50O02 10016394 f   System.Data.SQLite.netmodule
 0001:000153d8       ?System.Data.SQLite.SQLiteConnection.TryParseByte@@0003020O1181L51005 100163d8 f   System.Data.SQLite.netmodule
 0001:000153f0       ?System.Data.SQLite.SQLiteConnection.SetConfigurationOption@@20020111341M 100163f0 f   System.Data.SQLite.netmodule
 0001:00015458       ?System.Data.SQLite.SQLiteConnection.EnableExtensions@@20010102 10016458 f   System.Data.SQLite.netmodule
 0001:000154cc       ?System.Data.SQLite.SQLiteConnection.LoadExtension@@2001010O 100164cc f   System.Data.SQLite.netmodule
 0001:000154e8       ?System.Data.SQLite.SQLiteConnection.LoadExtension@@2002010O0O 100164e8 f   System.Data.SQLite.netmodule
 0001:0001553c       ?System.Data.SQLite.SQLiteConnection.CreateModule@@200101128208 1001653c f   System.Data.SQLite.netmodule
 0001:00015594       ?System.Data.SQLite.SQLiteConnection.FromHexString@@00011N050O 10016594 f   System.Data.SQLite.netmodule
 0001:000155ac       ?System.Data.SQLite.SQLiteConnection.ToHexString@@00010O1N05 100165ac f   System.Data.SQLite.netmodule
 0001:000155f0       ?System.Data.SQLite.SQLiteConnection.FromHexString@@00021N050O100O 100165f0 f   System.Data.SQLite.netmodule
 0001:00015678       ?System.Data.SQLite.SQLiteConnection.GetDefaultPooling@@200002 10016678 f   System.Data.SQLite.netmodule
 0001:000156ec       ?System.Data.SQLite.SQLiteConnection.GetEffectiveIsolationLevel@@2001118189118189 100166ec f   System.Data.SQLite.netmodule
 0001:00015768       ?System.Data.SQLite.SQLiteConnection.Open@@200001 10016768 f   System.Data.SQLite.netmodule
 0001:00016254       ?System.Data.SQLite.SQLiteConnection.OpenAndReturn@@20001278 10017254 f   System.Data.SQLite.netmodule
 0001:00016270       ?System.Data.SQLite.SQLiteConnection.get_DefaultTimeout@@200008 10017270 f   System.Data.SQLite.netmodule
 0001:0001628c       ?System.Data.SQLite.SQLiteConnection.set_DefaultTimeout@@20010108 1001728c f   System.Data.SQLite.netmodule
 0001:000162a8       ?System.Data.SQLite.SQLiteConnection.get_BusyTimeout@@200008 100172a8 f   System.Data.SQLite.netmodule
 0001:000162c4       ?System.Data.SQLite.SQLiteConnection.set_BusyTimeout@@20010108 100172c4 f   System.Data.SQLite.netmodule
 0001:000162e0       ?System.Data.SQLite.SQLiteConnection.get_WaitTimeout@@200008 100172e0 f   System.Data.SQLite.netmodule
 0001:000162fc       ?System.Data.SQLite.SQLiteConnection.set_WaitTimeout@@20010108 100172fc f   System.Data.SQLite.netmodule
 0001:00016318       ?System.Data.SQLite.SQLiteConnection.get_PrepareRetries@@200008 10017318 f   System.Data.SQLite.netmodule
 0001:00016334       ?System.Data.SQLite.SQLiteConnection.set_PrepareRetries@@20010108 10017334 f   System.Data.SQLite.netmodule
 0001:00016350       ?System.Data.SQLite.SQLiteConnection.get_ProgressOps@@200008 10017350 f   System.Data.SQLite.netmodule
 0001:0001636c       ?System.Data.SQLite.SQLiteConnection.set_ProgressOps@@20010108 1001736c f   System.Data.SQLite.netmodule
 0001:00016388       ?System.Data.SQLite.SQLiteConnection.get_ParseViaFramework@@200002 10017388 f   System.Data.SQLite.netmodule
 0001:000163a4       ?System.Data.SQLite.SQLiteConnection.set_ParseViaFramework@@20010102 100173a4 f   System.Data.SQLite.netmodule
 0001:000163c0       ?System.Data.SQLite.SQLiteConnection.get_Flags@@2000112M 100173c0 f   System.Data.SQLite.netmodule
 0001:000163dc       ?System.Data.SQLite.SQLiteConnection.set_Flags@@200101112M 100173dc f   System.Data.SQLite.netmodule
 0001:000163f8       ?System.Data.SQLite.SQLiteConnection.get_DefaultDbType@@200015117501118185 100173f8 f   System.Data.SQLite.netmodule
 0001:00016414       ?System.Data.SQLite.SQLiteConnection.set_DefaultDbType@@20010115117501118185 10017414 f   System.Data.SQLite.netmodule
 0001:00016430       ?System.Data.SQLite.SQLiteConnection.get_DefaultTypeName@@20000O 10017430 f   System.Data.SQLite.netmodule
 0001:0001644c       ?System.Data.SQLite.SQLiteConnection.set_DefaultTypeName@@2001010O 1001744c f   System.Data.SQLite.netmodule
 0001:00016468       ?System.Data.SQLite.SQLiteConnection.get_VfsName@@20000O 10017468 f   System.Data.SQLite.netmodule
 0001:00016484       ?System.Data.SQLite.SQLiteConnection.set_VfsName@@2001010O 10017484 f   System.Data.SQLite.netmodule
 0001:000164a0       ?System.Data.SQLite.SQLiteConnection.get_OwnHandle@@200002 100174a0 f   System.Data.SQLite.netmodule
 0001:000164d4       ?System.Data.SQLite.SQLiteConnection.get_ServerVersion@@20000O 100174d4 f   System.Data.SQLite.netmodule
 0001:000164ec       ?System.Data.SQLite.SQLiteConnection.get_LastInsertRowId@@20000K 100174ec f   System.Data.SQLite.netmodule
 0001:00016520       ?System.Data.SQLite.SQLiteConnection.Cancel@@200001 10017520 f   System.Data.SQLite.netmodule
 0001:00016554       ?System.Data.SQLite.SQLiteConnection.get_Changes@@200008 10017554 f   System.Data.SQLite.netmodule
 0001:00016588       ?System.Data.SQLite.SQLiteConnection.IsReadOnly@@2001020O 10017588 f   System.Data.SQLite.netmodule
 0001:000165bc       ?System.Data.SQLite.SQLiteConnection.get_AutoCommit@@200002 100175bc f   System.Data.SQLite.netmodule
 0001:000165f0       ?System.Data.SQLite.SQLiteConnection.get_MemoryUsed@@20000K 100175f0 f   System.Data.SQLite.netmodule
 0001:00016624       ?System.Data.SQLite.SQLiteConnection.get_MemoryHighwater@@20000K 10017624 f   System.Data.SQLite.netmodule
 0001:00016658       ?System.Data.SQLite.SQLiteConnection.GetMemoryStatistics@@0001011015128091020O0K 10017658 f   System.Data.SQLite.netmodule
 0001:00016694       ?System.Data.SQLite.SQLiteConnection.ReleaseMemory@@200001 10017694 f   System.Data.SQLite.netmodule
 0001:000166e0       ?System.Data.SQLite.SQLiteConnection.ReleaseMemory@@0006118120080202100810021009 100176e0 f   System.Data.SQLite.netmodule
 0001:000166fc       ?System.Data.SQLite.SQLiteConnection.SetMemoryStatus@@000111812002 100176fc f   System.Data.SQLite.netmodule
 0001:00016710       ?System.Data.SQLite.SQLiteConnection.get_DefineConstants@@00000O 10017710 f   System.Data.SQLite.netmodule
 0001:00016724       ?System.Data.SQLite.SQLiteConnection.get_SQLiteVersion@@00000O 10017724 f   System.Data.SQLite.netmodule
 0001:00016738       ?System.Data.SQLite.SQLiteConnection.get_SQLiteSourceId@@00000O 10017738 f   System.Data.SQLite.netmodule
 0001:0001674c       ?System.Data.SQLite.SQLiteConnection.get_SQLiteCompileOptions@@00000O 1001774c f   System.Data.SQLite.netmodule
 0001:00016760       ?System.Data.SQLite.SQLiteConnection.get_InteropVersion@@00000O 10017760 f   System.Data.SQLite.netmodule
 0001:00016774       ?System.Data.SQLite.SQLiteConnection.get_InteropSourceId@@00000O 10017774 f   System.Data.SQLite.netmodule
 0001:00016788       ?System.Data.SQLite.SQLiteConnection.get_InteropCompileOptions@@00000O 10017788 f   System.Data.SQLite.netmodule
 0001:0001679c       ?System.Data.SQLite.SQLiteConnection.get_ProviderVersion@@00000O 1001779c f   System.Data.SQLite.netmodule
 0001:000167cc       ?System.Data.SQLite.SQLiteConnection.get_ProviderSourceId@@00000O 100177cc f   System.Data.SQLite.netmodule
 0001:00016898       ?System.Data.SQLite.SQLiteConnection.TryGetLastCachedSetting@@0003020O1M101M 10017898 f   System.Data.SQLite.netmodule
 0001:000168c0       ?System.Data.SQLite.SQLiteConnection.SetLastCachedSetting@@0002010O1M 100178c0 f   System.Data.SQLite.netmodule
 0001:000168e4       ?System.Data.SQLite.SQLiteConnection.get_DefaultFlags@@0000112M 100178e4 f   System.Data.SQLite.netmodule
 0001:00016950       ?System.Data.SQLite.SQLiteConnection.get_SharedFlags@@0000112M 10017950 f   System.Data.SQLite.netmodule
 0001:0001699c       ?System.Data.SQLite.SQLiteConnection.set_SharedFlags@@000101112M 1001799c f   System.Data.SQLite.netmodule
 0001:000169e8       ?System.Data.SQLite.SQLiteConnection.get_State@@2000118199 100179e8 f   System.Data.SQLite.netmodule
 0001:00016a04       ?System.Data.SQLite.SQLiteConnection.Shutdown@@2000118120 10017a04 f   System.Data.SQLite.netmodule
 0001:00016a44       ?System.Data.SQLite.SQLiteConnection.Shutdown@@0002010202 10017a44 f   System.Data.SQLite.netmodule
 0001:00016a68       ?System.Data.SQLite.SQLiteConnection.SetExtendedResultCodes@@20010102 10017a68 f   System.Data.SQLite.netmodule
 0001:00016a90       ?System.Data.SQLite.SQLiteConnection.ResultCode@@2000118120 10017a90 f   System.Data.SQLite.netmodule
 0001:00016ac4       ?System.Data.SQLite.SQLiteConnection.ExtendedResultCode@@2000118120 10017ac4 f   System.Data.SQLite.netmodule
 0001:00016af8       ?System.Data.SQLite.SQLiteConnection.LogMessage@@2002011181200O 10017af8 f   System.Data.SQLite.netmodule
 0001:00016b2c       ?System.Data.SQLite.SQLiteConnection.LogMessage@@200201080O 10017b2c f   System.Data.SQLite.netmodule
 0001:00016b60       ?System.Data.SQLite.SQLiteConnection.ChangePassword@@2001010O 10017b60 f   System.Data.SQLite.netmodule
 0001:00016b90       ?System.Data.SQLite.SQLiteConnection.ChangePassword@@2001011N05 10017b90 f   System.Data.SQLite.netmodule
 0001:00016bc4       ?System.Data.SQLite.SQLiteConnection.SetPassword@@2001010O 10017bc4 f   System.Data.SQLite.netmodule
 0001:00016bf4       ?System.Data.SQLite.SQLiteConnection.SetPassword@@2001011N05 10017bf4 f   System.Data.SQLite.netmodule
 0001:00016c2c       ?System.Data.SQLite.SQLiteConnection.SetAvRetry@@200211812010081008 10017c2c f   System.Data.SQLite.netmodule
 0001:00016ccc       ?System.Data.SQLite.SQLiteConnection.SetChunkSize@@200111812008 10017ccc f   System.Data.SQLite.netmodule
 0001:00016d4c       ?System.Data.SQLite.SQLiteConnection.UnwrapString@@00010O0O 10017d4c f   System.Data.SQLite.netmodule
 0001:00016da8       ?System.Data.SQLite.SQLiteConnection.GetDataDirectory@@00000O 10017da8 f   System.Data.SQLite.netmodule
 0001:00016de0       ?System.Data.SQLite.SQLiteConnection.ExpandFileName@@00020O0O02 10017de0 f   System.Data.SQLite.netmodule
 0001:00016e80       ?System.Data.SQLite.SQLiteConnection.GetSchema@@2000128155 10017e80 f   System.Data.SQLite.netmodule
 0001:00016ea0       ?System.Data.SQLite.SQLiteConnection.GetSchema@@20011281550O 10017ea0 f   System.Data.SQLite.netmodule
 0001:00016ec0       ?System.Data.SQLite.SQLiteConnection.GetSchema@@20021281550O1N0O 10017ec0 f   System.Data.SQLite.netmodule
 0001:000171b8       ?System.Data.SQLite.SQLiteConnection.Schema_ReservedWords@@0000128155 100181b8 f   System.Data.SQLite.netmodule
 0001:00017284       ?System.Data.SQLite.SQLiteConnection.Schema_MetaDataCollections@@0000128155 10018284 f   System.Data.SQLite.netmodule
 0001:00017324       ?System.Data.SQLite.SQLiteConnection.Schema_DataSourceInformation@@2000128155 10018324 f   System.Data.SQLite.netmodule
 0001:000175e4       ?System.Data.SQLite.SQLiteConnection.Schema_Columns@@20031281550O0O0O 100185e4 f   System.Data.SQLite.netmodule
 0001:00017d28       ?System.Data.SQLite.SQLiteConnection.Schema_Indexes@@20031281550O0O0O 10018d28 f   System.Data.SQLite.netmodule
 0001:0001858c       ?System.Data.SQLite.SQLiteConnection.Schema_Triggers@@20031281550O0O0O 1001958c f   System.Data.SQLite.netmodule
 0001:00018774       ?System.Data.SQLite.SQLiteConnection.Schema_Tables@@20031281550O0O0O 10019774 f   System.Data.SQLite.netmodule
 0001:000189d8       ?System.Data.SQLite.SQLiteConnection.Schema_Views@@20021281550O0O 100199d8 f   System.Data.SQLite.netmodule
 0001:00018c64       ?System.Data.SQLite.SQLiteConnection.Schema_Catalogs@@20011281550O 10019c64 f   System.Data.SQLite.netmodule
 0001:00018db8       ?System.Data.SQLite.SQLiteConnection.Schema_DataTypes@@2000128155 10019db8 f   System.Data.SQLite.netmodule
 0001:00019058       ?System.Data.SQLite.SQLiteConnection.Schema_IndexColumns@@20041281550O0O0O0O 1001a058 f   System.Data.SQLite.netmodule
 0001:00019728       ?System.Data.SQLite.SQLiteConnection.Schema_ViewColumns@@20031281550O0O0O 1001a728 f   System.Data.SQLite.netmodule
 0001:00019edc       ?System.Data.SQLite.SQLiteConnection.Schema_ForeignKeys@@20031281550O0O0O 1001aedc f   System.Data.SQLite.netmodule
 0001:0001a480       ?System.Data.SQLite.SQLiteConnection.add_Progress@@20010112809M 1001b480 f   System.Data.SQLite.netmodule
 0001:0001a4d4       ?System.Data.SQLite.SQLiteConnection.remove_Progress@@20010112809M 1001b4d4 f   System.Data.SQLite.netmodule
 0001:0001a514       ?System.Data.SQLite.SQLiteConnection.add_Authorize@@2001011280K0 1001b514 f   System.Data.SQLite.netmodule
 0001:0001a564       ?System.Data.SQLite.SQLiteConnection.remove_Authorize@@2001011280K0 1001b564 f   System.Data.SQLite.netmodule
 0001:0001a5a4       ?System.Data.SQLite.SQLiteConnection.add_Update@@2001011280K8 1001b5a4 f   System.Data.SQLite.netmodule
 0001:0001a5f4       ?System.Data.SQLite.SQLiteConnection.remove_Update@@2001011280K8 1001b5f4 f   System.Data.SQLite.netmodule
 0001:0001a634       ?System.Data.SQLite.SQLiteConnection.ProgressCallback@@20011180P818 1001b634 f   System.Data.SQLite.netmodule
 0001:0001a6f8       ?System.Data.SQLite.SQLiteConnection.AuthorizerCallback@@20061180PM181180P418181818 1001b6f8 f   System.Data.SQLite.netmodule
 0001:0001a7dc       ?System.Data.SQLite.SQLiteConnection.UpdateCallback@@200501180818180K 1001b7dc f   System.Data.SQLite.netmodule
 0001:0001a884       ?System.Data.SQLite.SQLiteConnection.add_Commit@@2001011280K4 1001b884 f   System.Data.SQLite.netmodule
 0001:0001a8d4       ?System.Data.SQLite.SQLiteConnection.remove_Commit@@2001011280K4 1001b8d4 f   System.Data.SQLite.netmodule
 0001:0001a914       ?System.Data.SQLite.SQLiteConnection.add_Trace@@2001011280KM 1001b914 f   System.Data.SQLite.netmodule
 0001:0001a964       ?System.Data.SQLite.SQLiteConnection.remove_Trace@@2001011280KM 1001b964 f   System.Data.SQLite.netmodule
 0001:0001a9a4       ?System.Data.SQLite.SQLiteConnection.TraceCallback@@2002011818 1001b9a4 f   System.Data.SQLite.netmodule
 0001:0001aa48       ?System.Data.SQLite.SQLiteConnection.add_RollBack@@20010112817N 1001ba48 f   System.Data.SQLite.netmodule
 0001:0001aa98       ?System.Data.SQLite.SQLiteConnection.remove_RollBack@@20010112817N 1001ba98 f   System.Data.SQLite.netmodule
 0001:0001aad8       ?System.Data.SQLite.SQLiteConnection.CommitCallback@@20010818 1001bad8 f   System.Data.SQLite.netmodule
 0001:0001aba0       ?System.Data.SQLite.SQLiteConnection.RollbackCallback@@20010118 1001bba0 f   System.Data.SQLite.netmodule
 0001:0001ac3c       ?System.Data.SQLite.SQLiteConnection.get_DbProviderFactory@@20001281LN 1001bc3c f   System.Data.SQLite.netmodule
 0001:0001ac50       ?System.Data.SQLite.SQLiteConnection..cctor@@000001 1001bc50 f   System.Data.SQLite.netmodule
 0001:0001aca4       ?System.Data.SQLite.ProgressEventArgs..ctor@@200001 1001bca4 f   System.Data.SQLite.netmodule
 0001:0001accc       ?System.Data.SQLite.ProgressEventArgs..ctor@@200201181180P8 1001bccc f   System.Data.SQLite.netmodule
 0001:0001acf0       ?System.Data.SQLite.AuthorizerEventArgs..ctor@@200001 1001bcf0 f   System.Data.SQLite.netmodule
 0001:0001ad38       ?System.Data.SQLite.AuthorizerEventArgs..ctor@@200701181180P40O0O0O0O1180PM 1001bd38 f   System.Data.SQLite.netmodule
 0001:0001ad80       ?System.Data.SQLite.UpdateEventArgs..ctor@@2004010O0O1180LM0K 1001bd80 f   System.Data.SQLite.netmodule
 0001:0001adb0       ?System.Data.SQLite.CommitEventArgs..ctor@@200001 1001bdb0 f   System.Data.SQLite.netmodule
 0001:0001adc4       ?System.Data.SQLite.TraceEventArgs..ctor@@2001010O 1001bdc4 f   System.Data.SQLite.netmodule
 0001:0001ade0       ?System.Data.SQLite.SQLiteConnectionPool.GetCounts@@0005010O10151271020O08100810081008 1001bde0 f   System.Data.SQLite.netmodule
 0001:0001af1c       ?System.Data.SQLite.SQLiteConnectionPool.ClearPool@@0001010O 1001bf1c f   System.Data.SQLite.netmodule
 0001:0001afd4       ?System.Data.SQLite.SQLiteConnectionPool.ClearAllPools@@000001 1001bfd4 f   System.Data.SQLite.netmodule
 0001:0001b0ec       ?System.Data.SQLite.SQLiteConnectionPool.Add@@0003010O1281K408 1001c0ec f   System.Data.SQLite.netmodule
 0001:0001b198       ?System.Data.SQLite.SQLiteConnectionPool.Remove@@00031281K40O081008 1001c198 f   System.Data.SQLite.netmodule
 0001:0001b3a0       ?System.Data.SQLite.SQLiteConnectionPool.GetConnectionPool@@00001280MM 1001c3a0 f   System.Data.SQLite.netmodule
 0001:0001b3ec       ?System.Data.SQLite.SQLiteConnectionPool.SetConnectionPool@@0001011280MM 1001c3ec f   System.Data.SQLite.netmodule
 0001:0001b438       ?System.Data.SQLite.SQLiteConnectionPool.ResizePool@@00020112828802 1001c438 f   System.Data.SQLite.netmodule
 0001:0001b490       ?System.Data.SQLite.SQLiteConnectionPool..cctor@@000001 1001c490 f   System.Data.SQLite.netmodule
 0001:0001b4d0       ?System.Data.SQLite.SQLiteConnectionStringBuilder..ctor@@200001 1001c4d0 f   System.Data.SQLite.netmodule
 0001:0001b4ec       ?System.Data.SQLite.SQLiteConnectionStringBuilder..ctor@@2001010O 1001c4ec f   System.Data.SQLite.netmodule
 0001:0001b508       ?System.Data.SQLite.SQLiteConnectionStringBuilder.Initialize@@2001010O 1001c508 f   System.Data.SQLite.netmodule
 0001:0001b570       ?System.Data.SQLite.SQLiteConnectionStringBuilder.get_Version@@200008 1001c570 f   System.Data.SQLite.netmodule
 0001:0001b598       ?System.Data.SQLite.SQLiteConnectionStringBuilder.set_Version@@20010108 1001c598 f   System.Data.SQLite.netmodule
 0001:0001b5c0       ?System.Data.SQLite.SQLiteConnectionStringBuilder.get_SyncMode@@2000117M 1001c5c0 f   System.Data.SQLite.netmodule
 0001:0001b604       ?System.Data.SQLite.SQLiteConnectionStringBuilder.set_SyncMode@@200101117M 1001c604 f   System.Data.SQLite.netmodule
 0001:0001b624       ?System.Data.SQLite.SQLiteConnectionStringBuilder.get_UseUTF16Encoding@@200002 1001c624 f   System.Data.SQLite.netmodule
 0001:0001b648       ?System.Data.SQLite.SQLiteConnectionStringBuilder.set_UseUTF16Encoding@@20010102 1001c648 f   System.Data.SQLite.netmodule
 0001:0001b668       ?System.Data.SQLite.SQLiteConnectionStringBuilder.get_Pooling@@200002 1001c668 f   System.Data.SQLite.netmodule
 0001:0001b68c       ?System.Data.SQLite.SQLiteConnectionStringBuilder.set_Pooling@@20010102 1001c68c f   System.Data.SQLite.netmodule
 0001:0001b6ac       ?System.Data.SQLite.SQLiteConnectionStringBuilder.get_BinaryGUID@@200002 1001c6ac f   System.Data.SQLite.netmodule
 0001:0001b6d0       ?System.Data.SQLite.SQLiteConnectionStringBuilder.set_BinaryGUID@@20010102 1001c6d0 f   System.Data.SQLite.netmodule
 0001:0001b6f0       ?System.Data.SQLite.SQLiteConnectionStringBuilder.get_DataSource@@20000O 1001c6f0 f   System.Data.SQLite.netmodule
 0001:0001b718       ?System.Data.SQLite.SQLiteConnectionStringBuilder.set_DataSource@@2001010O 1001c718 f   System.Data.SQLite.netmodule
 0001:0001b734       ?System.Data.SQLite.SQLiteConnectionStringBuilder.get_Uri@@20000O 1001c734 f   System.Data.SQLite.netmodule
 0001:0001b75c       ?System.Data.SQLite.SQLiteConnectionStringBuilder.set_Uri@@2001010O 1001c75c f   System.Data.SQLite.netmodule
 0001:0001b778       ?System.Data.SQLite.SQLiteConnectionStringBuilder.get_FullUri@@20000O 1001c778 f   System.Data.SQLite.netmodule
 0001:0001b7a0       ?System.Data.SQLite.SQLiteConnectionStringBuilder.set_FullUri@@2001010O 1001c7a0 f   System.Data.SQLite.netmodule
 0001:0001b7bc       ?System.Data.SQLite.SQLiteConnectionStringBuilder.get_DefaultTimeout@@200008 1001c7bc f   System.Data.SQLite.netmodule
 0001:0001b7e4       ?System.Data.SQLite.SQLiteConnectionStringBuilder.set_DefaultTimeout@@20010108 1001c7e4 f   System.Data.SQLite.netmodule
 0001:0001b804       ?System.Data.SQLite.SQLiteConnectionStringBuilder.get_BusyTimeout@@200008 1001c804 f   System.Data.SQLite.netmodule
 0001:0001b82c       ?System.Data.SQLite.SQLiteConnectionStringBuilder.set_BusyTimeout@@20010108 1001c82c f   System.Data.SQLite.netmodule
 0001:0001b84c       ?System.Data.SQLite.SQLiteConnectionStringBuilder.get_WaitTimeout@@200008 1001c84c f   System.Data.SQLite.netmodule
 0001:0001b874       ?System.Data.SQLite.SQLiteConnectionStringBuilder.set_WaitTimeout@@20010108 1001c874 f   System.Data.SQLite.netmodule
 0001:0001b894       ?System.Data.SQLite.SQLiteConnectionStringBuilder.get_PrepareRetries@@200008 1001c894 f   System.Data.SQLite.netmodule
 0001:0001b8bc       ?System.Data.SQLite.SQLiteConnectionStringBuilder.set_PrepareRetries@@20010108 1001c8bc f   System.Data.SQLite.netmodule
 0001:0001b8dc       ?System.Data.SQLite.SQLiteConnectionStringBuilder.get_ProgressOps@@200008 1001c8dc f   System.Data.SQLite.netmodule
 0001:0001b904       ?System.Data.SQLite.SQLiteConnectionStringBuilder.set_ProgressOps@@20010108 1001c904 f   System.Data.SQLite.netmodule
 0001:0001b924       ?System.Data.SQLite.SQLiteConnectionStringBuilder.get_Enlist@@200002 1001c924 f   System.Data.SQLite.netmodule
 0001:0001b948       ?System.Data.SQLite.SQLiteConnectionStringBuilder.set_Enlist@@20010102 1001c948 f   System.Data.SQLite.netmodule
 0001:0001b968       ?System.Data.SQLite.SQLiteConnectionStringBuilder.get_FailIfMissing@@200002 1001c968 f   System.Data.SQLite.netmodule
 0001:0001b98c       ?System.Data.SQLite.SQLiteConnectionStringBuilder.set_FailIfMissing@@20010102 1001c98c f   System.Data.SQLite.netmodule
 0001:0001b9ac       ?System.Data.SQLite.SQLiteConnectionStringBuilder.get_LegacyFormat@@200002 1001c9ac f   System.Data.SQLite.netmodule
 0001:0001b9d0       ?System.Data.SQLite.SQLiteConnectionStringBuilder.set_LegacyFormat@@20010102 1001c9d0 f   System.Data.SQLite.netmodule
 0001:0001b9f0       ?System.Data.SQLite.SQLiteConnectionStringBuilder.get_ReadOnly@@200002 1001c9f0 f   System.Data.SQLite.netmodule
 0001:0001ba14       ?System.Data.SQLite.SQLiteConnectionStringBuilder.set_ReadOnly@@20010102 1001ca14 f   System.Data.SQLite.netmodule
 0001:0001ba34       ?System.Data.SQLite.SQLiteConnectionStringBuilder.get_Password@@20000O 1001ca34 f   System.Data.SQLite.netmodule
 0001:0001ba5c       ?System.Data.SQLite.SQLiteConnectionStringBuilder.set_Password@@2001010O 1001ca5c f   System.Data.SQLite.netmodule
 0001:0001ba78       ?System.Data.SQLite.SQLiteConnectionStringBuilder.get_HexPassword@@20001N05 1001ca78 f   System.Data.SQLite.netmodule
 0001:0001bab4       ?System.Data.SQLite.SQLiteConnectionStringBuilder.set_HexPassword@@2001011N05 1001cab4 f   System.Data.SQLite.netmodule
 0001:0001bad4       ?System.Data.SQLite.SQLiteConnectionStringBuilder.get_PageSize@@200008 1001cad4 f   System.Data.SQLite.netmodule
 0001:0001bafc       ?System.Data.SQLite.SQLiteConnectionStringBuilder.set_PageSize@@20010108 1001cafc f   System.Data.SQLite.netmodule
 0001:0001bb1c       ?System.Data.SQLite.SQLiteConnectionStringBuilder.get_MaxPageCount@@200008 1001cb1c f   System.Data.SQLite.netmodule
 0001:0001bb44       ?System.Data.SQLite.SQLiteConnectionStringBuilder.set_MaxPageCount@@20010108 1001cb44 f   System.Data.SQLite.netmodule
 0001:0001bb64       ?System.Data.SQLite.SQLiteConnectionStringBuilder.get_CacheSize@@200008 1001cb64 f   System.Data.SQLite.netmodule
 0001:0001bb8c       ?System.Data.SQLite.SQLiteConnectionStringBuilder.set_CacheSize@@20010108 1001cb8c f   System.Data.SQLite.netmodule
 0001:0001bbac       ?System.Data.SQLite.SQLiteConnectionStringBuilder.get_DateTimeFormat@@20001180O4 1001cbac f   System.Data.SQLite.netmodule
 0001:0001bbf8       ?System.Data.SQLite.SQLiteConnectionStringBuilder.set_DateTimeFormat@@2001011180O4 1001cbf8 f   System.Data.SQLite.netmodule
 0001:0001bc18       ?System.Data.SQLite.SQLiteConnectionStringBuilder.get_DateTimeKind@@20001179 1001cc18 f   System.Data.SQLite.netmodule
 0001:0001bc64       ?System.Data.SQLite.SQLiteConnectionStringBuilder.set_DateTimeKind@@2001011179 1001cc64 f   System.Data.SQLite.netmodule
 0001:0001bc84       ?System.Data.SQLite.SQLiteConnectionStringBuilder.get_DateTimeFormatString@@20000O 1001cc84 f   System.Data.SQLite.netmodule
 0001:0001bcbc       ?System.Data.SQLite.SQLiteConnectionStringBuilder.set_DateTimeFormatString@@2001010O 1001ccbc f   System.Data.SQLite.netmodule
 0001:0001bcd8       ?System.Data.SQLite.SQLiteConnectionStringBuilder.get_BaseSchemaName@@20000O 1001ccd8 f   System.Data.SQLite.netmodule
 0001:0001bd10       ?System.Data.SQLite.SQLiteConnectionStringBuilder.set_BaseSchemaName@@2001010O 1001cd10 f   System.Data.SQLite.netmodule
 0001:0001bd2c       ?System.Data.SQLite.SQLiteConnectionStringBuilder.get_JournalMode@@20001180O8 1001cd2c f   System.Data.SQLite.netmodule
 0001:0001bd70       ?System.Data.SQLite.SQLiteConnectionStringBuilder.set_JournalMode@@2001011180O8 1001cd70 f   System.Data.SQLite.netmodule
 0001:0001bd90       ?System.Data.SQLite.SQLiteConnectionStringBuilder.get_DefaultIsolationLevel@@2000118189 1001cd90 f   System.Data.SQLite.netmodule
 0001:0001bdd4       ?System.Data.SQLite.SQLiteConnectionStringBuilder.set_DefaultIsolationLevel@@200101118189 1001cdd4 f   System.Data.SQLite.netmodule
 0001:0001bdf4       ?System.Data.SQLite.SQLiteConnectionStringBuilder.get_DefaultDbType@@2000118185 1001cdf4 f   System.Data.SQLite.netmodule
 0001:0001be40       ?System.Data.SQLite.SQLiteConnectionStringBuilder.set_DefaultDbType@@200101118185 1001ce40 f   System.Data.SQLite.netmodule
 0001:0001be60       ?System.Data.SQLite.SQLiteConnectionStringBuilder.get_DefaultTypeName@@20000O 1001ce60 f   System.Data.SQLite.netmodule
 0001:0001be88       ?System.Data.SQLite.SQLiteConnectionStringBuilder.set_DefaultTypeName@@2001010O 1001ce88 f   System.Data.SQLite.netmodule
 0001:0001bea4       ?System.Data.SQLite.SQLiteConnectionStringBuilder.get_VfsName@@20000O 1001cea4 f   System.Data.SQLite.netmodule
 0001:0001becc       ?System.Data.SQLite.SQLiteConnectionStringBuilder.set_VfsName@@2001010O 1001cecc f   System.Data.SQLite.netmodule
 0001:0001bee8       ?System.Data.SQLite.SQLiteConnectionStringBuilder.get_ForeignKeys@@200002 1001cee8 f   System.Data.SQLite.netmodule
 0001:0001bf0c       ?System.Data.SQLite.SQLiteConnectionStringBuilder.set_ForeignKeys@@20010102 1001cf0c f   System.Data.SQLite.netmodule
 0001:0001bf2c       ?System.Data.SQLite.SQLiteConnectionStringBuilder.get_RecursiveTriggers@@200002 1001cf2c f   System.Data.SQLite.netmodule
 0001:0001bf50       ?System.Data.SQLite.SQLiteConnectionStringBuilder.set_RecursiveTriggers@@20010102 1001cf50 f   System.Data.SQLite.netmodule
 0001:0001bf70       ?System.Data.SQLite.SQLiteConnectionStringBuilder.get_ZipVfsVersion@@20000O 1001cf70 f   System.Data.SQLite.netmodule
 0001:0001bf98       ?System.Data.SQLite.SQLiteConnectionStringBuilder.set_ZipVfsVersion@@2001010O 1001cf98 f   System.Data.SQLite.netmodule
 0001:0001bfb4       ?System.Data.SQLite.SQLiteConnectionStringBuilder.get_Flags@@2000112M 1001cfb4 f   System.Data.SQLite.netmodule
 0001:0001c008       ?System.Data.SQLite.SQLiteConnectionStringBuilder.set_Flags@@200101112M 1001d008 f   System.Data.SQLite.netmodule
 0001:0001c028       ?System.Data.SQLite.SQLiteConnectionStringBuilder.get_SetDefaults@@200002 1001d028 f   System.Data.SQLite.netmodule
 0001:0001c04c       ?System.Data.SQLite.SQLiteConnectionStringBuilder.set_SetDefaults@@20010102 1001d04c f   System.Data.SQLite.netmodule
 0001:0001c06c       ?System.Data.SQLite.SQLiteConnectionStringBuilder.get_ToFullPath@@200002 1001d06c f   System.Data.SQLite.netmodule
 0001:0001c090       ?System.Data.SQLite.SQLiteConnectionStringBuilder.set_ToFullPath@@20010102 1001d090 f   System.Data.SQLite.netmodule
 0001:0001c0b0       ?System.Data.SQLite.SQLiteConnectionStringBuilder.get_NoDefaultFlags@@200002 1001d0b0 f   System.Data.SQLite.netmodule
 0001:0001c0d4       ?System.Data.SQLite.SQLiteConnectionStringBuilder.set_NoDefaultFlags@@20010102 1001d0d4 f   System.Data.SQLite.netmodule
 0001:0001c0f4       ?System.Data.SQLite.SQLiteConnectionStringBuilder.get_NoSharedFlags@@200002 1001d0f4 f   System.Data.SQLite.netmodule
 0001:0001c118       ?System.Data.SQLite.SQLiteConnectionStringBuilder.set_NoSharedFlags@@20010102 1001d118 f   System.Data.SQLite.netmodule
 0001:0001c138       ?System.Data.SQLite.SQLiteConnectionStringBuilder.TryGetValue@@2002020O101M 1001d138 f   System.Data.SQLite.netmodule
 0001:0001c1f8       ?System.Data.SQLite.SQLiteConnectionStringBuilder.FallbackGetProperties@@2001011281MN 1001d1f8 f   System.Data.SQLite.netmodule
 0001:0001c284       ?System.Data.SQLite.SQLiteConvert..ctor@@2003011180O411790O 1001d284 f   System.Data.SQLite.netmodule
 0001:0001c2ac       ?System.Data.SQLite.SQLiteConvert.ToUTF8@@00011N050O 1001d2ac f   System.Data.SQLite.netmodule
 0001:0001c2f0       ?System.Data.SQLite.SQLiteConvert.ToUTF8@@20011N051180K5 1001d2f0 f   System.Data.SQLite.netmodule
 0001:0001c30c       ?System.Data.SQLite.SQLiteConvert.ToString@@20020O1808 1001d30c f   System.Data.SQLite.netmodule
 0001:0001c320       ?System.Data.SQLite.SQLiteConvert.UTF8ToString@@00020O1808 1001d320 f   System.Data.SQLite.netmodule
 0001:0001c380       ?System.Data.SQLite.SQLiteConvert.isValidJd@@0001020K 1001d380 f   System.Data.SQLite.netmodule
 0001:0001c3a4       ?System.Data.SQLite.SQLiteConvert.DoubleToJd@@00010K0N 1001d3a4 f   System.Data.SQLite.netmodule
 0001:0001c3c4       ?System.Data.SQLite.SQLiteConvert.JdToDouble@@00010N0K 1001d3c4 f   System.Data.SQLite.netmodule
 0001:0001c3e0       ?System.Data.SQLite.SQLiteConvert.computeYMD@@00021180K50K151175011180K5 1001d3e0 f   System.Data.SQLite.netmodule
 0001:0001c500       ?System.Data.SQLite.SQLiteConvert.computeHMS@@00021180K50K151175011180K5 1001d500 f   System.Data.SQLite.netmodule
 0001:0001c620       ?System.Data.SQLite.SQLiteConvert.computeJD@@00010K1180K5 1001d620 f   System.Data.SQLite.netmodule
 0001:0001c6d4       ?System.Data.SQLite.SQLiteConvert.ToDateTime@@20011180K50O 1001d6d4 f   System.Data.SQLite.netmodule
 0001:0001c6fc       ?System.Data.SQLite.SQLiteConvert.ToDateTime@@00041180K50O1180O411790O 1001d6fc f   System.Data.SQLite.netmodule
 0001:0001c814       ?System.Data.SQLite.SQLiteConvert.ToDateTime@@20011180K50N 1001d814 f   System.Data.SQLite.netmodule
 0001:0001c830       ?System.Data.SQLite.SQLiteConvert.ToDateTime@@00021180K50N1179 1001d830 f   System.Data.SQLite.netmodule
 0001:0001c89c       ?System.Data.SQLite.SQLiteConvert.UnixEpochToDateTime@@00021180K50K1179 1001d89c f   System.Data.SQLite.netmodule
 0001:0001c8c0       ?System.Data.SQLite.SQLiteConvert.TicksToDateTime@@00021180K50K1179 1001d8c0 f   System.Data.SQLite.netmodule
 0001:0001c8d4       ?System.Data.SQLite.SQLiteConvert.ToJulianDay@@00010N1180K5 1001d8d4 f   System.Data.SQLite.netmodule
 0001:0001c8ec       ?System.Data.SQLite.SQLiteConvert.ToUnixEpoch@@00010K1180K5 1001d8ec f   System.Data.SQLite.netmodule
 0001:0001c914       ?System.Data.SQLite.SQLiteConvert.GetDateTimeKindFormat@@00020O11790O 1001d914 f   System.Data.SQLite.netmodule
 0001:0001c938       ?System.Data.SQLite.SQLiteConvert.ToString@@20010O1180K5 1001d938 f   System.Data.SQLite.netmodule
 0001:0001c960       ?System.Data.SQLite.SQLiteConvert.ToString@@00040O1180K51180O411790O 1001d960 f   System.Data.SQLite.netmodule
 0001:0001ca4c       ?System.Data.SQLite.SQLiteConvert.ToDateTime@@20021180K51808 1001da4c f   System.Data.SQLite.netmodule
 0001:0001ca68       ?System.Data.SQLite.SQLiteConvert.Split@@00021N0O0O03 1001da68 f   System.Data.SQLite.netmodule
 0001:0001cbb8       ?System.Data.SQLite.SQLiteConvert.NewSplit@@00041N0O0O0302100O 1001dbb8 f   System.Data.SQLite.netmodule
 0001:0001ccc8       ?System.Data.SQLite.SQLiteConvert.ToStringWithProvider@@00020O1M1281O1 1001dcc8 f   System.Data.SQLite.netmodule
 0001:0001cd04       ?System.Data.SQLite.SQLiteConvert.ToBoolean@@0003021M1281O102 1001dd04 f   System.Data.SQLite.netmodule
 0001:0001ce68       ?System.Data.SQLite.SQLiteConvert.ToBoolean@@0001021M 1001de68 f   System.Data.SQLite.netmodule
 0001:0001ce94       ?System.Data.SQLite.SQLiteConvert.ToString@@00010O08 1001de94 f   System.Data.SQLite.netmodule
 0001:0001ceb0       ?System.Data.SQLite.SQLiteConvert.ToBoolean@@0001020O 1001deb0 f   System.Data.SQLite.netmodule
 0001:0001d004       ?System.Data.SQLite.SQLiteConvert.SQLiteTypeToType@@00011280L5128100 1001e004 f   System.Data.SQLite.netmodule
 0001:0001d034       ?System.Data.SQLite.SQLiteConvert.TypeToDbType@@00011181851280L5 1001e034 f   System.Data.SQLite.netmodule
 0001:0001d080       ?System.Data.SQLite.SQLiteConvert.DbTypeToColumnSize@@000108118185 1001e080 f   System.Data.SQLite.netmodule
 0001:0001d094       ?System.Data.SQLite.SQLiteConvert.DbTypeToNumericPrecision@@00011M118185 1001e094 f   System.Data.SQLite.netmodule
 0001:0001d0a8       ?System.Data.SQLite.SQLiteConvert.DbTypeToNumericScale@@00011M118185 1001e0a8 f   System.Data.SQLite.netmodule
 0001:0001d0bc       ?System.Data.SQLite.SQLiteConvert.GetDefaultTypeName@@00010O1278 1001e0bc f   System.Data.SQLite.netmodule
 0001:0001d148       ?System.Data.SQLite.SQLiteConvert.DefaultTypeNameWarning@@000301118185112M0O 1001e148 f   System.Data.SQLite.netmodule
 0001:0001d18c       ?System.Data.SQLite.SQLiteConvert.DefaultDbTypeWarning@@0003010O112M15117501118185 1001e18c f   System.Data.SQLite.netmodule
 0001:0001d1d8       ?System.Data.SQLite.SQLiteConvert.DbTypeToTypeName@@00030O1278118185112M 1001e1d8 f   System.Data.SQLite.netmodule
 0001:0001d280       ?System.Data.SQLite.SQLiteConvert.DbTypeToType@@00011280L5118185 1001e280 f   System.Data.SQLite.netmodule
 0001:0001d294       ?System.Data.SQLite.SQLiteConvert.TypeToAffinity@@00021180NM1280L5112M 1001e294 f   System.Data.SQLite.netmodule
 0001:0001d2f8       ?System.Data.SQLite.SQLiteConvert.GetSQLiteDbTypeMap@@0000128104 1001e2f8 f   System.Data.SQLite.netmodule
 0001:0001d7d4       ?System.Data.SQLite.SQLiteConvert.IsStringDbType@@000102118185 1001e7d4 f   System.Data.SQLite.netmodule
 0001:0001d800       ?System.Data.SQLite.SQLiteConvert.SettingValueToString@@00010O1M 1001e800 f   System.Data.SQLite.netmodule
 0001:0001d828       ?System.Data.SQLite.SQLiteConvert.GetDefaultDbType@@00011181851278 1001e828 f   System.Data.SQLite.netmodule
 0001:0001d8f0       ?System.Data.SQLite.SQLiteConvert.GetStringOrNull@@00010O1M 1001e8f0 f   System.Data.SQLite.netmodule
 0001:0001d924       ?System.Data.SQLite.SQLiteConvert.LooksLikeNull@@0001020O 1001e924 f   System.Data.SQLite.netmodule
 0001:0001d938       ?System.Data.SQLite.SQLiteConvert.LooksLikeInt64@@0001020O 1001e938 f   System.Data.SQLite.netmodule
 0001:0001d96c       ?System.Data.SQLite.SQLiteConvert.LooksLikeDouble@@0001020O 1001e96c f   System.Data.SQLite.netmodule
 0001:0001d9a4       ?System.Data.SQLite.SQLiteConvert.LooksLikeDateTime@@0002021280N80O 1001e9a4 f   System.Data.SQLite.netmodule
 0001:0001d9f8       ?System.Data.SQLite.SQLiteConvert.TypeNameToDbType@@000311818512780O112M 1001e9f8 f   System.Data.SQLite.netmodule
 0001:0001db48       ?System.Data.SQLite.SQLiteConvert..cctor@@000001 1001eb48 f   System.Data.SQLite.netmodule
 0001:0001e14c       ?System.Data.SQLite.SQLiteType..ctor@@200001 1001f14c f   System.Data.SQLite.netmodule
 0001:0001e160       ?System.Data.SQLite.SQLiteType..ctor@@2002011180NM118185 1001f160 f   System.Data.SQLite.netmodule
 0001:0001e184       ?System.Data.SQLite.SQLiteDbTypeMap..ctor@@200001 1001f184 f   System.Data.SQLite.netmodule
 0001:0001e1a8       ?System.Data.SQLite.SQLiteDbTypeMap..ctor@@200101151281ON01128108 1001f1a8 f   System.Data.SQLite.netmodule
 0001:0001e1c4       ?System.Data.SQLite.SQLiteDbTypeMap.Clear@@200008 1001f1c4 f   System.Data.SQLite.netmodule
 0001:0001e204       ?System.Data.SQLite.SQLiteDbTypeMap.Add@@200101151281ON01128108 1001f204 f   System.Data.SQLite.netmodule
 0001:0001e268       ?System.Data.SQLite.SQLiteDbTypeMap.Add@@200101128108 1001f268 f   System.Data.SQLite.netmodule
 0001:0001e2c0       ?System.Data.SQLite.SQLiteDbTypeMap.ContainsKey@@200102118185 1001f2c0 f   System.Data.SQLite.netmodule
 0001:0001e2e4       ?System.Data.SQLite.SQLiteDbTypeMap.TryGetValue@@20020211818510128108 1001f2e4 f   System.Data.SQLite.netmodule
 0001:0001e30c       ?System.Data.SQLite.SQLiteDbTypeMap.Remove@@200102118185 1001f30c f   System.Data.SQLite.netmodule
 0001:0001e330       ?System.Data.SQLite.SQLiteDbTypeMapping..ctor@@2003010O11818502 1001f330 f   System.Data.SQLite.netmodule
 0001:0001e358       ?System.Data.SQLite.TypeNameStringComparer.Equals@@2002020O0O 1001f358 f   System.Data.SQLite.netmodule
 0001:0001e370       ?System.Data.SQLite.TypeNameStringComparer.GetHashCode@@2001080O 1001f370 f   System.Data.SQLite.netmodule
 0001:0001e398       ?System.Data.SQLite.TypeNameStringComparer.Compare@@2002080O0O 1001f398 f   System.Data.SQLite.netmodule
 0001:0001e3c0       ?System.Data.SQLite.TypeNameStringComparer..ctor@@200001 1001f3c0 f   System.Data.SQLite.netmodule
 0001:0001e3d4       ?System.Data.SQLite.SQLiteDataAdapter..ctor@@200001 1001f3d4 f   System.Data.SQLite.netmodule
 0001:0001e3f0       ?System.Data.SQLite.SQLiteDataAdapter..ctor@@2001011244 1001f3f0 f   System.Data.SQLite.netmodule
 0001:0001e418       ?System.Data.SQLite.SQLiteDataAdapter..ctor@@2002010O1278 1001f418 f   System.Data.SQLite.netmodule
 0001:0001e440       ?System.Data.SQLite.SQLiteDataAdapter..ctor@@2002010O0O 1001f440 f   System.Data.SQLite.netmodule
 0001:0001e458       ?System.Data.SQLite.SQLiteDataAdapter..ctor@@2003010O0O02 1001f458 f   System.Data.SQLite.netmodule
 0001:0001e488       ?System.Data.SQLite.SQLiteDataAdapter.CheckDisposed@@200001 1001f488 f   System.Data.SQLite.netmodule
 0001:0001e4b4       ?System.Data.SQLite.SQLiteDataAdapter.Dispose@@20010102 1001f4b4 f   System.Data.SQLite.netmodule
 0001:0001e56c       ?System.Data.SQLite.SQLiteDataAdapter.add_RowUpdating@@200101151281PN0112814N 1001f56c f   System.Data.SQLite.netmodule
 0001:0001e5d8       ?System.Data.SQLite.SQLiteDataAdapter.remove_RowUpdating@@200101151281PN0112814N 1001f5d8 f   System.Data.SQLite.netmodule
 0001:0001e5fc       ?System.Data.SQLite.SQLiteDataAdapter.FindBuilder@@000112819N1261 1001f5fc f   System.Data.SQLite.netmodule
 0001:0001e638       ?System.Data.SQLite.SQLiteDataAdapter.add_RowUpdated@@200101151281PN01128201 1001f638 f   System.Data.SQLite.netmodule
 0001:0001e65c       ?System.Data.SQLite.SQLiteDataAdapter.remove_RowUpdated@@200101151281PN01128201 1001f65c f   System.Data.SQLite.netmodule
 0001:0001e680       ?System.Data.SQLite.SQLiteDataAdapter.OnRowUpdating@@20010112814N 1001f680 f   System.Data.SQLite.netmodule
 0001:0001e6b0       ?System.Data.SQLite.SQLiteDataAdapter.OnRowUpdated@@200101128201 1001f6b0 f   System.Data.SQLite.netmodule
 0001:0001e6e0       ?System.Data.SQLite.SQLiteDataAdapter.get_SelectCommand@@20001244 1001f6e0 f   System.Data.SQLite.netmodule
 0001:0001e700       ?System.Data.SQLite.SQLiteDataAdapter.set_SelectCommand@@2001011244 1001f700 f   System.Data.SQLite.netmodule
 0001:0001e71c       ?System.Data.SQLite.SQLiteDataAdapter.get_InsertCommand@@20001244 1001f71c f   System.Data.SQLite.netmodule
 0001:0001e73c       ?System.Data.SQLite.SQLiteDataAdapter.set_InsertCommand@@2001011244 1001f73c f   System.Data.SQLite.netmodule
 0001:0001e758       ?System.Data.SQLite.SQLiteDataAdapter.get_UpdateCommand@@20001244 1001f758 f   System.Data.SQLite.netmodule
 0001:0001e778       ?System.Data.SQLite.SQLiteDataAdapter.set_UpdateCommand@@2001011244 1001f778 f   System.Data.SQLite.netmodule
 0001:0001e794       ?System.Data.SQLite.SQLiteDataAdapter.get_DeleteCommand@@20001244 1001f794 f   System.Data.SQLite.netmodule
 0001:0001e7b4       ?System.Data.SQLite.SQLiteDataAdapter.set_DeleteCommand@@2001011244 1001f7b4 f   System.Data.SQLite.netmodule
 0001:0001e7d0       ?System.Data.SQLite.SQLiteDataAdapter..cctor@@000001 1001f7d0 f   System.Data.SQLite.netmodule
 0001:0001e7f4       ?System.Data.SQLite.SQLiteDataReader..ctor@@200201124411810N 1001f7f4 f   System.Data.SQLite.netmodule
 0001:0001e898       ?System.Data.SQLite.SQLiteDataReader.CheckDisposed@@200001 1001f898 f   System.Data.SQLite.netmodule
 0001:0001e8cc       ?System.Data.SQLite.SQLiteDataReader.Dispose@@20010102 1001f8cc f   System.Data.SQLite.netmodule
 0001:0001e9b4       ?System.Data.SQLite.SQLiteDataReader.Cancel@@200001 1001f9b4 f   System.Data.SQLite.netmodule
 0001:0001e9c8       ?System.Data.SQLite.SQLiteDataReader.Close@@200001 1001f9c8 f   System.Data.SQLite.netmodule
 0001:0001eb68       ?System.Data.SQLite.SQLiteDataReader.CheckClosed@@200001 1001fb68 f   System.Data.SQLite.netmodule
 0001:0001ebd4       ?System.Data.SQLite.SQLiteDataReader.CheckValidRow@@200001 1001fbd4 f   System.Data.SQLite.netmodule
 0001:0001ebf4       ?System.Data.SQLite.SQLiteDataReader.GetEnumerator@@20001280O1 1001fbf4 f   System.Data.SQLite.netmodule
 0001:0001ec1c       ?System.Data.SQLite.SQLiteDataReader.get_Depth@@200008 1001fc1c f   System.Data.SQLite.netmodule
 0001:0001ec38       ?System.Data.SQLite.SQLiteDataReader.get_FieldCount@@200008 1001fc38 f   System.Data.SQLite.netmodule
 0001:0001ec74       ?System.Data.SQLite.SQLiteDataReader.RefreshFlags@@200001 1001fc74 f   System.Data.SQLite.netmodule
 0001:0001ec98       ?System.Data.SQLite.SQLiteDataReader.get_StepCount@@200008 1001fc98 f   System.Data.SQLite.netmodule
 0001:0001ecb8       ?System.Data.SQLite.SQLiteDataReader.get_PrivateVisibleFieldCount@@200008 1001fcb8 f   System.Data.SQLite.netmodule
 0001:0001eccc       ?System.Data.SQLite.SQLiteDataReader.get_VisibleFieldCount@@200008 1001fccc f   System.Data.SQLite.netmodule
 0001:0001ecec       ?System.Data.SQLite.SQLiteDataReader.VerifyForGet@@200001 1001fcec f   System.Data.SQLite.netmodule
 0001:0001ed08       ?System.Data.SQLite.SQLiteDataReader.VerifyType@@20021180NM08118185 1001fd08 f   System.Data.SQLite.netmodule
 0001:0001edf0       ?System.Data.SQLite.SQLiteDataReader.InvokeReadValueCallback@@2003010812501002 1001fdf0 f   System.Data.SQLite.netmodule
 0001:0001eeac       ?System.Data.SQLite.SQLiteDataReader.GetRowId@@2001151175010K08 1001feac f   System.Data.SQLite.netmodule
 0001:0001ef10       ?System.Data.SQLite.SQLiteDataReader.GetBlob@@200212400802 1001ff10 f   System.Data.SQLite.netmodule
 0001:0001ef9c       ?System.Data.SQLite.SQLiteDataReader.GetBoolean@@20010208 1001ff9c f   System.Data.SQLite.netmodule
 0001:0001f054       ?System.Data.SQLite.SQLiteDataReader.GetByte@@20010508 10020054 f   System.Data.SQLite.netmodule
 0001:0001f110       ?System.Data.SQLite.SQLiteDataReader.GetBytes@@20050K080K1N050808 10020110 f   System.Data.SQLite.netmodule
 0001:0001f1f8       ?System.Data.SQLite.SQLiteDataReader.GetChar@@20010308 100201f8 f   System.Data.SQLite.netmodule
 0001:0001f2b4       ?System.Data.SQLite.SQLiteDataReader.GetChars@@20050K080K1N030808 100202b4 f   System.Data.SQLite.netmodule
 0001:0001f3b8       ?System.Data.SQLite.SQLiteDataReader.GetDataTypeName@@20010O08 100203b8 f   System.Data.SQLite.netmodule
 0001:0001f40c       ?System.Data.SQLite.SQLiteDataReader.GetDateTime@@20011180K508 1002040c f   System.Data.SQLite.netmodule
 0001:0001f4c8       ?System.Data.SQLite.SQLiteDataReader.GetDecimal@@200111816108 100204c8 f   System.Data.SQLite.netmodule
 0001:0001f5b8       ?System.Data.SQLite.SQLiteDataReader.GetDouble@@20010N08 100205b8 f   System.Data.SQLite.netmodule
 0001:0001f674       ?System.Data.SQLite.SQLiteDataReader.GetFieldAffinity@@20011180NM08 10020674 f   System.Data.SQLite.netmodule
 0001:0001f6c0       ?System.Data.SQLite.SQLiteDataReader.GetFieldType@@20011280L508 100206c0 f   System.Data.SQLite.netmodule
 0001:0001f70c       ?System.Data.SQLite.SQLiteDataReader.GetFloat@@20010M08 1002070c f   System.Data.SQLite.netmodule
 0001:0001f7d0       ?System.Data.SQLite.SQLiteDataReader.GetGuid@@200111816508 100207d0 f   System.Data.SQLite.netmodule
 0001:0001f8c0       ?System.Data.SQLite.SQLiteDataReader.GetInt16@@20010608 100208c0 f   System.Data.SQLite.netmodule
 0001:0001f97c       ?System.Data.SQLite.SQLiteDataReader.GetInt32@@20010808 1002097c f   System.Data.SQLite.netmodule
 0001:0001fa38       ?System.Data.SQLite.SQLiteDataReader.GetInt64@@20010K08 10020a38 f   System.Data.SQLite.netmodule
 0001:0001faf4       ?System.Data.SQLite.SQLiteDataReader.GetName@@20010O08 10020af4 f   System.Data.SQLite.netmodule
 0001:0001fb44       ?System.Data.SQLite.SQLiteDataReader.GetDatabaseName@@20010O08 10020b44 f   System.Data.SQLite.netmodule
 0001:0001fb94       ?System.Data.SQLite.SQLiteDataReader.GetTableName@@20010O08 10020b94 f   System.Data.SQLite.netmodule
 0001:0001fbe4       ?System.Data.SQLite.SQLiteDataReader.GetOriginalName@@20010O08 10020be4 f   System.Data.SQLite.netmodule
 0001:0001fc34       ?System.Data.SQLite.SQLiteDataReader.GetOrdinal@@2001080O 10020c34 f   System.Data.SQLite.netmodule
 0001:0001fcc4       ?System.Data.SQLite.SQLiteDataReader.GetSchemaTable@@2000128155 10020cc4 f   System.Data.SQLite.netmodule
 0001:0001fce0       ?System.Data.SQLite.SQLiteDataReader.GetStatementColumnParents@@000501122012818008101512710212828M151280NN010810151271020812828M 10020ce0 f   System.Data.SQLite.netmodule
 0001:0001fda0       ?System.Data.SQLite.SQLiteDataReader.CountParents@@0001081512710212828M151280NN0108 10020da0 f   System.Data.SQLite.netmodule
 0001:0001fe14       ?System.Data.SQLite.SQLiteDataReader.GetSchemaTable@@20021281550202 10020e14 f   System.Data.SQLite.netmodule
 0001:00020818       ?System.Data.SQLite.SQLiteDataReader.GetString@@20010O08 10021818 f   System.Data.SQLite.netmodule
 0001:000208d4       ?System.Data.SQLite.SQLiteDataReader.GetValue@@20011M08 100218d4 f   System.Data.SQLite.netmodule
 0001:00020a04       ?System.Data.SQLite.SQLiteDataReader.GetValues@@2001081N1M 10021a04 f   System.Data.SQLite.netmodule
 0001:00020a40       ?System.Data.SQLite.SQLiteDataReader.GetValues@@2000128211 10021a40 f   System.Data.SQLite.netmodule
 0001:00020ac4       ?System.Data.SQLite.SQLiteDataReader.get_HasRows@@200002 10021ac4 f   System.Data.SQLite.netmodule
 0001:00020b14       ?System.Data.SQLite.SQLiteDataReader.get_IsClosed@@200002 10021b14 f   System.Data.SQLite.netmodule
 0001:00020b30       ?System.Data.SQLite.SQLiteDataReader.IsDBNull@@20010208 10021b30 f   System.Data.SQLite.netmodule
 0001:00020b88       ?System.Data.SQLite.SQLiteDataReader.NextResult@@200002 10021b88 f   System.Data.SQLite.netmodule
 0001:00020dcc       ?System.Data.SQLite.SQLiteDataReader.GetConnection@@00011278128114 10021dcc f   System.Data.SQLite.netmodule
 0001:00020e18       ?System.Data.SQLite.SQLiteDataReader.GetSQLiteType@@20021281001281000O 10021e18 f   System.Data.SQLite.netmodule
 0001:00020e7c       ?System.Data.SQLite.SQLiteDataReader.GetSQLiteType@@2002128100112M08 10021e7c f   System.Data.SQLite.netmodule
 0001:00020f00       ?System.Data.SQLite.SQLiteDataReader.Read@@200002 10021f00 f   System.Data.SQLite.netmodule
 0001:00020f94       ?System.Data.SQLite.SQLiteDataReader.get_RecordsAffected@@200008 10021f94 f   System.Data.SQLite.netmodule
 0001:00020fb0       ?System.Data.SQLite.SQLiteDataReader.get_Item@@20011M0O 10021fb0 f   System.Data.SQLite.netmodule
 0001:00020fd0       ?System.Data.SQLite.SQLiteDataReader.get_Item@@20011M08 10021fd0 f   System.Data.SQLite.netmodule
 0001:00020fec       ?System.Data.SQLite.SQLiteDataReader.LoadKeyInfo@@200001 10021fec f   System.Data.SQLite.netmodule
 0001:00021030       ?System.Data.SQLite.SQLiteDefineConstants..cctor@@000001 10022030 f   System.Data.SQLite.netmodule
 0001:000210f0       ?System.Data.SQLite.SQLiteException..ctor@@20020112821N118221 100220f0 f   System.Data.SQLite.netmodule
 0001:0002111c       ?System.Data.SQLite.SQLiteException..ctor@@2002011181200O 1002211c f   System.Data.SQLite.netmodule
 0001:00021144       ?System.Data.SQLite.SQLiteException..ctor@@2001010O 10022144 f   System.Data.SQLite.netmodule
 0001:0002115c       ?System.Data.SQLite.SQLiteException..ctor@@200001 1002215c f   System.Data.SQLite.netmodule
 0001:00021178       ?System.Data.SQLite.SQLiteException..ctor@@2002010O1280L1 10022178 f   System.Data.SQLite.netmodule
 0001:00021194       ?System.Data.SQLite.SQLiteException.GetObjectData@@20020112821N118221 10022194 f   System.Data.SQLite.netmodule
 0001:000211c4       ?System.Data.SQLite.SQLiteException.get_ResultCode@@2000118120 100221c4 f   System.Data.SQLite.netmodule
 0001:000211d8       ?System.Data.SQLite.SQLiteException.get_ErrorCode@@200008 100221d8 f   System.Data.SQLite.netmodule
 0001:000211ec       ?System.Data.SQLite.SQLiteException.Initialize@@200001 100221ec f   System.Data.SQLite.netmodule
 0001:00021228       ?System.Data.SQLite.SQLiteException.MakeHResult@@0002080802 10022228 f   System.Data.SQLite.netmodule
 0001:00021250       ?System.Data.SQLite.SQLiteException.GetHResultForErrorCode@@00011511750108118120 10022250 f   System.Data.SQLite.netmodule
 0001:000214a0       ?System.Data.SQLite.SQLiteException.GetErrorString@@00010O118120 100224a0 f   System.Data.SQLite.netmodule
 0001:000214e0       ?System.Data.SQLite.SQLiteException.GetStockErrorMessage@@00020O1181200O 100224e0 f   System.Data.SQLite.netmodule
 0001:0002151c       ?System.Data.SQLite.SQLiteException.ToString@@20000O 1002251c f   System.Data.SQLite.netmodule
 0001:00021564       ?System.Data.SQLite.SQLiteFactory..ctor@@200001 10022564 f   System.Data.SQLite.netmodule
 0001:00021578       ?System.Data.SQLite.SQLiteFactory.Dispose@@200001 10022578 f   System.Data.SQLite.netmodule
 0001:00021594       ?System.Data.SQLite.SQLiteFactory.CheckDisposed@@200001 10022594 f   System.Data.SQLite.netmodule
 0001:000215c0       ?System.Data.SQLite.SQLiteFactory.Dispose@@20010102 100225c0 f   System.Data.SQLite.netmodule
 0001:000215dc       ?System.Data.SQLite.SQLiteFactory.Finalize@@200001 100225dc f   System.Data.SQLite.netmodule
 0001:00021618       ?System.Data.SQLite.SQLiteFactory.add_Log@@20010112816M 10022618 f   System.Data.SQLite.netmodule
 0001:00021634       ?System.Data.SQLite.SQLiteFactory.remove_Log@@20010112816M 10022634 f   System.Data.SQLite.netmodule
 0001:00021650       ?System.Data.SQLite.SQLiteFactory.CreateCommand@@20001280MN 10022650 f   System.Data.SQLite.netmodule
 0001:00021668       ?System.Data.SQLite.SQLiteFactory.CreateCommandBuilder@@200012813N 10022668 f   System.Data.SQLite.netmodule
 0001:00021680       ?System.Data.SQLite.SQLiteFactory.CreateConnection@@20001280P9 10022680 f   System.Data.SQLite.netmodule
 0001:00021698       ?System.Data.SQLite.SQLiteFactory.CreateConnectionStringBuilder@@20001281KN 10022698 f   System.Data.SQLite.netmodule
 0001:000216b0       ?System.Data.SQLite.SQLiteFactory.CreateDataAdapter@@2000128149 100226b0 f   System.Data.SQLite.netmodule
 0001:000216c8       ?System.Data.SQLite.SQLiteFactory.CreateParameter@@20001280P5 100226c8 f   System.Data.SQLite.netmodule
 0001:000216e0       ?System.Data.SQLite.SQLiteFactory..cctor@@000001 100226e0 f   System.Data.SQLite.netmodule
 0001:00021748       ?System.Data.SQLite.SQLiteFactory.System.IServiceProvider.GetService@@20011M1280L5 10022748 f   System.Data.SQLite.netmodule
 0001:0002178c       ?System.Data.SQLite.SQLiteFactory.GetSQLiteProviderServicesInstance@@20001M 1002278c f   System.Data.SQLite.netmodule
 0001:00021838       ?System.Data.SQLite.SQLiteFunction..ctor@@200001 10022838 f   System.Data.SQLite.netmodule
 0001:00021858       ?System.Data.SQLite.SQLiteFunction..ctor@@2004011180O411790O02 10022858 f   System.Data.SQLite.netmodule
 0001:0002189c       ?System.Data.SQLite.SQLiteFunction.Dispose@@200001 1002289c f   System.Data.SQLite.netmodule
 0001:000218b8       ?System.Data.SQLite.SQLiteFunction.CheckDisposed@@200001 100228b8 f   System.Data.SQLite.netmodule
 0001:000218e4       ?System.Data.SQLite.SQLiteFunction.Dispose@@20010102 100228e4 f   System.Data.SQLite.netmodule
 0001:000219ac       ?System.Data.SQLite.SQLiteFunction.Finalize@@200001 100229ac f   System.Data.SQLite.netmodule
 0001:000219e8       ?System.Data.SQLite.SQLiteFunction.get_SQLiteConvert@@20001280N8 100229e8 f   System.Data.SQLite.netmodule
 0001:00021a04       ?System.Data.SQLite.SQLiteFunction.Invoke@@20011M1N1M 10022a04 f   System.Data.SQLite.netmodule
 0001:00021a18       ?System.Data.SQLite.SQLiteFunction.Step@@2003011N1M08101M 10022a18 f   System.Data.SQLite.netmodule
 0001:00021a2c       ?System.Data.SQLite.SQLiteFunction.Final@@20011M1M 10022a2c f   System.Data.SQLite.netmodule
 0001:00021a40       ?System.Data.SQLite.SQLiteFunction.Compare@@2002080O0O 10022a40 f   System.Data.SQLite.netmodule
 0001:00021a54       ?System.Data.SQLite.SQLiteFunction.ConvertParams@@20021N1M0818 10022a54 f   System.Data.SQLite.netmodule
 0001:00021b7c       ?System.Data.SQLite.SQLiteFunction.SetReturnValue@@200201181M 10022b7c f   System.Data.SQLite.netmodule
 0001:00021c84       ?System.Data.SQLite.SQLiteFunction.ScalarCallback@@200301180818 10022c84 f   System.Data.SQLite.netmodule
 0001:00021d24       ?System.Data.SQLite.SQLiteFunction.CompareCallback@@2005081808180818 10022d24 f   System.Data.SQLite.netmodule
 0001:00021de4       ?System.Data.SQLite.SQLiteFunction.CompareCallback16@@2005081808180818 10022de4 f   System.Data.SQLite.netmodule
 0001:00021ea4       ?System.Data.SQLite.SQLiteFunction.StepCallback@@200301180818 10022ea4 f   System.Data.SQLite.netmodule
 0001:00021fc0       ?System.Data.SQLite.SQLiteFunction.FinalCallback@@20010118 10022fc0 f   System.Data.SQLite.netmodule
 0001:000220c8       ?System.Data.SQLite.SQLiteFunction..cctor@@000001 100230c8 f   System.Data.SQLite.netmodule
 0001:00022224       ?System.Data.SQLite.SQLiteFunction.RegisterFunction@@0001011280L5 10023224 f   System.Data.SQLite.netmodule
 0001:00022284       ?System.Data.SQLite.SQLiteFunction.RegisterFunction@@0006010O081181441280L512819N12819N 10023284 f   System.Data.SQLite.netmodule
 0001:000222b8       ?System.Data.SQLite.SQLiteFunction.ReplaceFunction@@0002021281601M 100232b8 f   System.Data.SQLite.netmodule
 0001:00022304       ?System.Data.SQLite.SQLiteFunction.CreateFunction@@00020212816010128128 10023304 f   System.Data.SQLite.netmodule
 0001:00022364       ?System.Data.SQLite.SQLiteFunction.BindFunctions@@000215128091021281601281281220112M 10023364 f   System.Data.SQLite.netmodule
 0001:000223f0       ?System.Data.SQLite.SQLiteFunction.UnbindAllFunctions@@0003021220112M02 100233f0 f   System.Data.SQLite.netmodule
 0001:00022504       ?System.Data.SQLite.SQLiteFunction.BindFunction@@0004011220128160128128112M 10023504 f   System.Data.SQLite.netmodule
 0001:0002261c       ?System.Data.SQLite.SQLiteFunction.UnbindFunction@@0004021220128160128128112M 1002361c f   System.Data.SQLite.netmodule
 0001:00022690       ?System.Data.SQLite.SQLiteDelegateFunction..ctor@@200001 10023690 f   System.Data.SQLite.netmodule
 0001:000226a8       ?System.Data.SQLite.SQLiteDelegateFunction..ctor@@20020112819N12819N 100236a8 f   System.Data.SQLite.netmodule
 0001:000226cc       ?System.Data.SQLite.SQLiteDelegateFunction.GetInvokeArgs@@20021N1M1N1M02 100236cc f   System.Data.SQLite.netmodule
 0001:000226fc       ?System.Data.SQLite.SQLiteDelegateFunction.GetStepArgs@@20041N1M1N1M081M02 100236fc f   System.Data.SQLite.netmodule
 0001:0002273c       ?System.Data.SQLite.SQLiteDelegateFunction.UpdateStepArgs@@2003011N1M101M02 1002373c f   System.Data.SQLite.netmodule
 0001:00022768       ?System.Data.SQLite.SQLiteDelegateFunction.GetFinalArgs@@20021N1M1M02 10023768 f   System.Data.SQLite.netmodule
 0001:00022798       ?System.Data.SQLite.SQLiteDelegateFunction.GetCompareArgs@@20031N1M0O0O02 10023798 f   System.Data.SQLite.netmodule
 0001:000227cc       ?System.Data.SQLite.SQLiteDelegateFunction.get_Callback1@@200012819N 100237cc f   System.Data.SQLite.netmodule
 0001:000227e0       ?System.Data.SQLite.SQLiteDelegateFunction.set_Callback1@@20010112819N 100237e0 f   System.Data.SQLite.netmodule
 0001:000227f4       ?System.Data.SQLite.SQLiteDelegateFunction.get_Callback2@@200012819N 100237f4 f   System.Data.SQLite.netmodule
 0001:00022808       ?System.Data.SQLite.SQLiteDelegateFunction.set_Callback2@@20010112819N 10023808 f   System.Data.SQLite.netmodule
 0001:0002281c       ?System.Data.SQLite.SQLiteDelegateFunction.Invoke@@20011M1N1M 1002381c f   System.Data.SQLite.netmodule
 0001:00022884       ?System.Data.SQLite.SQLiteDelegateFunction.Step@@2003011N1M08101M 10023884 f   System.Data.SQLite.netmodule
 0001:000228fc       ?System.Data.SQLite.SQLiteDelegateFunction.Final@@20011M1M 100238fc f   System.Data.SQLite.netmodule
 0001:00022964       ?System.Data.SQLite.SQLiteDelegateFunction.Compare@@2002080O0O 10023964 f   System.Data.SQLite.netmodule
 0001:00022a00       ?System.Data.SQLite.SQLiteFunctionEx.GetCollationSequence@@200011815M 10023a00 f   System.Data.SQLite.netmodule
 0001:00022a20       ?System.Data.SQLite.SQLiteFunctionEx.CheckDisposed@@200001 10023a20 f   System.Data.SQLite.netmodule
 0001:00022a4c       ?System.Data.SQLite.SQLiteFunctionEx.Dispose@@20010102 10023a4c f   System.Data.SQLite.netmodule
 0001:00022a90       ?System.Data.SQLite.SQLiteFunctionEx..ctor@@200001 10023a90 f   System.Data.SQLite.netmodule
 0001:00022aa4       ?System.Data.SQLite.CollationSequence.Compare@@2002080O0O 10023aa4 f   System.Data.SQLite.netmodule
 0001:00022ad4       ?System.Data.SQLite.CollationSequence.Compare@@2002081N031N03 10023ad4 f   System.Data.SQLite.netmodule
 0001:00022b04       ?System.Data.SQLite.SQLiteFunctionAttribute..ctor@@200001 10023b04 f   System.Data.SQLite.netmodule
 0001:00022b1c       ?System.Data.SQLite.SQLiteFunctionAttribute..ctor@@2003010O08118144 10023b1c f   System.Data.SQLite.netmodule
 0001:00022b5c       ?System.Data.SQLite.SQLiteFunctionAttribute.get_Name@@20000O 10023b5c f   System.Data.SQLite.netmodule
 0001:00022b70       ?System.Data.SQLite.SQLiteFunctionAttribute.set_Name@@2001010O 10023b70 f   System.Data.SQLite.netmodule
 0001:00022b84       ?System.Data.SQLite.SQLiteFunctionAttribute.get_Arguments@@200008 10023b84 f   System.Data.SQLite.netmodule
 0001:00022b98       ?System.Data.SQLite.SQLiteFunctionAttribute.set_Arguments@@20010108 10023b98 f   System.Data.SQLite.netmodule
 0001:00022bac       ?System.Data.SQLite.SQLiteFunctionAttribute.get_FuncType@@2000118144 10023bac f   System.Data.SQLite.netmodule
 0001:00022bc0       ?System.Data.SQLite.SQLiteFunctionAttribute.set_FuncType@@200101118144 10023bc0 f   System.Data.SQLite.netmodule
 0001:00022bd4       ?System.Data.SQLite.SQLiteFunctionAttribute.get_InstanceType@@20001280L5 10023bd4 f   System.Data.SQLite.netmodule
 0001:00022be8       ?System.Data.SQLite.SQLiteFunctionAttribute.set_InstanceType@@2001011280L5 10023be8 f   System.Data.SQLite.netmodule
 0001:00022bfc       ?System.Data.SQLite.SQLiteFunctionAttribute.get_Callback1@@200012819N 10023bfc f   System.Data.SQLite.netmodule
 0001:00022c10       ?System.Data.SQLite.SQLiteFunctionAttribute.set_Callback1@@20010112819N 10023c10 f   System.Data.SQLite.netmodule
 0001:00022c24       ?System.Data.SQLite.SQLiteFunctionAttribute.get_Callback2@@200012819N 10023c24 f   System.Data.SQLite.netmodule
 0001:00022c38       ?System.Data.SQLite.SQLiteFunctionAttribute.set_Callback2@@20010112819N 10023c38 f   System.Data.SQLite.netmodule
 0001:00022c4c       ?System.Data.SQLite.SQLiteKeyReader..ctor@@2003011278128114128180 10023c4c f   System.Data.SQLite.netmodule
 0001:00023340       ?System.Data.SQLite.SQLiteKeyReader.GetRowIdIndex@@2002080O0O 10024340 f   System.Data.SQLite.netmodule
 0001:000233b4       ?System.Data.SQLite.SQLiteKeyReader.GetRowId@@2002151175010K0O0O 100243b4 f   System.Data.SQLite.netmodule
 0001:00023458       ?System.Data.SQLite.SQLiteKeyReader.Dispose@@200001 10024458 f   System.Data.SQLite.netmodule
 0001:00023474       ?System.Data.SQLite.SQLiteKeyReader.CheckDisposed@@200001 10024474 f   System.Data.SQLite.netmodule
 0001:000234a0       ?System.Data.SQLite.SQLiteKeyReader.Dispose@@20010102 100244a0 f   System.Data.SQLite.netmodule
 0001:00023514       ?System.Data.SQLite.SQLiteKeyReader.Finalize@@200001 10024514 f   System.Data.SQLite.netmodule
 0001:00023550       ?System.Data.SQLite.SQLiteKeyReader.get_Count@@200008 10024550 f   System.Data.SQLite.netmodule
 0001:00023570       ?System.Data.SQLite.SQLiteKeyReader.Sync@@20010108 10024570 f   System.Data.SQLite.netmodule
 0001:000235a0       ?System.Data.SQLite.SQLiteKeyReader.Sync@@200001 100245a0 f   System.Data.SQLite.netmodule
 0001:0002363c       ?System.Data.SQLite.SQLiteKeyReader.Reset@@200001 1002463c f   System.Data.SQLite.netmodule
 0001:00023698       ?System.Data.SQLite.SQLiteKeyReader.GetDataTypeName@@20010O08 10024698 f   System.Data.SQLite.netmodule
 0001:000236f0       ?System.Data.SQLite.SQLiteKeyReader.GetFieldAffinity@@20011180NM08 100246f0 f   System.Data.SQLite.netmodule
 0001:00023744       ?System.Data.SQLite.SQLiteKeyReader.GetFieldType@@20011280L508 10024744 f   System.Data.SQLite.netmodule
 0001:000237a4       ?System.Data.SQLite.SQLiteKeyReader.GetDatabaseName@@20010O08 100247a4 f   System.Data.SQLite.netmodule
 0001:000237c4       ?System.Data.SQLite.SQLiteKeyReader.GetTableName@@20010O08 100247c4 f   System.Data.SQLite.netmodule
 0001:000237e4       ?System.Data.SQLite.SQLiteKeyReader.GetName@@20010O08 100247e4 f   System.Data.SQLite.netmodule
 0001:00023804       ?System.Data.SQLite.SQLiteKeyReader.GetOrdinal@@2001080O 10024804 f   System.Data.SQLite.netmodule
 0001:00023844       ?System.Data.SQLite.SQLiteKeyReader.GetBlob@@200212400802 10024844 f   System.Data.SQLite.netmodule
 0001:000238a0       ?System.Data.SQLite.SQLiteKeyReader.GetBoolean@@20010208 100248a0 f   System.Data.SQLite.netmodule
 0001:000238fc       ?System.Data.SQLite.SQLiteKeyReader.GetByte@@20010508 100248fc f   System.Data.SQLite.netmodule
 0001:00023958       ?System.Data.SQLite.SQLiteKeyReader.GetBytes@@20050K080K1N050808 10024958 f   System.Data.SQLite.netmodule
 0001:000239b8       ?System.Data.SQLite.SQLiteKeyReader.GetChar@@20010308 100249b8 f   System.Data.SQLite.netmodule
 0001:00023a14       ?System.Data.SQLite.SQLiteKeyReader.GetChars@@20050K080K1N030808 10024a14 f   System.Data.SQLite.netmodule
 0001:00023a74       ?System.Data.SQLite.SQLiteKeyReader.GetDateTime@@20011180K508 10024a74 f   System.Data.SQLite.netmodule
 0001:00023ad0       ?System.Data.SQLite.SQLiteKeyReader.GetDecimal@@200111816108 10024ad0 f   System.Data.SQLite.netmodule
 0001:00023b2c       ?System.Data.SQLite.SQLiteKeyReader.GetDouble@@20010N08 10024b2c f   System.Data.SQLite.netmodule
 0001:00023b88       ?System.Data.SQLite.SQLiteKeyReader.GetFloat@@20010M08 10024b88 f   System.Data.SQLite.netmodule
 0001:00023be4       ?System.Data.SQLite.SQLiteKeyReader.GetGuid@@200111816508 10024be4 f   System.Data.SQLite.netmodule
 0001:00023c40       ?System.Data.SQLite.SQLiteKeyReader.GetInt16@@20010608 10024c40 f   System.Data.SQLite.netmodule
 0001:00023ccc       ?System.Data.SQLite.SQLiteKeyReader.GetInt32@@20010808 10024ccc f   System.Data.SQLite.netmodule
 0001:00023d58       ?System.Data.SQLite.SQLiteKeyReader.GetInt64@@20010K08 10024d58 f   System.Data.SQLite.netmodule
 0001:00023ddc       ?System.Data.SQLite.SQLiteKeyReader.GetString@@20010O08 10024ddc f   System.Data.SQLite.netmodule
 0001:00023e38       ?System.Data.SQLite.SQLiteKeyReader.GetValue@@20011M08 10024e38 f   System.Data.SQLite.netmodule
 0001:00023ec4       ?System.Data.SQLite.SQLiteKeyReader.IsDBNull@@20010208 10024ec4 f   System.Data.SQLite.netmodule
 0001:00023f5c       ?System.Data.SQLite.SQLiteKeyReader.AppendSchemaTable@@200101128155 10024f5c f   System.Data.SQLite.netmodule
 0001:00024258       ?System.Data.SQLite.LogEventArgs..ctor@@200401181M0O1M 10025258 f   System.Data.SQLite.netmodule
 0001:00024284       ?System.Data.SQLite.SQLiteLog.add__handlers@@00010112816M 10025284 f   System.Data.SQLite.netmodule
 0001:000242b8       ?System.Data.SQLite.SQLiteLog.remove__handlers@@00010112816M 100252b8 f   System.Data.SQLite.netmodule
 0001:000242ec       ?System.Data.SQLite.SQLiteLog.Initialize@@000001 100252ec f   System.Data.SQLite.netmodule
 0001:00024300       ?System.Data.SQLite.SQLiteLog.Initialize@@0001010O 10025300 f   System.Data.SQLite.netmodule
 0001:00024420       ?System.Data.SQLite.SQLiteLog.DomainUnload@@0002011M128169 10025420 f   System.Data.SQLite.netmodule
 0001:000244d8       ?System.Data.SQLite.SQLiteLog.add_Log@@00010112816M 100254d8 f   System.Data.SQLite.netmodule
 0001:0002452c       ?System.Data.SQLite.SQLiteLog.remove_Log@@00010112816M 1002552c f   System.Data.SQLite.netmodule
 0001:00024578       ?System.Data.SQLite.SQLiteLog.get_Enabled@@000002 10025578 f   System.Data.SQLite.netmodule
 0001:000245c4       ?System.Data.SQLite.SQLiteLog.set_Enabled@@00010102 100255c4 f   System.Data.SQLite.netmodule
 0001:00024610       ?System.Data.SQLite.SQLiteLog.LogMessage@@0001010O 10025610 f   System.Data.SQLite.netmodule
 0001:00024624       ?System.Data.SQLite.SQLiteLog.LogMessage@@0002011181200O 10025624 f   System.Data.SQLite.netmodule
 0001:00024640       ?System.Data.SQLite.SQLiteLog.LogMessage@@000201080O 10025640 f   System.Data.SQLite.netmodule
 0001:0002465c       ?System.Data.SQLite.SQLiteLog.LogMessage@@0002011M0O 1002565c f   System.Data.SQLite.netmodule
 0001:000246dc       ?System.Data.SQLite.SQLiteLog.InitializeDefaultHandler@@000001 100256dc f   System.Data.SQLite.netmodule
 0001:0002473c       ?System.Data.SQLite.SQLiteLog.AddDefaultHandler@@000001 1002573c f   System.Data.SQLite.netmodule
 0001:00024758       ?System.Data.SQLite.SQLiteLog.RemoveDefaultHandler@@000001 10025758 f   System.Data.SQLite.netmodule
 0001:00024774       ?System.Data.SQLite.SQLiteLog.LogCallback@@000301180818 10025774 f   System.Data.SQLite.netmodule
 0001:000247fc       ?System.Data.SQLite.SQLiteLog.LogEventHandler@@0002011M128168 100257fc f   System.Data.SQLite.netmodule
 0001:000248f4       ?System.Data.SQLite.SQLiteLog..cctor@@000001 100258f4 f   System.Data.SQLite.netmodule
 0001:0002490c       ?System.Data.SQLite.SQLiteMetaDataCollectionNames..cctor@@000001 1002590c f   System.Data.SQLite.netmodule
 0001:00024974       ?System.Data.SQLite.SQLiteParameter..ctor@@200101128175 10025974 f   System.Data.SQLite.netmodule
 0001:00024990       ?System.Data.SQLite.SQLiteParameter..ctor@@200001 10025990 f   System.Data.SQLite.netmodule
 0001:000249ac       ?System.Data.SQLite.SQLiteParameter..ctor@@2001010O 100259ac f   System.Data.SQLite.netmodule
 0001:000249c8       ?System.Data.SQLite.SQLiteParameter..ctor@@2002010O1M 100259c8 f   System.Data.SQLite.netmodule
 0001:000249ec       ?System.Data.SQLite.SQLiteParameter..ctor@@2002010O118185 100259ec f   System.Data.SQLite.netmodule
 0001:00024a08       ?System.Data.SQLite.SQLiteParameter..ctor@@2003010O1181850O 10025a08 f   System.Data.SQLite.netmodule
 0001:00024a24       ?System.Data.SQLite.SQLiteParameter..ctor@@2004010O1181850O118255 10025a24 f   System.Data.SQLite.netmodule
 0001:00024a40       ?System.Data.SQLite.SQLiteParameter..ctor@@200101118185 10025a40 f   System.Data.SQLite.netmodule
 0001:00024a5c       ?System.Data.SQLite.SQLiteParameter..ctor@@2002011181851M 10025a5c f   System.Data.SQLite.netmodule
 0001:00024a80       ?System.Data.SQLite.SQLiteParameter..ctor@@2002011181850O 10025a80 f   System.Data.SQLite.netmodule
 0001:00024a9c       ?System.Data.SQLite.SQLiteParameter..ctor@@2003011181850O118255 10025a9c f   System.Data.SQLite.netmodule
 0001:00024ab4       ?System.Data.SQLite.SQLiteParameter..ctor@@2003010O11818508 10025ab4 f   System.Data.SQLite.netmodule
 0001:00024ad0       ?System.Data.SQLite.SQLiteParameter..ctor@@2004010O118185080O 10025ad0 f   System.Data.SQLite.netmodule
 0001:00024af0       ?System.Data.SQLite.SQLiteParameter..ctor@@2005010O118185080O118255 10025af0 f   System.Data.SQLite.netmodule
 0001:00024b30       ?System.Data.SQLite.SQLiteParameter..ctor@@200101128178 10025b30 f   System.Data.SQLite.netmodule
 0001:00024b7c       ?System.Data.SQLite.SQLiteParameter..ctor@@200K010O118185081182590205050O1182551M 10025b7c f   System.Data.SQLite.netmodule
 0001:00024bb0       ?System.Data.SQLite.SQLiteParameter..ctor@@200K010O1181850811825905050O118255021M 10025bb0 f   System.Data.SQLite.netmodule
 0001:00024be4       ?System.Data.SQLite.SQLiteParameter..ctor@@20020111818508 10025be4 f   System.Data.SQLite.netmodule
 0001:00024c00       ?System.Data.SQLite.SQLiteParameter..ctor@@200301118185080O 10025c00 f   System.Data.SQLite.netmodule
 0001:00024c1c       ?System.Data.SQLite.SQLiteParameter..ctor@@200401118185080O118255 10025c1c f   System.Data.SQLite.netmodule
 0001:00024c38       ?System.Data.SQLite.SQLiteParameter.get_Command@@2000128175 10025c38 f   System.Data.SQLite.netmodule
 0001:00024c4c       ?System.Data.SQLite.SQLiteParameter.set_Command@@200101128175 10025c4c f   System.Data.SQLite.netmodule
 0001:00024c60       ?System.Data.SQLite.SQLiteParameter.get_IsNullable@@200002 10025c60 f   System.Data.SQLite.netmodule
 0001:00024c74       ?System.Data.SQLite.SQLiteParameter.set_IsNullable@@20010102 10025c74 f   System.Data.SQLite.netmodule
 0001:00024c88       ?System.Data.SQLite.SQLiteParameter.get_DbType@@2000118185 10025c88 f   System.Data.SQLite.netmodule
 0001:00024cd0       ?System.Data.SQLite.SQLiteParameter.set_DbType@@200101118185 10025cd0 f   System.Data.SQLite.netmodule
 0001:00024ce4       ?System.Data.SQLite.SQLiteParameter.get_Direction@@2000118259 10025ce4 f   System.Data.SQLite.netmodule
 0001:00024cf4       ?System.Data.SQLite.SQLiteParameter.set_Direction@@200101118259 10025cf4 f   System.Data.SQLite.netmodule
 0001:00024d0c       ?System.Data.SQLite.SQLiteParameter.get_ParameterName@@20000O 10025d0c f   System.Data.SQLite.netmodule
 0001:00024d20       ?System.Data.SQLite.SQLiteParameter.set_ParameterName@@2001010O 10025d20 f   System.Data.SQLite.netmodule
 0001:00024d34       ?System.Data.SQLite.SQLiteParameter.ResetDbType@@200001 10025d34 f   System.Data.SQLite.netmodule
 0001:00024d48       ?System.Data.SQLite.SQLiteParameter.get_Size@@200008 10025d48 f   System.Data.SQLite.netmodule
 0001:00024d5c       ?System.Data.SQLite.SQLiteParameter.set_Size@@20010108 10025d5c f   System.Data.SQLite.netmodule
 0001:00024d70       ?System.Data.SQLite.SQLiteParameter.get_SourceColumn@@20000O 10025d70 f   System.Data.SQLite.netmodule
 0001:00024d84       ?System.Data.SQLite.SQLiteParameter.set_SourceColumn@@2001010O 10025d84 f   System.Data.SQLite.netmodule
 0001:00024d98       ?System.Data.SQLite.SQLiteParameter.get_SourceColumnNullMapping@@200002 10025d98 f   System.Data.SQLite.netmodule
 0001:00024dac       ?System.Data.SQLite.SQLiteParameter.set_SourceColumnNullMapping@@20010102 10025dac f   System.Data.SQLite.netmodule
 0001:00024dc0       ?System.Data.SQLite.SQLiteParameter.get_SourceVersion@@2000118255 10025dc0 f   System.Data.SQLite.netmodule
 0001:00024dd4       ?System.Data.SQLite.SQLiteParameter.set_SourceVersion@@200101118255 10025dd4 f   System.Data.SQLite.netmodule
 0001:00024de8       ?System.Data.SQLite.SQLiteParameter.get_Value@@20001M 10025de8 f   System.Data.SQLite.netmodule
 0001:00024dfc       ?System.Data.SQLite.SQLiteParameter.set_Value@@2001011M 10025dfc f   System.Data.SQLite.netmodule
 0001:00024e44       ?System.Data.SQLite.SQLiteParameter.get_TypeName@@20000O 10025e44 f   System.Data.SQLite.netmodule
 0001:00024e58       ?System.Data.SQLite.SQLiteParameter.set_TypeName@@2001010O 10025e58 f   System.Data.SQLite.netmodule
 0001:00024e6c       ?System.Data.SQLite.SQLiteParameter.Clone@@20001M 10025e6c f   System.Data.SQLite.netmodule
 0001:00024e80       ?System.Data.SQLite.SQLiteParameterCollection..ctor@@2001011244 10025e80 f   System.Data.SQLite.netmodule
 0001:00024eac       ?System.Data.SQLite.SQLiteParameterCollection.get_IsSynchronized@@200002 10025eac f   System.Data.SQLite.netmodule
 0001:00024ebc       ?System.Data.SQLite.SQLiteParameterCollection.get_IsFixedSize@@200002 10025ebc f   System.Data.SQLite.netmodule
 0001:00024ecc       ?System.Data.SQLite.SQLiteParameterCollection.get_IsReadOnly@@200002 10025ecc f   System.Data.SQLite.netmodule
 0001:00024edc       ?System.Data.SQLite.SQLiteParameterCollection.get_SyncRoot@@20001M 10025edc f   System.Data.SQLite.netmodule
 0001:00024eec       ?System.Data.SQLite.SQLiteParameterCollection.GetEnumerator@@20001280O1 10025eec f   System.Data.SQLite.netmodule
 0001:00024f0c       ?System.Data.SQLite.SQLiteParameterCollection.Add@@20041281780O118185080O 10025f0c f   System.Data.SQLite.netmodule
 0001:00024f30       ?System.Data.SQLite.SQLiteParameterCollection.Add@@20031281780O11818508 10025f30 f   System.Data.SQLite.netmodule
 0001:00024f50       ?System.Data.SQLite.SQLiteParameterCollection.Add@@20021281780O118185 10025f50 f   System.Data.SQLite.netmodule
 0001:00024f70       ?System.Data.SQLite.SQLiteParameterCollection.Add@@200108128178 10025f70 f   System.Data.SQLite.netmodule
 0001:00024fc0       ?System.Data.SQLite.SQLiteParameterCollection.Add@@2001081M 10025fc0 f   System.Data.SQLite.netmodule
 0001:00024fdc       ?System.Data.SQLite.SQLiteParameterCollection.AddWithValue@@20021281780O1M 10025fdc f   System.Data.SQLite.netmodule
 0001:00024ffc       ?System.Data.SQLite.SQLiteParameterCollection.AddRange@@2001011N128178 10025ffc f   System.Data.SQLite.netmodule
 0001:00025024       ?System.Data.SQLite.SQLiteParameterCollection.AddRange@@20010112826N 10026024 f   System.Data.SQLite.netmodule
 0001:00025058       ?System.Data.SQLite.SQLiteParameterCollection.Clear@@200001 10026058 f   System.Data.SQLite.netmodule
 0001:00025078       ?System.Data.SQLite.SQLiteParameterCollection.Contains@@2001020O 10026078 f   System.Data.SQLite.netmodule
 0001:00025094       ?System.Data.SQLite.SQLiteParameterCollection.Contains@@2001021M 10026094 f   System.Data.SQLite.netmodule
 0001:000250b4       ?System.Data.SQLite.SQLiteParameterCollection.CopyTo@@20020112826N08 100260b4 f   System.Data.SQLite.netmodule
 0001:000250c8       ?System.Data.SQLite.SQLiteParameterCollection.get_Count@@200008 100260c8 f   System.Data.SQLite.netmodule
 0001:000250e0       ?System.Data.SQLite.SQLiteParameterCollection.get_Item@@20011281780O 100260e0 f   System.Data.SQLite.netmodule
 0001:000250fc       ?System.Data.SQLite.SQLiteParameterCollection.set_Item@@2002010O128178 100260fc f   System.Data.SQLite.netmodule
 0001:00025114       ?System.Data.SQLite.SQLiteParameterCollection.get_Item@@200112817808 10026114 f   System.Data.SQLite.netmodule
 0001:00025130       ?System.Data.SQLite.SQLiteParameterCollection.set_Item@@20020108128178 10026130 f   System.Data.SQLite.netmodule
 0001:00025148       ?System.Data.SQLite.SQLiteParameterCollection.GetParameter@@20011280P50O 10026148 f   System.Data.SQLite.netmodule
 0001:00025164       ?System.Data.SQLite.SQLiteParameterCollection.GetParameter@@20011280P508 10026164 f   System.Data.SQLite.netmodule
 0001:00025180       ?System.Data.SQLite.SQLiteParameterCollection.IndexOf@@2001080O 10026180 f   System.Data.SQLite.netmodule
 0001:000251c4       ?System.Data.SQLite.SQLiteParameterCollection.IndexOf@@2001081M 100261c4 f   System.Data.SQLite.netmodule
 0001:000251e4       ?System.Data.SQLite.SQLiteParameterCollection.Insert@@200201081M 100261e4 f   System.Data.SQLite.netmodule
 0001:0002520c       ?System.Data.SQLite.SQLiteParameterCollection.Remove@@2001011M 1002620c f   System.Data.SQLite.netmodule
 0001:00025234       ?System.Data.SQLite.SQLiteParameterCollection.RemoveAt@@2001010O 10026234 f   System.Data.SQLite.netmodule
 0001:00025250       ?System.Data.SQLite.SQLiteParameterCollection.RemoveAt@@20010108 10026250 f   System.Data.SQLite.netmodule
 0001:00025270       ?System.Data.SQLite.SQLiteParameterCollection.SetParameter@@2002010O1280P5 10026270 f   System.Data.SQLite.netmodule
 0001:0002528c       ?System.Data.SQLite.SQLiteParameterCollection.SetParameter@@200201081280P5 1002628c f   System.Data.SQLite.netmodule
 0001:000252b4       ?System.Data.SQLite.SQLiteParameterCollection.Unbind@@200001 100262b4 f   System.Data.SQLite.netmodule
 0001:000252c8       ?System.Data.SQLite.SQLiteParameterCollection.MapParameters@@200101128180 100262c8 f   System.Data.SQLite.netmodule
 0001:0002544c       ?System.Data.SQLite.SQLiteStatement..ctor@@2005011220112M1281K80O128180 1002644c f   System.Data.SQLite.netmodule
 0001:0002552c       ?System.Data.SQLite.SQLiteStatement.Dispose@@200001 1002652c f   System.Data.SQLite.netmodule
 0001:00025548       ?System.Data.SQLite.SQLiteStatement.CheckDisposed@@200001 10026548 f   System.Data.SQLite.netmodule
 0001:00025574       ?System.Data.SQLite.SQLiteStatement.Dispose@@20010102 10026574 f   System.Data.SQLite.netmodule
 0001:000255cc       ?System.Data.SQLite.SQLiteStatement.Finalize@@200001 100265cc f   System.Data.SQLite.netmodule
 0001:00025608       ?System.Data.SQLite.SQLiteStatement.TryGetChanges@@20020210081002 10026608 f   System.Data.SQLite.netmodule
 0001:00025648       ?System.Data.SQLite.SQLiteStatement.MapParameter@@2002020O128178 10026648 f   System.Data.SQLite.netmodule
 0001:000256d0       ?System.Data.SQLite.SQLiteStatement.BindParameters@@200001 100266d0 f   System.Data.SQLite.netmodule
 0001:0002570c       ?System.Data.SQLite.SQLiteStatement.GetConnection@@00011278128180 1002670c f   System.Data.SQLite.netmodule
 0001:00025758       ?System.Data.SQLite.SQLiteStatement.InvokeBindValueCallback@@200301081281781002 10026758 f   System.Data.SQLite.netmodule
 0001:00025874       ?System.Data.SQLite.SQLiteStatement.BindParameter@@20020108128178 10026874 f   System.Data.SQLite.netmodule
 0001:00025cdc       ?System.Data.SQLite.SQLiteStatement.get_TypeDefinitions@@20001N0O 10026cdc f   System.Data.SQLite.netmodule
 0001:00025cf0       ?System.Data.SQLite.SQLiteStatement.SetTypes@@2001010O 10026cf0 f   System.Data.SQLite.netmodule
 0001:00025db4       ?System.Data.SQLite.SQLiteTransaction..ctor@@200201127802 10026db4 f   System.Data.SQLite.netmodule
 0001:00025dcc       ?System.Data.SQLite.SQLiteTransaction.CheckDisposed@@200001 10026dcc f   System.Data.SQLite.netmodule
 0001:00025df8       ?System.Data.SQLite.SQLiteTransaction.Dispose@@20010102 10026df8 f   System.Data.SQLite.netmodule
 0001:00025e50       ?System.Data.SQLite.SQLiteTransaction.Commit@@200001 10026e50 f   System.Data.SQLite.netmodule
 0001:00025edc       ?System.Data.SQLite.SQLiteTransaction.Begin@@20010102 10026edc f   System.Data.SQLite.netmodule
 0001:00025f90       ?System.Data.SQLite.SQLiteTransaction.IssueRollback@@20010102 10026f90 f   System.Data.SQLite.netmodule
 0001:00026018       ?System.Data.SQLite.SQLiteTransaction2..ctor@@200201127802 10027018 f   System.Data.SQLite.netmodule
 0001:00026030       ?System.Data.SQLite.SQLiteTransaction2.CheckDisposed@@200001 10027030 f   System.Data.SQLite.netmodule
 0001:0002605c       ?System.Data.SQLite.SQLiteTransaction2.Dispose@@20010102 1002705c f   System.Data.SQLite.netmodule
 0001:000260b4       ?System.Data.SQLite.SQLiteTransaction2.Commit@@200001 100270b4 f   System.Data.SQLite.netmodule
 0001:000261b0       ?System.Data.SQLite.SQLiteTransaction2.Begin@@20010102 100271b0 f   System.Data.SQLite.netmodule
 0001:0002630c       ?System.Data.SQLite.SQLiteTransaction2.IssueRollback@@20010102 1002730c f   System.Data.SQLite.netmodule
 0001:00026430       ?System.Data.SQLite.SQLiteTransaction2.GetSavePointName@@20000O 10027430 f   System.Data.SQLite.netmodule
 0001:00026464       ?System.Data.SQLite.SQLiteTransactionBase..ctor@@200201127802 10027464 f   System.Data.SQLite.netmodule
 0001:000264ac       ?System.Data.SQLite.SQLiteTransactionBase.get_IsolationLevel@@2000118189 100274ac f   System.Data.SQLite.netmodule
 0001:000264c8       ?System.Data.SQLite.SQLiteTransactionBase.CheckDisposed@@200001 100274c8 f   System.Data.SQLite.netmodule
 0001:000264f4       ?System.Data.SQLite.SQLiteTransactionBase.Dispose@@20010102 100274f4 f   System.Data.SQLite.netmodule
 0001:0002654c       ?System.Data.SQLite.SQLiteTransactionBase.get_Connection@@20001278 1002754c f   System.Data.SQLite.netmodule
 0001:00026568       ?System.Data.SQLite.SQLiteTransactionBase.get_DbConnection@@20001280P9 10027568 f   System.Data.SQLite.netmodule
 0001:0002657c       ?System.Data.SQLite.SQLiteTransactionBase.Rollback@@200001 1002757c f   System.Data.SQLite.netmodule
 0001:000265a0       ?System.Data.SQLite.SQLiteTransactionBase.IsValid@@20010202 100275a0 f   System.Data.SQLite.netmodule
 0001:00026644       ?System.Data.SQLite.HelperMethods.GetProcessId@@000008 10027644 f   System.Data.SQLite.netmodule
 0001:00026664       ?System.Data.SQLite.HelperMethods.IsMono@@000002 10027664 f   System.Data.SQLite.netmodule
 0001:000266fc       ?System.Data.SQLite.HelperMethods.IsDotNetCore@@000002 100276fc f   System.Data.SQLite.netmodule
 0001:00026794       ?System.Data.SQLite.HelperMethods.ResetBreakIntoDebugger@@000001 10027794 f   System.Data.SQLite.netmodule
 0001:000267e4       ?System.Data.SQLite.HelperMethods.MaybeBreakIntoDebugger@@000001 100277e4 f   System.Data.SQLite.netmodule
 0001:000269c0       ?System.Data.SQLite.HelperMethods.GetThreadId@@000008 100279c0 f   System.Data.SQLite.netmodule
 0001:000269d4       ?System.Data.SQLite.HelperMethods.LogPrepare@@000102112M 100279d4 f   System.Data.SQLite.netmodule
 0001:000269ec       ?System.Data.SQLite.HelperMethods.LogPreBind@@000102112M 100279ec f   System.Data.SQLite.netmodule
 0001:00026a04       ?System.Data.SQLite.HelperMethods.LogBind@@000102112M 10027a04 f   System.Data.SQLite.netmodule
 0001:00026a1c       ?System.Data.SQLite.HelperMethods.LogCallbackExceptions@@000102112M 10027a1c f   System.Data.SQLite.netmodule
 0001:00026a34       ?System.Data.SQLite.HelperMethods.LogBackup@@000102112M 10027a34 f   System.Data.SQLite.netmodule
 0001:00026a50       ?System.Data.SQLite.HelperMethods.NoLogModule@@000102112M 10027a50 f   System.Data.SQLite.netmodule
 0001:00026a70       ?System.Data.SQLite.HelperMethods.LogModuleError@@000102112M 10027a70 f   System.Data.SQLite.netmodule
 0001:00026a90       ?System.Data.SQLite.HelperMethods.LogModuleException@@000102112M 10027a90 f   System.Data.SQLite.netmodule
 0001:00026ab0       ?System.Data.SQLite.HelperMethods.IsWindows@@000002 10027ab0 f   System.Data.SQLite.netmodule
 0001:00026adc       ?System.Data.SQLite.HelperMethods.StringFormat@@00030O1281O10O1N1M 10027adc f   System.Data.SQLite.netmodule
 0001:00026b00       ?System.Data.SQLite.HelperMethods.ToDisplayString@@00010O1M 10027b00 f   System.Data.SQLite.netmodule
 0001:00026b54       ?System.Data.SQLite.HelperMethods.ToDisplayString@@00010O12826N 10027b54 f   System.Data.SQLite.netmodule
 0001:00026c0c       ?System.Data.SQLite.HelperMethods..cctor@@000001 10027c0c f   System.Data.SQLite.netmodule
 0001:00026c70       ?System.Data.SQLite.NativeLibraryHelper.LoadLibraryWin32@@0001180O 10027c70 f   System.Data.SQLite.netmodule
 0001:00026c84       ?System.Data.SQLite.NativeLibraryHelper.GetMachineWin32@@00000O 10027c84 f   System.Data.SQLite.netmodule
 0001:00026cd0       ?System.Data.SQLite.NativeLibraryHelper.LoadLibraryPosix@@0001180O 10027cd0 f   System.Data.SQLite.netmodule
 0001:00026ce8       ?System.Data.SQLite.NativeLibraryHelper.GetMachinePosix@@00000O 10027ce8 f   System.Data.SQLite.netmodule
 0001:00026d30       ?System.Data.SQLite.NativeLibraryHelper.LoadLibrary@@0001180O 10027d30 f   System.Data.SQLite.netmodule
 0001:00026d68       ?System.Data.SQLite.NativeLibraryHelper.GetMachine@@00000O 10027d68 f   System.Data.SQLite.netmodule
 0001:00026d9c       ?System.Data.SQLite.UnsafeNativeMethodsPosix.GetOsVersionInfo@@000102101282K8 10027d9c f   System.Data.SQLite.netmodule
 0001:00026e88       ?System.Data.SQLite.UnsafeNativeMethodsPosix..cctor@@000001 10027e88 f   System.Data.SQLite.netmodule
 0001:00026ea0       ?System.Data.SQLite.UnsafeNativeMethods..cctor@@000001 10027ea0 f   System.Data.SQLite.netmodule
 0001:00026f14       ?System.Data.SQLite.UnsafeNativeMethods.Initialize@@000001 10027f14 f   System.Data.SQLite.netmodule
 0001:00026fd8       ?System.Data.SQLite.UnsafeNativeMethods.MaybeCombinePath@@00020O0O0O 10027fd8 f   System.Data.SQLite.netmodule
 0001:00026ffc       ?System.Data.SQLite.UnsafeNativeMethods.ResetCachedXmlConfigFileName@@000001 10027ffc f   System.Data.SQLite.netmodule
 0001:00027050       ?System.Data.SQLite.UnsafeNativeMethods.GetCachedXmlConfigFileName@@00000O 10028050 f   System.Data.SQLite.netmodule
 0001:000270b8       ?System.Data.SQLite.UnsafeNativeMethods.GetXmlConfigFileName@@00000O 100280b8 f   System.Data.SQLite.netmodule
 0001:000271b4       ?System.Data.SQLite.UnsafeNativeMethods.ReplaceXmlConfigFileTokens@@00020O0O0O 100281b4 f   System.Data.SQLite.netmodule
 0001:00027250       ?System.Data.SQLite.UnsafeNativeMethods.GetSettingValueViaXmlConfigFile@@00040O0O0O0O02 10028250 f   System.Data.SQLite.netmodule
 0001:00027348       ?System.Data.SQLite.UnsafeNativeMethods.GetAssemblyTargetFramework@@00010O12818N 10028348 f   System.Data.SQLite.netmodule
 0001:000273b8       ?System.Data.SQLite.UnsafeNativeMethods.AbbreviateTargetFramework@@00010O0O 100283b8 f   System.Data.SQLite.netmodule
 0001:0002740c       ?System.Data.SQLite.UnsafeNativeMethods.ReplaceEnvironmentVariableTokens@@00010O0O 1002840c f   System.Data.SQLite.netmodule
 0001:0002757c       ?System.Data.SQLite.UnsafeNativeMethods.GetSettingValue@@00020O0O0O 1002857c f   System.Data.SQLite.netmodule
 0001:00027614       ?System.Data.SQLite.UnsafeNativeMethods.ListToString@@00010O15128089010O 10028614 f   System.Data.SQLite.netmodule
 0001:00027690       ?System.Data.SQLite.UnsafeNativeMethods.CheckForArchitecturesAndPlatforms@@0002080O10151280NN010O 10028690 f   System.Data.SQLite.netmodule
 0001:0002778c       ?System.Data.SQLite.UnsafeNativeMethods.CheckAssemblyCodeBase@@00020212818N100O 1002878c f   System.Data.SQLite.netmodule
 0001:00027870       ?System.Data.SQLite.UnsafeNativeMethods.ResetCachedAssemblyDirectory@@000001 10028870 f   System.Data.SQLite.netmodule
 0001:000278c4       ?System.Data.SQLite.UnsafeNativeMethods.GetCachedAssemblyDirectory@@00000O 100288c4 f   System.Data.SQLite.netmodule
 0001:0002792c       ?System.Data.SQLite.UnsafeNativeMethods.GetAssemblyDirectory@@00000O 1002892c f   System.Data.SQLite.netmodule
 0001:00027b14       ?System.Data.SQLite.SQLiteConnectionHandle.op_Implicit@@0001181281K4 10028b14 f   System.Data.SQLite.netmodule
 0001:00027b30       ?System.Data.SQLite.SQLiteConnectionHandle..ctor@@2002011802 10028b30 f   System.Data.SQLite.netmodule
 0001:00027b54       ?System.Data.SQLite.SQLiteConnectionHandle..ctor@@20010102 10028b54 f   System.Data.SQLite.netmodule
 0001:00027b6c       ?System.Data.SQLite.SQLiteConnectionHandle.ReleaseHandle@@200002 10028b6c f   System.Data.SQLite.netmodule
 0001:00027bec       ?System.Data.SQLite.SQLiteConnectionHandle.get_OwnHandle@@200002 10028bec f   System.Data.SQLite.netmodule
 0001:00027c00       ?System.Data.SQLite.SQLiteConnectionHandle.get_IsInvalid@@200002 10028c00 f   System.Data.SQLite.netmodule
 0001:00027c20       ?System.Data.SQLite.SQLiteStatementHandle.op_Implicit@@0001181281K8 10028c20 f   System.Data.SQLite.netmodule
 0001:00027c3c       ?System.Data.SQLite.SQLiteStatementHandle..ctor@@2002011281K418 10028c3c f   System.Data.SQLite.netmodule
 0001:00027c60       ?System.Data.SQLite.SQLiteStatementHandle..ctor@@200001 10028c60 f   System.Data.SQLite.netmodule
 0001:00027c78       ?System.Data.SQLite.SQLiteStatementHandle.ReleaseHandle@@200002 10028c78 f   System.Data.SQLite.netmodule
 0001:00027cf4       ?System.Data.SQLite.SQLiteStatementHandle.get_IsInvalid@@200002 10028cf4 f   System.Data.SQLite.netmodule
 0001:00027d14       ?System.Data.SQLite.SQLiteBackupHandle.op_Implicit@@0001181281KM 10028d14 f   System.Data.SQLite.netmodule
 0001:00027d30       ?System.Data.SQLite.SQLiteBackupHandle..ctor@@2002011281K418 10028d30 f   System.Data.SQLite.netmodule
 0001:00027d54       ?System.Data.SQLite.SQLiteBackupHandle..ctor@@200001 10028d54 f   System.Data.SQLite.netmodule
 0001:00027d6c       ?System.Data.SQLite.SQLiteBackupHandle.ReleaseHandle@@200002 10028d6c f   System.Data.SQLite.netmodule
 0001:00027de8       ?System.Data.SQLite.SQLiteBackupHandle.get_IsInvalid@@200002 10028de8 f   System.Data.SQLite.netmodule
 0001:00027e08       ?System.Data.SQLite.SQLiteBlobHandle.op_Implicit@@0001181281L0 10028e08 f   System.Data.SQLite.netmodule
 0001:00027e24       ?System.Data.SQLite.SQLiteBlobHandle..ctor@@2002011281K418 10028e24 f   System.Data.SQLite.netmodule
 0001:00027e48       ?System.Data.SQLite.SQLiteBlobHandle..ctor@@200001 10028e48 f   System.Data.SQLite.netmodule
 0001:00027e60       ?System.Data.SQLite.SQLiteBlobHandle.ReleaseHandle@@200002 10028e60 f   System.Data.SQLite.netmodule
 0001:00027edc       ?System.Data.SQLite.SQLiteBlobHandle.get_IsInvalid@@200002 10028edc f   System.Data.SQLite.netmodule
 0001:00027efc       ?System.Data.SQLite.SR..ctor@@200001 10028efc f   System.Data.SQLite.netmodule
 0001:00027f10       ?System.Data.SQLite.SR.get_ResourceManager@@0000128289 10028f10 f   System.Data.SQLite.netmodule
 0001:00027f48       ?System.Data.SQLite.SR.get_Culture@@0000128205 10028f48 f   System.Data.SQLite.netmodule
 0001:00027f5c       ?System.Data.SQLite.SR.set_Culture@@000101128205 10028f5c f   System.Data.SQLite.netmodule
 0001:00027f70       ?System.Data.SQLite.SR.get_DataTypes@@00000O 10028f70 f   System.Data.SQLite.netmodule
 0001:00027f94       ?System.Data.SQLite.SR.get_Keywords@@00000O 10028f94 f   System.Data.SQLite.netmodule
 0001:00027fb8       ?System.Data.SQLite.SR.get_MetaDataCollections@@00000O 10028fb8 f   System.Data.SQLite.netmodule
 0001:00027fdc       ?System.Data.SQLite.SQLiteEnlistment..ctor@@20050112781281L11181890202 10028fdc f   System.Data.SQLite.netmodule
 0001:00028020       ?System.Data.SQLite.SQLiteEnlistment.GetSystemDataIsolationLevel@@200511818912781281L11181890202 10029020 f   System.Data.SQLite.netmodule
 0001:000280c8       ?System.Data.SQLite.SQLiteEnlistment.Cleanup@@2001011278 100290c8 f   System.Data.SQLite.netmodule
 0001:000280f4       ?System.Data.SQLite.SQLiteEnlistment.Dispose@@200001 100290f4 f   System.Data.SQLite.netmodule
 0001:00028110       ?System.Data.SQLite.SQLiteEnlistment.CheckDisposed@@200001 10029110 f   System.Data.SQLite.netmodule
 0001:0002813c       ?System.Data.SQLite.SQLiteEnlistment.Dispose@@20010102 1002913c f   System.Data.SQLite.netmodule
 0001:0002818c       ?System.Data.SQLite.SQLiteEnlistment.Finalize@@200001 1002918c f   System.Data.SQLite.netmodule
 0001:000281c8       ?System.Data.SQLite.SQLiteEnlistment.Commit@@200101128295 100291c8 f   System.Data.SQLite.netmodule
 0001:00028284       ?System.Data.SQLite.SQLiteEnlistment.InDoubt@@200101128295 10029284 f   System.Data.SQLite.netmodule
 0001:000282a0       ?System.Data.SQLite.SQLiteEnlistment.Prepare@@200101128299 100292a0 f   System.Data.SQLite.netmodule
 0001:000282d0       ?System.Data.SQLite.SQLiteEnlistment.Rollback@@200101128295 100292d0 f   System.Data.SQLite.netmodule
 0001:00028378       ?System.Data.SQLite.SQLiteContext..ctor@@20010118 10029378 f   System.Data.SQLite.netmodule
 0001:00028394       ?System.Data.SQLite.SQLiteContext.get_NativeHandle@@200018 10029394 f   System.Data.SQLite.netmodule
 0001:000283a8       ?System.Data.SQLite.SQLiteContext.SetNull@@200001 100293a8 f   System.Data.SQLite.netmodule
 0001:000283d8       ?System.Data.SQLite.SQLiteContext.SetDouble@@2001010N 100293d8 f   System.Data.SQLite.netmodule
 0001:0002840c       ?System.Data.SQLite.SQLiteContext.SetInt@@20010108 1002940c f   System.Data.SQLite.netmodule
 0001:00028440       ?System.Data.SQLite.SQLiteContext.SetInt64@@2001010K 10029440 f   System.Data.SQLite.netmodule
 0001:00028474       ?System.Data.SQLite.SQLiteContext.SetString@@2001010O 10029474 f   System.Data.SQLite.netmodule
 0001:000284c4       ?System.Data.SQLite.SQLiteContext.SetError@@2001010O 100294c4 f   System.Data.SQLite.netmodule
 0001:00028510       ?System.Data.SQLite.SQLiteContext.SetErrorCode@@200101118120 10029510 f   System.Data.SQLite.netmodule
 0001:00028544       ?System.Data.SQLite.SQLiteContext.SetErrorTooBig@@200001 10029544 f   System.Data.SQLite.netmodule
 0001:00028574       ?System.Data.SQLite.SQLiteContext.SetErrorNoMemory@@200001 10029574 f   System.Data.SQLite.netmodule
 0001:000285a4       ?System.Data.SQLite.SQLiteContext.SetBlob@@2001011N05 100295a4 f   System.Data.SQLite.netmodule
 0001:000285ec       ?System.Data.SQLite.SQLiteContext.SetZeroBlob@@20010108 100295ec f   System.Data.SQLite.netmodule
 0001:00028620       ?System.Data.SQLite.SQLiteContext.SetValue@@2001011281M4 10029620 f   System.Data.SQLite.netmodule
 0001:00028664       ?System.Data.SQLite.SQLiteValue..ctor@@20010118 10029664 f   System.Data.SQLite.netmodule
 0001:00028680       ?System.Data.SQLite.SQLiteValue.PreventNativeAccess@@200001 10029680 f   System.Data.SQLite.netmodule
 0001:00028698       ?System.Data.SQLite.SQLiteValue.FromIntPtr@@00011281M418 10029698 f   System.Data.SQLite.netmodule
 0001:000286bc       ?System.Data.SQLite.SQLiteValue.ArrayFromSizeAndIntPtr@@00021N1281M40818 100296bc f   System.Data.SQLite.netmodule
 0001:00028720       ?System.Data.SQLite.SQLiteValue.get_NativeHandle@@200018 10029720 f   System.Data.SQLite.netmodule
 0001:00028734       ?System.Data.SQLite.SQLiteValue.get_Persisted@@200002 10029734 f   System.Data.SQLite.netmodule
 0001:00028748       ?System.Data.SQLite.SQLiteValue.get_Value@@20001M 10029748 f   System.Data.SQLite.netmodule
 0001:00028770       ?System.Data.SQLite.SQLiteValue.GetTypeAffinity@@20001180NM 10029770 f   System.Data.SQLite.netmodule
 0001:000287a0       ?System.Data.SQLite.SQLiteValue.GetBytes@@200008 100297a0 f   System.Data.SQLite.netmodule
 0001:000287cc       ?System.Data.SQLite.SQLiteValue.GetInt@@200008 100297cc f   System.Data.SQLite.netmodule
 0001:000287f8       ?System.Data.SQLite.SQLiteValue.GetInt64@@20000K 100297f8 f   System.Data.SQLite.netmodule
 0001:00028828       ?System.Data.SQLite.SQLiteValue.GetDouble@@20000N 10029828 f   System.Data.SQLite.netmodule
 0001:0002885c       ?System.Data.SQLite.SQLiteValue.GetString@@20000O 1002985c f   System.Data.SQLite.netmodule
 0001:00028894       ?System.Data.SQLite.SQLiteValue.GetBlob@@20001N05 10029894 f   System.Data.SQLite.netmodule
 0001:000288cc       ?System.Data.SQLite.SQLiteValue.GetObject@@20001M 100298cc f   System.Data.SQLite.netmodule
 0001:00028934       ?System.Data.SQLite.SQLiteValue.Persist@@200002 10029934 f   System.Data.SQLite.netmodule
 0001:00028a24       ?System.Data.SQLite.SQLiteIndexConstraint..ctor@@200101118330 10029a24 f   System.Data.SQLite.netmodule
 0001:00028a50       ?System.Data.SQLite.SQLiteIndexConstraint..ctor@@200401081181M80508 10029a50 f   System.Data.SQLite.netmodule
 0001:00028a80       ?System.Data.SQLite.SQLiteIndexOrderBy..ctor@@200101118334 10029a80 f   System.Data.SQLite.netmodule
 0001:00028aa0       ?System.Data.SQLite.SQLiteIndexOrderBy..ctor@@2002010805 10029aa0 f   System.Data.SQLite.netmodule
 0001:00028ac4       ?System.Data.SQLite.SQLiteIndexConstraintUsage..ctor@@200001 10029ac4 f   System.Data.SQLite.netmodule
 0001:00028ad8       ?System.Data.SQLite.SQLiteIndexConstraintUsage..ctor@@200101118338 10029ad8 f   System.Data.SQLite.netmodule
 0001:00028af8       ?System.Data.SQLite.SQLiteIndexConstraintUsage..ctor@@2002010805 10029af8 f   System.Data.SQLite.netmodule
 0001:00028b1c       ?System.Data.SQLite.SQLiteIndexInputs..ctor@@2002010808 10029b1c f   System.Data.SQLite.netmodule
 0001:00028b48       ?System.Data.SQLite.SQLiteIndexInputs.get_Constraints@@20001N1281N0 10029b48 f   System.Data.SQLite.netmodule
 0001:00028b5c       ?System.Data.SQLite.SQLiteIndexInputs.get_OrderBys@@20001N1281N4 10029b5c f   System.Data.SQLite.netmodule
 0001:00028b70       ?System.Data.SQLite.SQLiteIndexOutputs..ctor@@20010108 10029b70 f   System.Data.SQLite.netmodule
 0001:00028ba8       ?System.Data.SQLite.SQLiteIndexOutputs.CanUseEstimatedRows@@200002 10029ba8 f   System.Data.SQLite.netmodule
 0001:00028bc4       ?System.Data.SQLite.SQLiteIndexOutputs.CanUseIndexFlags@@200002 10029bc4 f   System.Data.SQLite.netmodule
 0001:00028be0       ?System.Data.SQLite.SQLiteIndexOutputs.CanUseColumnsUsed@@200002 10029be0 f   System.Data.SQLite.netmodule
 0001:00028bfc       ?System.Data.SQLite.SQLiteIndexOutputs.get_ConstraintUsages@@20001N1281N8 10029bfc f   System.Data.SQLite.netmodule
 0001:00028c10       ?System.Data.SQLite.SQLiteIndexOutputs.get_IndexNumber@@200008 10029c10 f   System.Data.SQLite.netmodule
 0001:00028c24       ?System.Data.SQLite.SQLiteIndexOutputs.set_IndexNumber@@20010108 10029c24 f   System.Data.SQLite.netmodule
 0001:00028c38       ?System.Data.SQLite.SQLiteIndexOutputs.get_IndexString@@20000O 10029c38 f   System.Data.SQLite.netmodule
 0001:00028c4c       ?System.Data.SQLite.SQLiteIndexOutputs.set_IndexString@@2001010O 10029c4c f   System.Data.SQLite.netmodule
 0001:00028c60       ?System.Data.SQLite.SQLiteIndexOutputs.get_NeedToFreeIndexString@@200008 10029c60 f   System.Data.SQLite.netmodule
 0001:00028c74       ?System.Data.SQLite.SQLiteIndexOutputs.set_NeedToFreeIndexString@@20010108 10029c74 f   System.Data.SQLite.netmodule
 0001:00028c88       ?System.Data.SQLite.SQLiteIndexOutputs.get_OrderByConsumed@@200008 10029c88 f   System.Data.SQLite.netmodule
 0001:00028c9c       ?System.Data.SQLite.SQLiteIndexOutputs.set_OrderByConsumed@@20010108 10029c9c f   System.Data.SQLite.netmodule
 0001:00028cb0       ?System.Data.SQLite.SQLiteIndexOutputs.get_EstimatedCost@@2000151175010N 10029cb0 f   System.Data.SQLite.netmodule
 0001:00028cc4       ?System.Data.SQLite.SQLiteIndexOutputs.set_EstimatedCost@@200101151175010N 10029cc4 f   System.Data.SQLite.netmodule
 0001:00028cd8       ?System.Data.SQLite.SQLiteIndexOutputs.get_EstimatedRows@@2000151175010K 10029cd8 f   System.Data.SQLite.netmodule
 0001:00028cec       ?System.Data.SQLite.SQLiteIndexOutputs.set_EstimatedRows@@200101151175010K 10029cec f   System.Data.SQLite.netmodule
 0001:00028d00       ?System.Data.SQLite.SQLiteIndexOutputs.get_IndexFlags@@2000151175011181MM 10029d00 f   System.Data.SQLite.netmodule
 0001:00028d14       ?System.Data.SQLite.SQLiteIndexOutputs.set_IndexFlags@@200101151175011181MM 10029d14 f   System.Data.SQLite.netmodule
 0001:00028d28       ?System.Data.SQLite.SQLiteIndexOutputs.get_ColumnsUsed@@2000151175010K 10029d28 f   System.Data.SQLite.netmodule
 0001:00028d3c       ?System.Data.SQLite.SQLiteIndexOutputs.set_ColumnsUsed@@200101151175010K 10029d3c f   System.Data.SQLite.netmodule
 0001:00028d50       ?System.Data.SQLite.SQLiteIndex..ctor@@2002010808 10029d50 f   System.Data.SQLite.netmodule
 0001:00028d7c       ?System.Data.SQLite.SQLiteIndex.SizeOfNative@@0004011008100810081008 10029d7c f   System.Data.SQLite.netmodule
 0001:00028dd0       ?System.Data.SQLite.SQLiteIndex.AllocateAndInitializeNative@@0002180808 10029dd0 f   System.Data.SQLite.netmodule
 0001:00028f8c       ?System.Data.SQLite.SQLiteIndex.FreeNative@@00010118 10029f8c f   System.Data.SQLite.netmodule
 0001:00029084       ?System.Data.SQLite.SQLiteIndex.FromIntPtr@@0003011802101281O4 1002a084 f   System.Data.SQLite.netmodule
 0001:0002932c       ?System.Data.SQLite.SQLiteIndex.ToIntPtr@@0003011281O41802 1002a32c f   System.Data.SQLite.netmodule
 0001:0002962c       ?System.Data.SQLite.SQLiteIndex.get_Inputs@@20001281NM 1002a62c f   System.Data.SQLite.netmodule
 0001:00029640       ?System.Data.SQLite.SQLiteIndex.get_Outputs@@20001281O0 1002a640 f   System.Data.SQLite.netmodule
 0001:00029654       ?System.Data.SQLite.SQLiteVirtualTable..ctor@@2001011N0O 1002a654 f   System.Data.SQLite.netmodule
 0001:00029670       ?System.Data.SQLite.SQLiteVirtualTable.get_Arguments@@20001N0O 1002a670 f   System.Data.SQLite.netmodule
 0001:0002968c       ?System.Data.SQLite.SQLiteVirtualTable.get_ModuleName@@20000O 1002a68c f   System.Data.SQLite.netmodule
 0001:000296b4       ?System.Data.SQLite.SQLiteVirtualTable.get_DatabaseName@@20000O 1002a6b4 f   System.Data.SQLite.netmodule
 0001:000296dc       ?System.Data.SQLite.SQLiteVirtualTable.get_TableName@@20000O 1002a6dc f   System.Data.SQLite.netmodule
 0001:00029704       ?System.Data.SQLite.SQLiteVirtualTable.get_Index@@20001281O4 1002a704 f   System.Data.SQLite.netmodule
 0001:00029720       ?System.Data.SQLite.SQLiteVirtualTable.BestIndex@@2001021281O4 1002a720 f   System.Data.SQLite.netmodule
 0001:0002973c       ?System.Data.SQLite.SQLiteVirtualTable.Rename@@2001020O 1002a73c f   System.Data.SQLite.netmodule
 0001:00029770       ?System.Data.SQLite.SQLiteVirtualTable.get_NativeHandle@@200018 1002a770 f   System.Data.SQLite.netmodule
 0001:0002978c       ?System.Data.SQLite.SQLiteVirtualTable.set_NativeHandle@@20010118 1002a78c f   System.Data.SQLite.netmodule
 0001:000297a0       ?System.Data.SQLite.SQLiteVirtualTable.Dispose@@200001 1002a7a0 f   System.Data.SQLite.netmodule
 0001:000297bc       ?System.Data.SQLite.SQLiteVirtualTable.CheckDisposed@@200001 1002a7bc f   System.Data.SQLite.netmodule
 0001:000297e8       ?System.Data.SQLite.SQLiteVirtualTable.Dispose@@20010102 1002a7e8 f   System.Data.SQLite.netmodule
 0001:00029804       ?System.Data.SQLite.SQLiteVirtualTable.Finalize@@200001 1002a804 f   System.Data.SQLite.netmodule
 0001:00029840       ?System.Data.SQLite.SQLiteVirtualTableCursor..ctor@@2001011281O8 1002a840 f   System.Data.SQLite.netmodule
 0001:0002985c       ?System.Data.SQLite.SQLiteVirtualTableCursor..ctor@@200001 1002a85c f   System.Data.SQLite.netmodule
 0001:0002987c       ?System.Data.SQLite.SQLiteVirtualTableCursor.get_Table@@20001281O8 1002a87c f   System.Data.SQLite.netmodule
 0001:00029898       ?System.Data.SQLite.SQLiteVirtualTableCursor.get_IndexNumber@@200008 1002a898 f   System.Data.SQLite.netmodule
 0001:000298b4       ?System.Data.SQLite.SQLiteVirtualTableCursor.get_IndexString@@20000O 1002a8b4 f   System.Data.SQLite.netmodule
 0001:000298d0       ?System.Data.SQLite.SQLiteVirtualTableCursor.get_Values@@20001N1281M4 1002a8d0 f   System.Data.SQLite.netmodule
 0001:000298ec       ?System.Data.SQLite.SQLiteVirtualTableCursor.TryPersistValues@@2001081N1281M4 1002a8ec f   System.Data.SQLite.netmodule
 0001:00029924       ?System.Data.SQLite.SQLiteVirtualTableCursor.Filter@@200301080O1N1281M4 1002a924 f   System.Data.SQLite.netmodule
 0001:00029968       ?System.Data.SQLite.SQLiteVirtualTableCursor.GetRowIndex@@200008 1002a968 f   System.Data.SQLite.netmodule
 0001:0002997c       ?System.Data.SQLite.SQLiteVirtualTableCursor.NextRowIndex@@200001 1002a97c f   System.Data.SQLite.netmodule
 0001:00029998       ?System.Data.SQLite.SQLiteVirtualTableCursor.get_NativeHandle@@200018 1002a998 f   System.Data.SQLite.netmodule
 0001:000299b4       ?System.Data.SQLite.SQLiteVirtualTableCursor.set_NativeHandle@@20010118 1002a9b4 f   System.Data.SQLite.netmodule
 0001:000299c8       ?System.Data.SQLite.SQLiteVirtualTableCursor.Dispose@@200001 1002a9c8 f   System.Data.SQLite.netmodule
 0001:000299e4       ?System.Data.SQLite.SQLiteVirtualTableCursor.CheckDisposed@@200001 1002a9e4 f   System.Data.SQLite.netmodule
 0001:00029a10       ?System.Data.SQLite.SQLiteVirtualTableCursor.Dispose@@20010102 1002aa10 f   System.Data.SQLite.netmodule
 0001:00029a2c       ?System.Data.SQLite.SQLiteVirtualTableCursor.Finalize@@200001 1002aa2c f   System.Data.SQLite.netmodule
 0001:00029a68       ?System.Data.SQLite.SQLiteVirtualTableCursor..cctor@@000001 1002aa68 f   System.Data.SQLite.netmodule
 0001:00029a78       ?System.Data.SQLite.SQLiteMemory.CanUseSize64@@000002 1002aa78 f   System.Data.SQLite.netmodule
 0001:00029a94       ?System.Data.SQLite.SQLiteMemory.Allocate@@00011808 1002aa94 f   System.Data.SQLite.netmodule
 0001:00029aa8       ?System.Data.SQLite.SQLiteMemory.Allocate64@@0001180L 1002aaa8 f   System.Data.SQLite.netmodule
 0001:00029abc       ?System.Data.SQLite.SQLiteMemory.AllocateUntracked@@00011808 1002aabc f   System.Data.SQLite.netmodule
 0001:00029ad0       ?System.Data.SQLite.SQLiteMemory.Allocate64Untracked@@0001180L 1002aad0 f   System.Data.SQLite.netmodule
 0001:00029ae4       ?System.Data.SQLite.SQLiteMemory.Size@@00010818 1002aae4 f   System.Data.SQLite.netmodule
 0001:00029af8       ?System.Data.SQLite.SQLiteMemory.Size64@@00010L18 1002aaf8 f   System.Data.SQLite.netmodule
 0001:00029b0c       ?System.Data.SQLite.SQLiteMemory.Free@@00010118 1002ab0c f   System.Data.SQLite.netmodule
 0001:00029b20       ?System.Data.SQLite.SQLiteMemory.FreeUntracked@@00010118 1002ab20 f   System.Data.SQLite.netmodule
 0001:00029b34       ?System.Data.SQLite.SQLiteString.GetUtf8BytesFromString@@00011N050O 1002ab34 f   System.Data.SQLite.netmodule
 0001:00029b54       ?System.Data.SQLite.SQLiteString.GetStringFromUtf8Bytes@@00010O1N05 1002ab54 f   System.Data.SQLite.netmodule
 0001:00029b74       ?System.Data.SQLite.SQLiteString.ProbeForUtf8ByteLength@@0002081808 1002ab74 f   System.Data.SQLite.netmodule
 0001:00029ba8       ?System.Data.SQLite.SQLiteString.StringFromUtf8IntPtr@@00010O18 1002aba8 f   System.Data.SQLite.netmodule
 0001:00029bc8       ?System.Data.SQLite.SQLiteString.StringFromUtf8IntPtr@@00020O1808 1002abc8 f   System.Data.SQLite.netmodule
 0001:00029c04       ?System.Data.SQLite.SQLiteString.Utf8IntPtrFromString@@0001180O 1002ac04 f   System.Data.SQLite.netmodule
 0001:00029c18       ?System.Data.SQLite.SQLiteString.Utf8IntPtrFromString@@0002180O02 1002ac18 f   System.Data.SQLite.netmodule
 0001:00029c30       ?System.Data.SQLite.SQLiteString.Utf8IntPtrFromString@@0002180O1008 1002ac30 f   System.Data.SQLite.netmodule
 0001:00029c48       ?System.Data.SQLite.SQLiteString.Utf8IntPtrFromString@@0003180O021008 1002ac48 f   System.Data.SQLite.netmodule
 0001:00029cbc       ?System.Data.SQLite.SQLiteString.StringArrayFromUtf8SizeAndIntPtr@@00021N0O0818 1002acbc f   System.Data.SQLite.netmodule
 0001:00029d20       ?System.Data.SQLite.SQLiteString.Utf8IntPtrArrayFromStringArray@@00021N181N0O02 1002ad20 f   System.Data.SQLite.netmodule
 0001:00029d58       ?System.Data.SQLite.SQLiteString..cctor@@000001 1002ad58 f   System.Data.SQLite.netmodule
 0001:00029d7c       ?System.Data.SQLite.SQLiteBytes.FromIntPtr@@00021N051808 1002ad7c f   System.Data.SQLite.netmodule
 0001:00029db4       ?System.Data.SQLite.SQLiteBytes.ToIntPtr@@0001181N05 1002adb4 f   System.Data.SQLite.netmodule
 0001:00029dcc       ?System.Data.SQLite.SQLiteBytes.ToIntPtr@@0002181N051008 1002adcc f   System.Data.SQLite.netmodule
 0001:00029e18       ?System.Data.SQLite.SQLiteMarshal.IntPtrForOffset@@0002181808 1002ae18 f   System.Data.SQLite.netmodule
 0001:00029e34       ?System.Data.SQLite.SQLiteMarshal.RoundUp@@0002080808 1002ae34 f   System.Data.SQLite.netmodule
 0001:00029e4c       ?System.Data.SQLite.SQLiteMarshal.NextOffsetOf@@000308080808 1002ae4c f   System.Data.SQLite.netmodule
 0001:00029e64       ?System.Data.SQLite.SQLiteMarshal.ReadInt32@@0002081808 1002ae64 f   System.Data.SQLite.netmodule
 0001:00029e78       ?System.Data.SQLite.SQLiteMarshal.ReadInt64@@00020K1808 1002ae78 f   System.Data.SQLite.netmodule
 0001:00029e8c       ?System.Data.SQLite.SQLiteMarshal.ReadDouble@@00020N1808 1002ae8c f   System.Data.SQLite.netmodule
 0001:00029ea8       ?System.Data.SQLite.SQLiteMarshal.ReadIntPtr@@0002181808 1002aea8 f   System.Data.SQLite.netmodule
 0001:00029ebc       ?System.Data.SQLite.SQLiteMarshal.WriteInt32@@000301180808 1002aebc f   System.Data.SQLite.netmodule
 0001:00029ed4       ?System.Data.SQLite.SQLiteMarshal.WriteInt64@@00030118080K 1002aed4 f   System.Data.SQLite.netmodule
 0001:00029eec       ?System.Data.SQLite.SQLiteMarshal.WriteDouble@@00030118080N 1002aeec f   System.Data.SQLite.netmodule
 0001:00029f08       ?System.Data.SQLite.SQLiteMarshal.WriteIntPtr@@000301180818 1002af08 f   System.Data.SQLite.netmodule
 0001:00029f20       ?System.Data.SQLite.SQLiteMarshal.GetHashCode@@0002081M02 1002af20 f   System.Data.SQLite.netmodule
 0001:00029f44       ?System.Data.SQLite.SQLiteModule..ctor@@2001010O 1002af44 f   System.Data.SQLite.netmodule
 0001:00029f90       ?System.Data.SQLite.SQLiteModule.CreateDisposableModule@@20010218 1002af90 f   System.Data.SQLite.netmodule
 0001:0002a040       ?System.Data.SQLite.SQLiteModule.xDestroyModule@@20010118 1002b040 f   System.Data.SQLite.netmodule
 0001:0002a058       ?System.Data.SQLite.SQLiteModule.AllocateNativeModule@@2000118324 1002b058 f   System.Data.SQLite.netmodule
 0001:0002a074       ?System.Data.SQLite.SQLiteModule.AllocateNativeModule@@20011183241281LM 1002b074 f   System.Data.SQLite.netmodule
 0001:0002a4b8       ?System.Data.SQLite.SQLiteModule.CopyNativeModule@@2001118324118324 1002b4b8 f   System.Data.SQLite.netmodule
 0001:0002a8d0       ?System.Data.SQLite.SQLiteModule.CreateOrConnect@@2007118120021818081810181018 1002b8d0 f   System.Data.SQLite.netmodule
 0001:0002a9b4       ?System.Data.SQLite.SQLiteModule.DestroyOrDisconnect@@20021181200218 1002b9b4 f   System.Data.SQLite.netmodule
 0001:0002aaa0       ?System.Data.SQLite.SQLiteModule.SetTableError@@0005021282081802020O 1002baa0 f   System.Data.SQLite.netmodule
 0001:0002ac18       ?System.Data.SQLite.SQLiteModule.SetTableError@@0005021282081281O802020O 1002bc18 f   System.Data.SQLite.netmodule
 0001:0002ac4c       ?System.Data.SQLite.SQLiteModule.SetCursorError@@0005021282081802020O 1002bc4c f   System.Data.SQLite.netmodule
 0001:0002ac8c       ?System.Data.SQLite.SQLiteModule.SetCursorError@@0005021282081281OM02020O 1002bc8c f   System.Data.SQLite.netmodule
 0001:0002acc0       ?System.Data.SQLite.SQLiteModule.GetNativeModuleImpl@@20001281LM 1002bcc0 f   System.Data.SQLite.netmodule
 0001:0002acd0       ?System.Data.SQLite.SQLiteModule.CreateNativeModuleImpl@@20001281LM 1002bcd0 f   System.Data.SQLite.netmodule
 0001:0002ace4       ?System.Data.SQLite.SQLiteModule.AllocateTable@@200018 1002bce4 f   System.Data.SQLite.netmodule
 0001:0002ad08       ?System.Data.SQLite.SQLiteModule.ZeroTable@@20010118 1002bd08 f   System.Data.SQLite.netmodule
 0001:0002ad60       ?System.Data.SQLite.SQLiteModule.FreeTable@@20010118 1002bd60 f   System.Data.SQLite.netmodule
 0001:0002ad7c       ?System.Data.SQLite.SQLiteModule.AllocateCursor@@200018 1002bd7c f   System.Data.SQLite.netmodule
 0001:0002ada0       ?System.Data.SQLite.SQLiteModule.FreeCursor@@20010118 1002bda0 f   System.Data.SQLite.netmodule
 0001:0002adb4       ?System.Data.SQLite.SQLiteModule.TableFromCursor@@00021812820818 1002bdb4 f   System.Data.SQLite.netmodule
 0001:0002addc       ?System.Data.SQLite.SQLiteModule.TableFromCursor@@20011818 1002bddc f   System.Data.SQLite.netmodule
 0001:0002adf0       ?System.Data.SQLite.SQLiteModule.TableFromIntPtr@@20011281O818 1002bdf0 f   System.Data.SQLite.netmodule
 0001:0002ae5c       ?System.Data.SQLite.SQLiteModule.TableToIntPtr@@2001181281O8 1002be5c f   System.Data.SQLite.netmodule
 0001:0002aef0       ?System.Data.SQLite.SQLiteModule.CursorFromIntPtr@@20021281OM1818 1002bef0 f   System.Data.SQLite.netmodule
 0001:0002af5c       ?System.Data.SQLite.SQLiteModule.CursorToIntPtr@@2001181281OM 1002bf5c f   System.Data.SQLite.netmodule
 0001:0002afec       ?System.Data.SQLite.SQLiteModule.GetFunctionKey@@20030O080O128128 1002bfec f   System.Data.SQLite.netmodule
 0001:0002b01c       ?System.Data.SQLite.SQLiteModule.DeclareTable@@200311812012780O100O 1002c01c f   System.Data.SQLite.netmodule
 0001:0002b060       ?System.Data.SQLite.SQLiteModule.DeclareFunction@@20041181201278080O100O 1002c060 f   System.Data.SQLite.netmodule
 0001:0002b09c       ?System.Data.SQLite.SQLiteModule.get_LogErrorsNoThrow@@200002 1002c09c f   System.Data.SQLite.netmodule
 0001:0002b0b0       ?System.Data.SQLite.SQLiteModule.set_LogErrorsNoThrow@@20010102 1002c0b0 f   System.Data.SQLite.netmodule
 0001:0002b0c4       ?System.Data.SQLite.SQLiteModule.get_LogExceptionsNoThrow@@200002 1002c0c4 f   System.Data.SQLite.netmodule
 0001:0002b0d8       ?System.Data.SQLite.SQLiteModule.set_LogExceptionsNoThrow@@20010102 1002c0d8 f   System.Data.SQLite.netmodule
 0001:0002b0ec       ?System.Data.SQLite.SQLiteModule.SetTableError@@200202180O 1002c0ec f   System.Data.SQLite.netmodule
 0001:0002b110       ?System.Data.SQLite.SQLiteModule.SetTableError@@2002021281O80O 1002c110 f   System.Data.SQLite.netmodule
 0001:0002b134       ?System.Data.SQLite.SQLiteModule.SetCursorError@@2002021281OM0O 1002c134 f   System.Data.SQLite.netmodule
 0001:0002b158       ?System.Data.SQLite.SQLiteModule.SetEstimatedCost@@2002021281O4151175010N 1002c158 f   System.Data.SQLite.netmodule
 0001:0002b180       ?System.Data.SQLite.SQLiteModule.SetEstimatedCost@@2001021281O4 1002c180 f   System.Data.SQLite.netmodule
 0001:0002b1a0       ?System.Data.SQLite.SQLiteModule.SetEstimatedRows@@2002021281O4151175010K 1002c1a0 f   System.Data.SQLite.netmodule
 0001:0002b1c8       ?System.Data.SQLite.SQLiteModule.SetEstimatedRows@@2001021281O4 1002c1c8 f   System.Data.SQLite.netmodule
 0001:0002b1e8       ?System.Data.SQLite.SQLiteModule.SetIndexFlags@@2002021281O4151175011181MM 1002c1e8 f   System.Data.SQLite.netmodule
 0001:0002b210       ?System.Data.SQLite.SQLiteModule.SetIndexFlags@@2001021281O4 1002c210 f   System.Data.SQLite.netmodule
 0001:0002b230       ?System.Data.SQLite.SQLiteModule.get_LogErrors@@200002 1002c230 f   System.Data.SQLite.netmodule
 0001:0002b24c       ?System.Data.SQLite.SQLiteModule.set_LogErrors@@20010102 1002c24c f   System.Data.SQLite.netmodule
 0001:0002b268       ?System.Data.SQLite.SQLiteModule.get_LogExceptions@@200002 1002c268 f   System.Data.SQLite.netmodule
 0001:0002b284       ?System.Data.SQLite.SQLiteModule.set_LogExceptions@@20010102 1002c284 f   System.Data.SQLite.netmodule
 0001:0002b2a0       ?System.Data.SQLite.SQLiteModule.xCreate@@20061181201818081810181018 1002c2a0 f   System.Data.SQLite.netmodule
 0001:0002b2c0       ?System.Data.SQLite.SQLiteModule.xConnect@@20061181201818081810181018 1002c2c0 f   System.Data.SQLite.netmodule
 0001:0002b2e0       ?System.Data.SQLite.SQLiteModule.xBestIndex@@20021181201818 1002c2e0 f   System.Data.SQLite.netmodule
 0001:0002b34c       ?System.Data.SQLite.SQLiteModule.xDisconnect@@200111812018 1002c34c f   System.Data.SQLite.netmodule
 0001:0002b364       ?System.Data.SQLite.SQLiteModule.xDestroy@@200111812018 1002c364 f   System.Data.SQLite.netmodule
 0001:0002b37c       ?System.Data.SQLite.SQLiteModule.xOpen@@2002118120181018 1002c37c f   System.Data.SQLite.netmodule
 0001:0002b410       ?System.Data.SQLite.SQLiteModule.xClose@@200111812018 1002c410 f   System.Data.SQLite.netmodule
 0001:0002b4b0       ?System.Data.SQLite.SQLiteModule.xFilter@@20051181201808180818 1002c4b0 f   System.Data.SQLite.netmodule
 0001:0002b528       ?System.Data.SQLite.SQLiteModule.xNext@@200111812018 1002c528 f   System.Data.SQLite.netmodule
 0001:0002b590       ?System.Data.SQLite.SQLiteModule.xEof@@20010818 1002c590 f   System.Data.SQLite.netmodule
 0001:0002b5fc       ?System.Data.SQLite.SQLiteModule.xColumn@@2003118120181808 1002c5fc f   System.Data.SQLite.netmodule
 0001:0002b66c       ?System.Data.SQLite.SQLiteModule.xRowId@@200211812018100K 1002c66c f   System.Data.SQLite.netmodule
 0001:0002b6d0       ?System.Data.SQLite.SQLiteModule.xUpdate@@2004118120180818100K 1002c6d0 f   System.Data.SQLite.netmodule
 0001:0002b730       ?System.Data.SQLite.SQLiteModule.xBegin@@200111812018 1002c730 f   System.Data.SQLite.netmodule
 0001:0002b784       ?System.Data.SQLite.SQLiteModule.xSync@@200111812018 1002c784 f   System.Data.SQLite.netmodule
 0001:0002b7d8       ?System.Data.SQLite.SQLiteModule.xCommit@@200111812018 1002c7d8 f   System.Data.SQLite.netmodule
 0001:0002b82c       ?System.Data.SQLite.SQLiteModule.xRollback@@200111812018 1002c82c f   System.Data.SQLite.netmodule
 0001:0002b880       ?System.Data.SQLite.SQLiteModule.xFindFunction@@200508180818101281481018 1002c880 f   System.Data.SQLite.netmodule
 0001:0002b920       ?System.Data.SQLite.SQLiteModule.xRename@@20021181201818 1002c920 f   System.Data.SQLite.netmodule
 0001:0002b97c       ?System.Data.SQLite.SQLiteModule.xSavepoint@@20021181201808 1002c97c f   System.Data.SQLite.netmodule
 0001:0002b9d4       ?System.Data.SQLite.SQLiteModule.xRelease@@20021181201808 1002c9d4 f   System.Data.SQLite.netmodule
 0001:0002ba2c       ?System.Data.SQLite.SQLiteModule.xRollbackTo@@20021181201808 1002ca2c f   System.Data.SQLite.netmodule
 0001:0002ba84       ?System.Data.SQLite.SQLiteModule.get_Declared@@200002 1002ca84 f   System.Data.SQLite.netmodule
 0001:0002baa0       ?System.Data.SQLite.SQLiteModule.set_Declared@@20010102 1002caa0 f   System.Data.SQLite.netmodule
 0001:0002bab4       ?System.Data.SQLite.SQLiteModule.get_Name@@20000O 1002cab4 f   System.Data.SQLite.netmodule
 0001:0002bad0       ?System.Data.SQLite.SQLiteModule.Dispose@@200001 1002cad0 f   System.Data.SQLite.netmodule
 0001:0002baec       ?System.Data.SQLite.SQLiteModule.CheckDisposed@@200001 1002caec f   System.Data.SQLite.netmodule
 0001:0002bb18       ?System.Data.SQLite.SQLiteModule.Dispose@@20010102 1002cb18 f   System.Data.SQLite.netmodule
 0001:0002bbe8       ?System.Data.SQLite.SQLiteModule.Finalize@@200001 1002cbe8 f   System.Data.SQLite.netmodule
 0001:0002bc24       ?System.Data.SQLite.SQLiteModule..cctor@@000001 1002cc24 f   System.Data.SQLite.netmodule
 0001:0002bc38       ?System.Data.SQLite.SQLiteModuleCommon..ctor@@2001010O 1002cc38 f   System.Data.SQLite.netmodule
 0001:0002bc50       ?System.Data.SQLite.SQLiteModuleCommon..ctor@@2002010O02 1002cc50 f   System.Data.SQLite.netmodule
 0001:0002bc6c       ?System.Data.SQLite.SQLiteModuleCommon.GetSqlForDeclareTable@@20000O 1002cc6c f   System.Data.SQLite.netmodule
 0001:0002bc80       ?System.Data.SQLite.SQLiteModuleCommon.CursorTypeMismatchError@@20021181201281OM1280L5 1002cc80 f   System.Data.SQLite.netmodule
 0001:0002bcc8       ?System.Data.SQLite.SQLiteModuleCommon.GetStringFromObject@@20020O1281OM1M 1002ccc8 f   System.Data.SQLite.netmodule
 0001:0002bcf0       ?System.Data.SQLite.SQLiteModuleCommon.MakeRowId@@20020K0808 1002ccf0 f   System.Data.SQLite.netmodule
 0001:0002bd08       ?System.Data.SQLite.SQLiteModuleCommon.GetRowIdFromObject@@20020K1281OM1M 1002cd08 f   System.Data.SQLite.netmodule
 0001:0002bd38       ?System.Data.SQLite.SQLiteModuleCommon.CheckDisposed@@200001 1002cd38 f   System.Data.SQLite.netmodule
 0001:0002bd64       ?System.Data.SQLite.SQLiteModuleCommon.Dispose@@20010102 1002cd64 f   System.Data.SQLite.netmodule
 0001:0002bda8       ?System.Data.SQLite.SQLiteModuleCommon..cctor@@000001 1002cda8 f   System.Data.SQLite.netmodule
 0001:0002bde4       ?System.Data.SQLite.SQLiteVirtualTableCursorEnumerator..ctor@@2002011281O81280O1 1002cde4 f   System.Data.SQLite.netmodule
 0001:0002be08       ?System.Data.SQLite.SQLiteVirtualTableCursorEnumerator.MoveNext@@200002 1002ce08 f   System.Data.SQLite.netmodule
 0001:0002be58       ?System.Data.SQLite.SQLiteVirtualTableCursorEnumerator.get_Current@@20001M 1002ce58 f   System.Data.SQLite.netmodule
 0001:0002be88       ?System.Data.SQLite.SQLiteVirtualTableCursorEnumerator.Reset@@200001 1002ce88 f   System.Data.SQLite.netmodule
 0001:0002beb8       ?System.Data.SQLite.SQLiteVirtualTableCursorEnumerator.get_EndOfEnumerator@@200002 1002ceb8 f   System.Data.SQLite.netmodule
 0001:0002bed8       ?System.Data.SQLite.SQLiteVirtualTableCursorEnumerator.get_IsOpen@@200002 1002ced8 f   System.Data.SQLite.netmodule
 0001:0002bef4       ?System.Data.SQLite.SQLiteVirtualTableCursorEnumerator.Close@@200001 1002cef4 f   System.Data.SQLite.netmodule
 0001:0002bf10       ?System.Data.SQLite.SQLiteVirtualTableCursorEnumerator.CheckClosed@@200001 1002cf10 f   System.Data.SQLite.netmodule
 0001:0002bf38       ?System.Data.SQLite.SQLiteVirtualTableCursorEnumerator.CheckDisposed@@200001 1002cf38 f   System.Data.SQLite.netmodule
 0001:0002bf64       ?System.Data.SQLite.SQLiteVirtualTableCursorEnumerator.Dispose@@20010102 1002cf64 f   System.Data.SQLite.netmodule
 0001:0002bfac       ?System.Data.SQLite.SQLiteModuleEnumerable..ctor@@2002010O12829N 1002cfac f   System.Data.SQLite.netmodule
 0001:0002bfc4       ?System.Data.SQLite.SQLiteModuleEnumerable..ctor@@2003010O12829N02 1002cfc4 f   System.Data.SQLite.netmodule
 0001:0002bff4       ?System.Data.SQLite.SQLiteModuleEnumerable.CursorEndOfEnumeratorError@@20011181201281OM 1002cff4 f   System.Data.SQLite.netmodule
 0001:0002c010       ?System.Data.SQLite.SQLiteModuleEnumerable.Create@@20051181201278181N0O101281O8100O 1002d010 f   System.Data.SQLite.netmodule
 0001:0002c040       ?System.Data.SQLite.SQLiteModuleEnumerable.Connect@@20051181201278181N0O101281O8100O 1002d040 f   System.Data.SQLite.netmodule
 0001:0002c070       ?System.Data.SQLite.SQLiteModuleEnumerable.BestIndex@@20021181201281O81281O4 1002d070 f   System.Data.SQLite.netmodule
 0001:0002c0b8       ?System.Data.SQLite.SQLiteModuleEnumerable.Disconnect@@20011181201281O8 1002d0b8 f   System.Data.SQLite.netmodule
 0001:0002c0d4       ?System.Data.SQLite.SQLiteModuleEnumerable.Destroy@@20011181201281O8 1002d0d4 f   System.Data.SQLite.netmodule
 0001:0002c0f0       ?System.Data.SQLite.SQLiteModuleEnumerable.Open@@20021181201281O8101281OM 1002d0f0 f   System.Data.SQLite.netmodule
 0001:0002c118       ?System.Data.SQLite.SQLiteModuleEnumerable.Close@@20011181201281OM 1002d118 f   System.Data.SQLite.netmodule
 0001:0002c150       ?System.Data.SQLite.SQLiteModuleEnumerable.Filter@@20041181201281OM080O1N1281M4 1002d150 f   System.Data.SQLite.netmodule
 0001:0002c198       ?System.Data.SQLite.SQLiteModuleEnumerable.Next@@20011181201281OM 1002d198 f   System.Data.SQLite.netmodule
 0001:0002c1e0       ?System.Data.SQLite.SQLiteModuleEnumerable.Eof@@2001021281OM 1002d1e0 f   System.Data.SQLite.netmodule
 0001:0002c21c       ?System.Data.SQLite.SQLiteModuleEnumerable.Column@@20031181201281OM1281M008 1002d21c f   System.Data.SQLite.netmodule
 0001:0002c27c       ?System.Data.SQLite.SQLiteModuleEnumerable.RowId@@20021181201281OM100K 1002d27c f   System.Data.SQLite.netmodule
 0001:0002c2d0       ?System.Data.SQLite.SQLiteModuleEnumerable.Update@@20031181201281O81N1281M4100K 1002d2d0 f   System.Data.SQLite.netmodule
 0001:0002c30c       ?System.Data.SQLite.SQLiteModuleEnumerable.Rename@@20021181201281O80O 1002d30c f   System.Data.SQLite.netmodule
 0001:0002c358       ?System.Data.SQLite.SQLiteModuleEnumerable.CheckDisposed@@200001 1002d358 f   System.Data.SQLite.netmodule
 0001:0002c384       ?System.Data.SQLite.SQLiteModuleEnumerable.Dispose@@20010102 1002d384 f   System.Data.SQLite.netmodule
 0001:0002c3c8       ?System.Data.SQLite.SQLiteModuleNoop..ctor@@2001010O 1002d3c8 f   System.Data.SQLite.netmodule
 0001:0002c3e8       ?System.Data.SQLite.SQLiteModuleNoop.GetDefaultResultCode@@2000118120 1002d3e8 f   System.Data.SQLite.netmodule
 0001:0002c3f8       ?System.Data.SQLite.SQLiteModuleNoop.ResultCodeToEofResult@@200102118120 1002d3f8 f   System.Data.SQLite.netmodule
 0001:0002c40c       ?System.Data.SQLite.SQLiteModuleNoop.ResultCodeToFindFunctionResult@@200102118120 1002d40c f   System.Data.SQLite.netmodule
 0001:0002c420       ?System.Data.SQLite.SQLiteModuleNoop.GetMethodResultCode@@20011181200O 1002d420 f   System.Data.SQLite.netmodule
 0001:0002c460       ?System.Data.SQLite.SQLiteModuleNoop.SetMethodResultCode@@2002020O118120 1002d460 f   System.Data.SQLite.netmodule
 0001:0002c488       ?System.Data.SQLite.SQLiteModuleNoop.Create@@20051181201278181N0O101281O8100O 1002d488 f   System.Data.SQLite.netmodule
 0001:0002c4a8       ?System.Data.SQLite.SQLiteModuleNoop.Connect@@20051181201278181N0O101281O8100O 1002d4a8 f   System.Data.SQLite.netmodule
 0001:0002c4c8       ?System.Data.SQLite.SQLiteModuleNoop.BestIndex@@20021181201281O81281O4 1002d4c8 f   System.Data.SQLite.netmodule
 0001:0002c4e8       ?System.Data.SQLite.SQLiteModuleNoop.Disconnect@@20011181201281O8 1002d4e8 f   System.Data.SQLite.netmodule
 0001:0002c508       ?System.Data.SQLite.SQLiteModuleNoop.Destroy@@20011181201281O8 1002d508 f   System.Data.SQLite.netmodule
 0001:0002c528       ?System.Data.SQLite.SQLiteModuleNoop.Open@@20021181201281O8101281OM 1002d528 f   System.Data.SQLite.netmodule
 0001:0002c548       ?System.Data.SQLite.SQLiteModuleNoop.Close@@20011181201281OM 1002d548 f   System.Data.SQLite.netmodule
 0001:0002c568       ?System.Data.SQLite.SQLiteModuleNoop.Filter@@20041181201281OM080O1N1281M4 1002d568 f   System.Data.SQLite.netmodule
 0001:0002c588       ?System.Data.SQLite.SQLiteModuleNoop.Next@@20011181201281OM 1002d588 f   System.Data.SQLite.netmodule
 0001:0002c5a8       ?System.Data.SQLite.SQLiteModuleNoop.Eof@@2001021281OM 1002d5a8 f   System.Data.SQLite.netmodule
 0001:0002c5cc       ?System.Data.SQLite.SQLiteModuleNoop.Column@@20031181201281OM1281M008 1002d5cc f   System.Data.SQLite.netmodule
 0001:0002c5ec       ?System.Data.SQLite.SQLiteModuleNoop.RowId@@20021181201281OM100K 1002d5ec f   System.Data.SQLite.netmodule
 0001:0002c60c       ?System.Data.SQLite.SQLiteModuleNoop.Update@@20031181201281O81N1281M4100K 1002d60c f   System.Data.SQLite.netmodule
 0001:0002c62c       ?System.Data.SQLite.SQLiteModuleNoop.Begin@@20011181201281O8 1002d62c f   System.Data.SQLite.netmodule
 0001:0002c64c       ?System.Data.SQLite.SQLiteModuleNoop.Sync@@20011181201281O8 1002d64c f   System.Data.SQLite.netmodule
 0001:0002c66c       ?System.Data.SQLite.SQLiteModuleNoop.Commit@@20011181201281O8 1002d66c f   System.Data.SQLite.netmodule
 0001:0002c68c       ?System.Data.SQLite.SQLiteModuleNoop.Rollback@@20011181201281O8 1002d68c f   System.Data.SQLite.netmodule
 0001:0002c6ac       ?System.Data.SQLite.SQLiteModuleNoop.FindFunction@@2005021281O8080O101281281018 1002d6ac f   System.Data.SQLite.netmodule
 0001:0002c6d0       ?System.Data.SQLite.SQLiteModuleNoop.Rename@@20021181201281O80O 1002d6d0 f   System.Data.SQLite.netmodule
 0001:0002c6f0       ?System.Data.SQLite.SQLiteModuleNoop.Savepoint@@20021181201281O808 1002d6f0 f   System.Data.SQLite.netmodule
 0001:0002c710       ?System.Data.SQLite.SQLiteModuleNoop.Release@@20021181201281O808 1002d710 f   System.Data.SQLite.netmodule
 0001:0002c730       ?System.Data.SQLite.SQLiteModuleNoop.RollbackTo@@20021181201281O808 1002d730 f   System.Data.SQLite.netmodule
 0001:0002c750       ?System.Data.SQLite.SQLiteModuleNoop.CheckDisposed@@200001 1002d750 f   System.Data.SQLite.netmodule
 0001:0002c77c       ?System.Data.SQLite.SQLiteModuleNoop.Dispose@@20010102 1002d77c f   System.Data.SQLite.netmodule
 0001:0002c7c0       ?System.Data.SQLite.SQLiteSessionHelpers.CheckRawData@@0001011N05 1002d7c0 f   System.Data.SQLite.netmodule
 0001:0002c7f0       ?System.Data.SQLite.SQLiteConnectionLock..ctor@@2003011281K4112M02 1002d7f0 f   System.Data.SQLite.netmodule
 0001:0002c81c       ?System.Data.SQLite.SQLiteConnectionLock.GetHandle@@20001281K4 1002d81c f   System.Data.SQLite.netmodule
 0001:0002c830       ?System.Data.SQLite.SQLiteConnectionLock.GetFlags@@2000112M 1002d830 f   System.Data.SQLite.netmodule
 0001:0002c844       ?System.Data.SQLite.SQLiteConnectionLock.GetIntPtr@@200018 1002d844 f   System.Data.SQLite.netmodule
 0001:0002c888       ?System.Data.SQLite.SQLiteConnectionLock.Lock@@200001 1002d888 f   System.Data.SQLite.netmodule
 0001:0002c930       ?System.Data.SQLite.SQLiteConnectionLock.Unlock@@200001 1002d930 f   System.Data.SQLite.netmodule
 0001:0002c980       ?System.Data.SQLite.SQLiteConnectionLock.Dispose@@200001 1002d980 f   System.Data.SQLite.netmodule
 0001:0002c99c       ?System.Data.SQLite.SQLiteConnectionLock.CheckDisposed@@200001 1002d99c f   System.Data.SQLite.netmodule
 0001:0002c9c8       ?System.Data.SQLite.SQLiteConnectionLock.Dispose@@20010102 1002d9c8 f   System.Data.SQLite.netmodule
 0001:0002ca7c       ?System.Data.SQLite.SQLiteConnectionLock.Finalize@@200001 1002da7c f   System.Data.SQLite.netmodule
 0001:0002cab8       ?System.Data.SQLite.SQLiteChangeSetIterator..ctor@@2002011802 1002dab8 f   System.Data.SQLite.netmodule
 0001:0002cadc       ?System.Data.SQLite.SQLiteChangeSetIterator.CheckHandle@@200001 1002dadc f   System.Data.SQLite.netmodule
 0001:0002cb08       ?System.Data.SQLite.SQLiteChangeSetIterator.GetIntPtr@@200018 1002db08 f   System.Data.SQLite.netmodule
 0001:0002cb1c       ?System.Data.SQLite.SQLiteChangeSetIterator.Next@@200002 1002db1c f   System.Data.SQLite.netmodule
 0001:0002cb6c       ?System.Data.SQLite.SQLiteChangeSetIterator.Attach@@000112824418 1002db6c f   System.Data.SQLite.netmodule
 0001:0002cb80       ?System.Data.SQLite.SQLiteChangeSetIterator.Dispose@@200001 1002db80 f   System.Data.SQLite.netmodule
 0001:0002cb9c       ?System.Data.SQLite.SQLiteChangeSetIterator.CheckDisposed@@200001 1002db9c f   System.Data.SQLite.netmodule
 0001:0002cbc8       ?System.Data.SQLite.SQLiteChangeSetIterator.Dispose@@20010102 1002dbc8 f   System.Data.SQLite.netmodule
 0001:0002cc34       ?System.Data.SQLite.SQLiteChangeSetIterator.Finalize@@200001 1002dc34 f   System.Data.SQLite.netmodule
 0001:0002cc70       ?System.Data.SQLite.SQLiteMemoryChangeSetIterator..ctor@@200301181802 1002dc70 f   System.Data.SQLite.netmodule
 0001:0002cc8c       ?System.Data.SQLite.SQLiteMemoryChangeSetIterator.Create@@00011282481N05 1002dc8c f   System.Data.SQLite.netmodule
 0001:0002cd48       ?System.Data.SQLite.SQLiteMemoryChangeSetIterator.CheckDisposed@@200001 1002dd48 f   System.Data.SQLite.netmodule
 0001:0002cd74       ?System.Data.SQLite.SQLiteMemoryChangeSetIterator.Dispose@@20010102 1002dd74 f   System.Data.SQLite.netmodule
 0001:0002cde0       ?System.Data.SQLite.SQLiteStreamChangeSetIterator..ctor@@2003011282501802 1002dde0 f   System.Data.SQLite.netmodule
 0001:0002cdfc       ?System.Data.SQLite.SQLiteStreamChangeSetIterator.Create@@000212824M1281K9112M 1002ddfc f   System.Data.SQLite.netmodule
 0001:0002ce9c       ?System.Data.SQLite.SQLiteStreamChangeSetIterator.CheckDisposed@@200001 1002de9c f   System.Data.SQLite.netmodule
 0001:0002cec8       ?System.Data.SQLite.SQLiteStreamChangeSetIterator.Dispose@@20010102 1002dec8 f   System.Data.SQLite.netmodule
 0001:0002cf0c       ?System.Data.SQLite.SQLiteStreamAdapter..ctor@@2002011281K9112M 1002df0c f   System.Data.SQLite.netmodule
 0001:0002cf30       ?System.Data.SQLite.SQLiteStreamAdapter.GetFlags@@2000112M 1002df30 f   System.Data.SQLite.netmodule
 0001:0002cf44       ?System.Data.SQLite.SQLiteStreamAdapter.GetInputDelegate@@20001282M0 1002df44 f   System.Data.SQLite.netmodule
 0001:0002cf78       ?System.Data.SQLite.SQLiteStreamAdapter.GetOutputDelegate@@20001282M4 1002df78 f   System.Data.SQLite.netmodule
 0001:0002cfac       ?System.Data.SQLite.SQLiteStreamAdapter.Input@@200311812018181008 1002dfac f   System.Data.SQLite.netmodule
 0001:0002d084       ?System.Data.SQLite.SQLiteStreamAdapter.Output@@2003118120181808 1002e084 f   System.Data.SQLite.netmodule
 0001:0002d154       ?System.Data.SQLite.SQLiteStreamAdapter.Dispose@@200001 1002e154 f   System.Data.SQLite.netmodule
 0001:0002d170       ?System.Data.SQLite.SQLiteStreamAdapter.CheckDisposed@@200001 1002e170 f   System.Data.SQLite.netmodule
 0001:0002d19c       ?System.Data.SQLite.SQLiteStreamAdapter.Dispose@@20010102 1002e19c f   System.Data.SQLite.netmodule
 0001:0002d208       ?System.Data.SQLite.SQLiteStreamAdapter.Finalize@@200001 1002e208 f   System.Data.SQLite.netmodule
 0001:0002d244       ?System.Data.SQLite.SQLiteSessionStreamManager..ctor@@200101112M 1002e244 f   System.Data.SQLite.netmodule
 0001:0002d264       ?System.Data.SQLite.SQLiteSessionStreamManager.InitializeStreamAdapters@@200001 1002e264 f   System.Data.SQLite.netmodule
 0001:0002d288       ?System.Data.SQLite.SQLiteSessionStreamManager.DisposeStreamAdapters@@200001 1002e288 f   System.Data.SQLite.netmodule
 0001:0002d30c       ?System.Data.SQLite.SQLiteSessionStreamManager.GetAdapter@@20011282501281K9 1002e30c f   System.Data.SQLite.netmodule
 0001:0002d354       ?System.Data.SQLite.SQLiteSessionStreamManager.Dispose@@200001 1002e354 f   System.Data.SQLite.netmodule
 0001:0002d370       ?System.Data.SQLite.SQLiteSessionStreamManager.CheckDisposed@@200001 1002e370 f   System.Data.SQLite.netmodule
 0001:0002d39c       ?System.Data.SQLite.SQLiteSessionStreamManager.Dispose@@20010102 1002e39c f   System.Data.SQLite.netmodule
 0001:0002d3e0       ?System.Data.SQLite.SQLiteSessionStreamManager.Finalize@@200001 1002e3e0 f   System.Data.SQLite.netmodule
 0001:0002d41c       ?System.Data.SQLite.SQLiteChangeGroup..ctor@@200101112M 1002e41c f   System.Data.SQLite.netmodule
 0001:0002d43c       ?System.Data.SQLite.SQLiteChangeGroup.CheckHandle@@200001 1002e43c f   System.Data.SQLite.netmodule
 0001:0002d468       ?System.Data.SQLite.SQLiteChangeGroup.InitializeHandle@@200001 1002e468 f   System.Data.SQLite.netmodule
 0001:0002d4a4       ?System.Data.SQLite.SQLiteChangeGroup.InitializeStreamManager@@200001 1002e4a4 f   System.Data.SQLite.netmodule
 0001:0002d4cc       ?System.Data.SQLite.SQLiteChangeGroup.GetStreamAdapter@@20011282501281K9 1002e4cc f   System.Data.SQLite.netmodule
 0001:0002d4ec       ?System.Data.SQLite.SQLiteChangeGroup.AddChangeSet@@2001011N05 1002e4ec f   System.Data.SQLite.netmodule
 0001:0002d574       ?System.Data.SQLite.SQLiteChangeGroup.AddChangeSet@@2001011281K9 1002e574 f   System.Data.SQLite.netmodule
 0001:0002d5d8       ?System.Data.SQLite.SQLiteChangeGroup.CreateChangeSet@@200101101N05 1002e5d8 f   System.Data.SQLite.netmodule
 0001:0002d65c       ?System.Data.SQLite.SQLiteChangeGroup.CreateChangeSet@@2001011281K9 1002e65c f   System.Data.SQLite.netmodule
 0001:0002d6c0       ?System.Data.SQLite.SQLiteChangeGroup.Dispose@@200001 1002e6c0 f   System.Data.SQLite.netmodule
 0001:0002d6dc       ?System.Data.SQLite.SQLiteChangeGroup.CheckDisposed@@200001 1002e6dc f   System.Data.SQLite.netmodule
 0001:0002d708       ?System.Data.SQLite.SQLiteChangeGroup.Dispose@@20010102 1002e708 f   System.Data.SQLite.netmodule
 0001:0002d788       ?System.Data.SQLite.SQLiteChangeGroup.Finalize@@200001 1002e788 f   System.Data.SQLite.netmodule
 0001:0002d7c4       ?System.Data.SQLite.SQLiteSession..ctor@@2003011281K4112M0O 1002e7c4 f   System.Data.SQLite.netmodule
 0001:0002d7e8       ?System.Data.SQLite.SQLiteSession.CheckHandle@@200001 1002e7e8 f   System.Data.SQLite.netmodule
 0001:0002d814       ?System.Data.SQLite.SQLiteSession.InitializeHandle@@200001 1002e814 f   System.Data.SQLite.netmodule
 0001:0002d860       ?System.Data.SQLite.SQLiteSession.ApplyTableFilter@@20021282L81282241M 1002e860 f   System.Data.SQLite.netmodule
 0001:0002d8b0       ?System.Data.SQLite.SQLiteSession.InitializeStreamManager@@200001 1002e8b0 f   System.Data.SQLite.netmodule
 0001:0002d8d8       ?System.Data.SQLite.SQLiteSession.GetStreamAdapter@@20011282501281K9 1002e8d8 f   System.Data.SQLite.netmodule
 0001:0002d8f8       ?System.Data.SQLite.SQLiteSession.Filter@@2002081818 1002e8f8 f   System.Data.SQLite.netmodule
 0001:0002d99c       ?System.Data.SQLite.SQLiteSession.IsEnabled@@200002 1002e99c f   System.Data.SQLite.netmodule
 0001:0002d9c4       ?System.Data.SQLite.SQLiteSession.SetToEnabled@@200001 1002e9c4 f   System.Data.SQLite.netmodule
 0001:0002d9ec       ?System.Data.SQLite.SQLiteSession.SetToDisabled@@200001 1002e9ec f   System.Data.SQLite.netmodule
 0001:0002da14       ?System.Data.SQLite.SQLiteSession.IsIndirect@@200002 1002ea14 f   System.Data.SQLite.netmodule
 0001:0002da3c       ?System.Data.SQLite.SQLiteSession.SetToIndirect@@200001 1002ea3c f   System.Data.SQLite.netmodule
 0001:0002da64       ?System.Data.SQLite.SQLiteSession.SetToDirect@@200001 1002ea64 f   System.Data.SQLite.netmodule
 0001:0002da8c       ?System.Data.SQLite.SQLiteSession.IsEmpty@@200002 1002ea8c f   System.Data.SQLite.netmodule
 0001:0002dab4       ?System.Data.SQLite.SQLiteSession.AttachTable@@2001010O 1002eab4 f   System.Data.SQLite.netmodule
 0001:0002daf0       ?System.Data.SQLite.SQLiteSession.SetTableFilter@@2002011282241M 1002eaf0 f   System.Data.SQLite.netmodule
 0001:0002db24       ?System.Data.SQLite.SQLiteSession.CreateChangeSet@@200101101N05 1002eb24 f   System.Data.SQLite.netmodule
 0001:0002dba8       ?System.Data.SQLite.SQLiteSession.CreateChangeSet@@2001011281K9 1002eba8 f   System.Data.SQLite.netmodule
 0001:0002dc0c       ?System.Data.SQLite.SQLiteSession.CreatePatchSet@@200101101N05 1002ec0c f   System.Data.SQLite.netmodule
 0001:0002dc90       ?System.Data.SQLite.SQLiteSession.CreatePatchSet@@2001011281K9 1002ec90 f   System.Data.SQLite.netmodule
 0001:0002dcf4       ?System.Data.SQLite.SQLiteSession.LoadDifferencesFromTable@@2002010O0O 1002ecf4 f   System.Data.SQLite.netmodule
 0001:0002dde4       ?System.Data.SQLite.SQLiteSession.CheckDisposed@@200001 1002ede4 f   System.Data.SQLite.netmodule
 0001:0002de10       ?System.Data.SQLite.SQLiteSession.Dispose@@20010102 1002ee10 f   System.Data.SQLite.netmodule
 0001:0002deac       ?System.Data.SQLite.SQLiteChangeSetBase..ctor@@2002011281K4112M 1002eeac f   System.Data.SQLite.netmodule
 0001:0002dec4       ?System.Data.SQLite.SQLiteChangeSetBase.CreateMetadataItem@@200112823418 1002eec4 f   System.Data.SQLite.netmodule
 0001:0002dedc       ?System.Data.SQLite.SQLiteChangeSetBase.GetDelegate@@20021282L81282241M 1002eedc f   System.Data.SQLite.netmodule
 0001:0002df1c       ?System.Data.SQLite.SQLiteChangeSetBase.GetDelegate@@20021282LM1282281M 1002ef1c f   System.Data.SQLite.netmodule
 0001:0002df5c       ?System.Data.SQLite.SQLiteChangeSetBase.CheckDisposed@@200001 1002ef5c f   System.Data.SQLite.netmodule
 0001:0002df88       ?System.Data.SQLite.SQLiteChangeSetBase.Dispose@@20010102 1002ef88 f   System.Data.SQLite.netmodule
 0001:0002dfd4       ?System.Data.SQLite.SQLiteMemoryChangeSet..ctor@@2003011N051281K4112M 1002efd4 f   System.Data.SQLite.netmodule
 0001:0002dff0       ?System.Data.SQLite.SQLiteMemoryChangeSet.Invert@@200012822M 1002eff0 f   System.Data.SQLite.netmodule
 0001:0002e0b8       ?System.Data.SQLite.SQLiteMemoryChangeSet.CombineWith@@200112822M12822M 1002f0b8 f   System.Data.SQLite.netmodule
 0001:0002e1dc       ?System.Data.SQLite.SQLiteMemoryChangeSet.Apply@@2002011282281M 1002f1dc f   System.Data.SQLite.netmodule
 0001:0002e1f8       ?System.Data.SQLite.SQLiteMemoryChangeSet.Apply@@2003011282281282241M 1002f1f8 f   System.Data.SQLite.netmodule
 0001:0002e2ac       ?System.Data.SQLite.SQLiteMemoryChangeSet.GetEnumerator@@20001512808N01128234 1002f2ac f   System.Data.SQLite.netmodule
 0001:0002e2c4       ?System.Data.SQLite.SQLiteMemoryChangeSet.System.Collections.IEnumerable.GetEnumerator@@20001280O1 1002f2c4 f   System.Data.SQLite.netmodule
 0001:0002e2d8       ?System.Data.SQLite.SQLiteMemoryChangeSet.CheckDisposed@@200001 1002f2d8 f   System.Data.SQLite.netmodule
 0001:0002e304       ?System.Data.SQLite.SQLiteMemoryChangeSet.Dispose@@20010102 1002f304 f   System.Data.SQLite.netmodule
 0001:0002e358       ?System.Data.SQLite.SQLiteStreamChangeSet..ctor@@2004011281K91281K91281K4112M 1002f358 f   System.Data.SQLite.netmodule
 0001:0002e37c       ?System.Data.SQLite.SQLiteStreamChangeSet.CheckInputStream@@200001 1002f37c f   System.Data.SQLite.netmodule
 0001:0002e3bc       ?System.Data.SQLite.SQLiteStreamChangeSet.CheckOutputStream@@200001 1002f3bc f   System.Data.SQLite.netmodule
 0001:0002e3fc       ?System.Data.SQLite.SQLiteStreamChangeSet.Invert@@200012822M 1002f3fc f   System.Data.SQLite.netmodule
 0001:0002e454       ?System.Data.SQLite.SQLiteStreamChangeSet.CombineWith@@200112822M12822M 1002f454 f   System.Data.SQLite.netmodule
 0001:0002e4dc       ?System.Data.SQLite.SQLiteStreamChangeSet.Apply@@2002011282281M 1002f4dc f   System.Data.SQLite.netmodule
 0001:0002e4f8       ?System.Data.SQLite.SQLiteStreamChangeSet.Apply@@2003011282281282241M 1002f4f8 f   System.Data.SQLite.netmodule
 0001:0002e564       ?System.Data.SQLite.SQLiteStreamChangeSet.GetEnumerator@@20001512808N01128234 1002f564 f   System.Data.SQLite.netmodule
 0001:0002e584       ?System.Data.SQLite.SQLiteStreamChangeSet.System.Collections.IEnumerable.GetEnumerator@@20001280O1 1002f584 f   System.Data.SQLite.netmodule
 0001:0002e598       ?System.Data.SQLite.SQLiteStreamChangeSet.CheckDisposed@@200001 1002f598 f   System.Data.SQLite.netmodule
 0001:0002e5c4       ?System.Data.SQLite.SQLiteStreamChangeSet.Dispose@@20010102 1002f5c4 f   System.Data.SQLite.netmodule
 0001:0002e65c       ?System.Data.SQLite.SQLiteChangeSetEnumerator..ctor@@200101128244 1002f65c f   System.Data.SQLite.netmodule
 0001:0002e678       ?System.Data.SQLite.SQLiteChangeSetEnumerator.CheckIterator@@200001 1002f678 f   System.Data.SQLite.netmodule
 0001:0002e6a4       ?System.Data.SQLite.SQLiteChangeSetEnumerator.SetIterator@@200101128244 1002f6a4 f   System.Data.SQLite.netmodule
 0001:0002e6b8       ?System.Data.SQLite.SQLiteChangeSetEnumerator.CloseIterator@@200001 1002f6b8 f   System.Data.SQLite.netmodule
 0001:0002e6e0       ?System.Data.SQLite.SQLiteChangeSetEnumerator.ResetIterator@@200101128244 1002f6e0 f   System.Data.SQLite.netmodule
 0001:0002e6fc       ?System.Data.SQLite.SQLiteChangeSetEnumerator.get_Current@@2000128234 1002f6fc f   System.Data.SQLite.netmodule
 0001:0002e71c       ?System.Data.SQLite.SQLiteChangeSetEnumerator.System.Collections.IEnumerator.get_Current@@20001M 1002f71c f   System.Data.SQLite.netmodule
 0001:0002e738       ?System.Data.SQLite.SQLiteChangeSetEnumerator.MoveNext@@200002 1002f738 f   System.Data.SQLite.netmodule
 0001:0002e75c       ?System.Data.SQLite.SQLiteChangeSetEnumerator.Reset@@200001 1002f75c f   System.Data.SQLite.netmodule
 0001:0002e774       ?System.Data.SQLite.SQLiteChangeSetEnumerator.Dispose@@200001 1002f774 f   System.Data.SQLite.netmodule
 0001:0002e790       ?System.Data.SQLite.SQLiteChangeSetEnumerator.CheckDisposed@@200001 1002f790 f   System.Data.SQLite.netmodule
 0001:0002e7bc       ?System.Data.SQLite.SQLiteChangeSetEnumerator.Dispose@@20010102 1002f7bc f   System.Data.SQLite.netmodule
 0001:0002e800       ?System.Data.SQLite.SQLiteChangeSetEnumerator.Finalize@@200001 1002f800 f   System.Data.SQLite.netmodule
 0001:0002e83c       ?System.Data.SQLite.SQLiteMemoryChangeSetEnumerator..ctor@@2001011N05 1002f83c f   System.Data.SQLite.netmodule
 0001:0002e85c       ?System.Data.SQLite.SQLiteMemoryChangeSetEnumerator.Reset@@200001 1002f85c f   System.Data.SQLite.netmodule
 0001:0002e880       ?System.Data.SQLite.SQLiteMemoryChangeSetEnumerator.CheckDisposed@@200001 1002f880 f   System.Data.SQLite.netmodule
 0001:0002e8ac       ?System.Data.SQLite.SQLiteMemoryChangeSetEnumerator.Dispose@@20010102 1002f8ac f   System.Data.SQLite.netmodule
 0001:0002e8f0       ?System.Data.SQLite.SQLiteStreamChangeSetEnumerator..ctor@@2002011281K9112M 1002f8f0 f   System.Data.SQLite.netmodule
 0001:0002e90c       ?System.Data.SQLite.SQLiteStreamChangeSetEnumerator.CheckDisposed@@200001 1002f90c f   System.Data.SQLite.netmodule
 0001:0002e938       ?System.Data.SQLite.SQLiteStreamChangeSetEnumerator.Dispose@@20010102 1002f938 f   System.Data.SQLite.netmodule
 0001:0002e974       ?System.Data.SQLite.SQLiteChangeSetMetadataItem..ctor@@200101128244 1002f974 f   System.Data.SQLite.netmodule
 0001:0002e990       ?System.Data.SQLite.SQLiteChangeSetMetadataItem.CheckIterator@@200001 1002f990 f   System.Data.SQLite.netmodule
 0001:0002e9bc       ?System.Data.SQLite.SQLiteChangeSetMetadataItem.PopulateOperationMetadata@@200001 1002f9bc f   System.Data.SQLite.netmodule
 0001:0002ea68       ?System.Data.SQLite.SQLiteChangeSetMetadataItem.PopulatePrimaryKeyColumns@@200001 1002fa68 f   System.Data.SQLite.netmodule
 0001:0002eae4       ?System.Data.SQLite.SQLiteChangeSetMetadataItem.PopulateNumberOfForeignKeyConflicts@@200001 1002fae4 f   System.Data.SQLite.netmodule
 0001:0002eb34       ?System.Data.SQLite.SQLiteChangeSetMetadataItem.get_TableName@@20000O 1002fb34 f   System.Data.SQLite.netmodule
 0001:0002eb54       ?System.Data.SQLite.SQLiteChangeSetMetadataItem.get_NumberOfColumns@@200008 1002fb54 f   System.Data.SQLite.netmodule
 0001:0002eb78       ?System.Data.SQLite.SQLiteChangeSetMetadataItem.get_OperationCode@@20001180P4 1002fb78 f   System.Data.SQLite.netmodule
 0001:0002eb9c       ?System.Data.SQLite.SQLiteChangeSetMetadataItem.get_Indirect@@200002 1002fb9c f   System.Data.SQLite.netmodule
 0001:0002ebc0       ?System.Data.SQLite.SQLiteChangeSetMetadataItem.get_PrimaryKeyColumns@@20001N02 1002fbc0 f   System.Data.SQLite.netmodule
 0001:0002ebe0       ?System.Data.SQLite.SQLiteChangeSetMetadataItem.get_NumberOfForeignKeyConflicts@@200008 1002fbe0 f   System.Data.SQLite.netmodule
 0001:0002ec04       ?System.Data.SQLite.SQLiteChangeSetMetadataItem.GetOldValue@@20011281M408 1002fc04 f   System.Data.SQLite.netmodule
 0001:0002ec40       ?System.Data.SQLite.SQLiteChangeSetMetadataItem.GetNewValue@@20011281M408 1002fc40 f   System.Data.SQLite.netmodule
 0001:0002ec7c       ?System.Data.SQLite.SQLiteChangeSetMetadataItem.GetConflictValue@@20011281M408 1002fc7c f   System.Data.SQLite.netmodule
 0001:0002ecb8       ?System.Data.SQLite.SQLiteChangeSetMetadataItem.Dispose@@200001 1002fcb8 f   System.Data.SQLite.netmodule
 0001:0002ecd4       ?System.Data.SQLite.SQLiteChangeSetMetadataItem.CheckDisposed@@200001 1002fcd4 f   System.Data.SQLite.netmodule
 0001:0002ed00       ?System.Data.SQLite.SQLiteChangeSetMetadataItem.Dispose@@20010102 1002fd00 f   System.Data.SQLite.netmodule
 0001:0002ed50       ?System.Data.SQLite.SQLiteChangeSetMetadataItem.Finalize@@200001 1002fd50 f   System.Data.SQLite.netmodule
 0001:0002ed8c       ?System.Data.SQLite.Generic.SQLiteVirtualTableCursorEnumerator`1..ctor@@2002011281O81512808N011300 1002fd8c f   System.Data.SQLite.netmodule
 0001:0002eda8       ?System.Data.SQLite.Generic.SQLiteVirtualTableCursorEnumerator`1.System.Collections.Generic.IEnumerator<T>.get_Current@@20001300 1002fda8 f   System.Data.SQLite.netmodule
 0001:0002ede0       ?System.Data.SQLite.Generic.SQLiteVirtualTableCursorEnumerator`1.Close@@200001 1002fde0 f   System.Data.SQLite.netmodule
 0001:0002ee04       ?System.Data.SQLite.Generic.SQLiteVirtualTableCursorEnumerator`1.CheckDisposed@@200001 1002fe04 f   System.Data.SQLite.netmodule
 0001:0002ee30       ?System.Data.SQLite.Generic.SQLiteVirtualTableCursorEnumerator`1.Dispose@@20010102 1002fe30 f   System.Data.SQLite.netmodule
 0001:0002ee78       ?System.Data.SQLite.Generic.SQLiteModuleEnumerable`1..ctor@@2002010O151281ON011300 1002fe78 f   System.Data.SQLite.netmodule
 0001:0002ee94       ?System.Data.SQLite.Generic.SQLiteModuleEnumerable`1.Open@@20021181201281O8101281OM 1002fe94 f   System.Data.SQLite.netmodule
 0001:0002eebc       ?System.Data.SQLite.Generic.SQLiteModuleEnumerable`1.Column@@20031181201281OM1281M008 1002febc f   System.Data.SQLite.netmodule
 0001:0002ef28       ?System.Data.SQLite.Generic.SQLiteModuleEnumerable`1.CheckDisposed@@200001 1002ff28 f   System.Data.SQLite.netmodule
 0001:0002ef54       ?System.Data.SQLite.Generic.SQLiteModuleEnumerable`1.Dispose@@20010102 1002ff54 f   System.Data.SQLite.netmodule
 0001:0002ef98       ?<PrivateImplementationDetails><System_Data_SQQLite_netmodule>.ComputeStringHash@@0001090O 1002ff98 f   System.Data.SQLite.netmodule
 0001:0002efd0       ?System.Data.SQLite.SQLiteConnectionPool.PoolQueue..ctor@@2002010808 1002ffd0 f   System.Data.SQLite.netmodule
 0001:0002effc       ?System.Data.SQLite.SQLiteDataReader.ColumnParent..ctor@@200001 1002fffc f   System.Data.SQLite.netmodule
 0001:0002f010       ?System.Data.SQLite.SQLiteDataReader.ColumnParent..ctor@@2003010O0O0O 10030010 f   System.Data.SQLite.netmodule
 0001:0002f038       ?System.Data.SQLite.SQLiteDataReader.ColumnParent.Equals@@20020212828M12828M 10030038 f   System.Data.SQLite.netmodule
 0001:0002f098       ?System.Data.SQLite.SQLiteDataReader.ColumnParent.GetHashCode@@20010812828M 10030098 f   System.Data.SQLite.netmodule
 0001:0002f0f4       ?System.Data.SQLite.SQLiteFunction.AggregateData..ctor@@200001 100300f4 f   System.Data.SQLite.netmodule
 0001:0002f110       ?System.Data.SQLite.SQLiteKeyReader.KeyQuery..ctor@@20040112780O0O1N0O 10030110 f   System.Data.SQLite.netmodule
 0001:0002f1cc       ?System.Data.SQLite.SQLiteKeyReader.KeyQuery.set_IsValid@@20010102 100301cc f   System.Data.SQLite.netmodule
 0001:0002f1fc       ?System.Data.SQLite.SQLiteKeyReader.KeyQuery.Sync@@2001010K 100301fc f   System.Data.SQLite.netmodule
 0001:0002f24c       ?System.Data.SQLite.SQLiteKeyReader.KeyQuery.Dispose@@200001 1003024c f   System.Data.SQLite.netmodule
 0001:0002f268       ?System.Data.SQLite.SQLiteKeyReader.KeyQuery.CheckDisposed@@200001 10030268 f   System.Data.SQLite.netmodule
 0001:0002f294       ?System.Data.SQLite.SQLiteKeyReader.KeyQuery.Dispose@@20010102 10030294 f   System.Data.SQLite.netmodule
 0001:0002f2d4       ?System.Data.SQLite.SQLiteKeyReader.KeyQuery.Finalize@@200001 100302d4 f   System.Data.SQLite.netmodule
 0001:0002f310       ?System.Data.SQLite.UnsafeNativeMethodsPosix.utsname..ctor@@200001 10030310 f   System.Data.SQLite.netmodule
 0001:0002f324       ?System.Data.SQLite.UnsafeNativeMethods.sqlite3_index_constraint..ctor@@2001011281N0 10030324 f   System.Data.SQLite.netmodule
 0001:0002f36c       ?System.Data.SQLite.UnsafeNativeMethods.sqlite3_index_orderby..ctor@@2001011281N4 1003036c f   System.Data.SQLite.netmodule
 0001:0002f39c       ?System.Data.SQLite.UnsafeNativeMethods.sqlite3_index_constraint_usage..ctor@@2001011281N8 1003039c f   System.Data.SQLite.netmodule
 0001:0002f3cc       ?System.Data.SQLite.SQLiteModule.SQLiteNativeModule..ctor@@200101128208 100303cc f   System.Data.SQLite.netmodule
 0001:0002f3e8       ?System.Data.SQLite.SQLiteModule.SQLiteNativeModule.ModuleNotAvailableTableError@@000111812018 100303e8 f   System.Data.SQLite.netmodule
 0001:0002f408       ?System.Data.SQLite.SQLiteModule.SQLiteNativeModule.ModuleNotAvailableCursorError@@000111812018 10030408 f   System.Data.SQLite.netmodule
 0001:0002f428       ?System.Data.SQLite.SQLiteModule.SQLiteNativeModule.xCreate@@20061181201818081810181018 10030428 f   System.Data.SQLite.netmodule
 0001:0002f460       ?System.Data.SQLite.SQLiteModule.SQLiteNativeModule.xConnect@@20061181201818081810181018 10030460 f   System.Data.SQLite.netmodule
 0001:0002f498       ?System.Data.SQLite.SQLiteModule.SQLiteNativeModule.xBestIndex@@20021181201818 10030498 f   System.Data.SQLite.netmodule
 0001:0002f4c4       ?System.Data.SQLite.SQLiteModule.SQLiteNativeModule.xDisconnect@@200111812018 100304c4 f   System.Data.SQLite.netmodule
 0001:0002f4ec       ?System.Data.SQLite.SQLiteModule.SQLiteNativeModule.xDestroy@@200111812018 100304ec f   System.Data.SQLite.netmodule
 0001:0002f514       ?System.Data.SQLite.SQLiteModule.SQLiteNativeModule.xOpen@@2002118120181018 10030514 f   System.Data.SQLite.netmodule
 0001:0002f540       ?System.Data.SQLite.SQLiteModule.SQLiteNativeModule.xClose@@200111812018 10030540 f   System.Data.SQLite.netmodule
 0001:0002f568       ?System.Data.SQLite.SQLiteModule.SQLiteNativeModule.xFilter@@20051181201808180818 10030568 f   System.Data.SQLite.netmodule
 0001:0002f598       ?System.Data.SQLite.SQLiteModule.SQLiteNativeModule.xNext@@200111812018 10030598 f   System.Data.SQLite.netmodule
 0001:0002f5c0       ?System.Data.SQLite.SQLiteModule.SQLiteNativeModule.xEof@@20010818 100305c0 f   System.Data.SQLite.netmodule
 0001:0002f5ec       ?System.Data.SQLite.SQLiteModule.SQLiteNativeModule.xColumn@@2003118120181808 100305ec f   System.Data.SQLite.netmodule
 0001:0002f618       ?System.Data.SQLite.SQLiteModule.SQLiteNativeModule.xRowId@@200211812018100K 10030618 f   System.Data.SQLite.netmodule
 0001:0002f644       ?System.Data.SQLite.SQLiteModule.SQLiteNativeModule.xUpdate@@2004118120180818100K 10030644 f   System.Data.SQLite.netmodule
 0001:0002f670       ?System.Data.SQLite.SQLiteModule.SQLiteNativeModule.xBegin@@200111812018 10030670 f   System.Data.SQLite.netmodule
 0001:0002f698       ?System.Data.SQLite.SQLiteModule.SQLiteNativeModule.xSync@@200111812018 10030698 f   System.Data.SQLite.netmodule
 0001:0002f6c0       ?System.Data.SQLite.SQLiteModule.SQLiteNativeModule.xCommit@@200111812018 100306c0 f   System.Data.SQLite.netmodule
 0001:0002f6e8       ?System.Data.SQLite.SQLiteModule.SQLiteNativeModule.xRollback@@200111812018 100306e8 f   System.Data.SQLite.netmodule
 0001:0002f710       ?System.Data.SQLite.SQLiteModule.SQLiteNativeModule.xFindFunction@@200508180818101281481018 10030710 f   System.Data.SQLite.netmodule
 0001:0002f740       ?System.Data.SQLite.SQLiteModule.SQLiteNativeModule.xRename@@20021181201818 10030740 f   System.Data.SQLite.netmodule
 0001:0002f76c       ?System.Data.SQLite.SQLiteModule.SQLiteNativeModule.xSavepoint@@20021181201808 1003076c f   System.Data.SQLite.netmodule
 0001:0002f798       ?System.Data.SQLite.SQLiteModule.SQLiteNativeModule.xRelease@@20021181201808 10030798 f   System.Data.SQLite.netmodule
 0001:0002f7c4       ?System.Data.SQLite.SQLiteModule.SQLiteNativeModule.xRollbackTo@@20021181201808 100307c4 f   System.Data.SQLite.netmodule
 0001:0002f7f0       ?System.Data.SQLite.SQLiteModule.SQLiteNativeModule.Dispose@@200001 100307f0 f   System.Data.SQLite.netmodule
 0001:0002f80c       ?System.Data.SQLite.SQLiteModule.SQLiteNativeModule.CheckDisposed@@200001 1003080c f   System.Data.SQLite.netmodule
 0001:0002f838       ?System.Data.SQLite.SQLiteModule.SQLiteNativeModule.Dispose@@20010102 10030838 f   System.Data.SQLite.netmodule
 0001:0002f864       ?System.Data.SQLite.SQLiteModule.SQLiteNativeModule.Finalize@@200001 10030864 f   System.Data.SQLite.netmodule
 0001:0002f8a0       ?System.Data.SQLite.SQLiteChangeSetBase.<>c__DisplayClass2_0..ctor@@200001 100308a0 f   System.Data.SQLite.netmodule
 0001:0002f8b4       ?System.Data.SQLite.SQLiteChangeSetBase.<>c__DisplayClass2_0.<GetDelegate>b__0@@2002081818 100308b4 f   System.Data.SQLite.netmodule
 0001:0002f960       ?System.Data.SQLite.SQLiteChangeSetBase.<>c__DisplayClass3_0..ctor@@200001 10030960 f   System.Data.SQLite.netmodule
 0001:0002f974       ?System.Data.SQLite.SQLiteChangeSetBase.<>c__DisplayClass3_0.<GetDelegate>b__0@@20031182201811821M18 10030974 f   System.Data.SQLite.netmodule
 0001:0002fb30       _SHA1Transform             10030b30 f   interop.obj
 0001:00033730       _sqlite3_vtshim_init       10034730 f   interop.obj
 0001:00033740       _sqlite3_dispose_module    10034740 f   interop.obj
 0001:000337b0       _interop_sourceid@0        100347b0 f   interop.obj
 0001:000337c0       _interop_libversion@0      100347c0 f   interop.obj
 0001:000337d0       _interop_compileoption_get@4 100347d0 f   interop.obj
 0001:000337f0       _sqlite3_activate_see      100347f0 f   interop.obj
 0001:00033970       _double_cmp                10034970 f   interop.obj
 0001:000339b0       _int_cmp                   100349b0 f   interop.obj
 0001:00033a00       _node_iterate              10034a00 f   interop.obj
 0001:00033a40       _xfree                     10034a40 f   interop.obj
 0001:00033a50       _xcalloc                   10034a50 f   interop.obj
 0001:00033a60       _map_make                  10034a60 f   interop.obj
 0001:00033db0       _sqlite3_sourceid          10034db0 f   interop.obj
 0001:00033e20       _sqlite3changeset_fk_conflicts 10034e20 f   interop.obj
 0001:00033e50       _sqlite3changeset_new      10034e50 f   interop.obj
 0001:00033e90       _sqlite3changeset_old      10034e90 f   interop.obj
 0001:00033ed0       _sqlite3changeset_pk       10034ed0 f   interop.obj
 0001:00033ef0       _sqlite3changeset_op       10034ef0 f   interop.obj
 0001:00033f70       _sqlite3session_table_filter 10034f70 f   interop.obj
 0001:000361e0       _sqlite3_thread_cleanup    100371e0 f   interop.obj
 0001:000361f0       _sqlite3_global_recover    100371f0 f   interop.obj
 0001:00036200       _sqlite3_system_errno      10037200 f   interop.obj
 0001:000362e0       _sqlite3_threadsafe        100372e0 f   interop.obj
 0001:000362f0       _sqlite3_libversion_number 100372f0 f   interop.obj
 0001:00036300       _sqlite3_libversion        10037300 f   interop.obj
 0001:00036330       _sqlite3_keyword_count     10037330 f   interop.obj
 0001:00036340       _sqlite3_keyword_name      10037340 f   interop.obj
 0001:000370f0       _sqlite3_prepare_v2        100380f0 f   interop.obj
 0001:00037120       _sqlite3_prepare           10038120 f   interop.obj
 0001:000388b0       _sqlite3_blob_bytes        100398b0 f   interop.obj
 0001:000388d0       _sqlite3_preupdate_depth   100398d0 f   interop.obj
 0001:000388f0       _sqlite3_preupdate_count   100398f0 f   interop.obj
 0001:00038910       _sqlite3_sql               10039910 f   interop.obj
 0001:00038930       _sqlite3_stmt_busy         10039930 f   interop.obj
 0001:00038960       _sqlite3_stmt_readonly     10039960 f   interop.obj
 0001:00038980       _sqlite3_db_handle         10039980 f   interop.obj
 0001:000389a0       _sqlite3_bind_parameter_count 100399a0 f   interop.obj
 0001:000389d0       _sqlite3_data_count        100399d0 f   interop.obj
 0001:000389f0       _sqlite3_column_count      100399f0 f   interop.obj
 0001:00038a10       _sqlite3_aggregate_count   10039a10 f   interop.obj
 0001:00038a20       _sqlite3_get_auxdata       10039a20 f   interop.obj
 0001:00038a70       _sqlite3_context_db_handle 10039a70 f   interop.obj
 0001:00038a80       _sqlite3_user_data         10039a80 f   interop.obj
 0001:00038a90       _sqlite3_result_subtype    10039a90 f   interop.obj
 0001:00038ab0       _sqlite3_value_nochange    10039ab0 f   interop.obj
 0001:00038ad0       _sqlite3_value_type        10039ad0 f   interop.obj
 0001:00038af0       _sqlite3_value_pointer     10039af0 f   interop.obj
 0001:00038b60       _sqlite3_value_subtype     10039b60 f   interop.obj
 0001:00038b80       _sqlite3_expired           10039b80 f   interop.obj
 0001:00039ae0       _sqlite3_enable_shared_cache 1003aae0 f   interop.obj
 0001:0003aa00       _sqlite3_os_end            1003ba00 f   interop.obj
 0001:0003ac20       _sqlite3_win32_is_nt       1003bc20 f   interop.obj
 0001:0003ac50       _sqlite3_win32_sleep       1003bc50 f   interop.obj
 0001:0003b850       _sqlite3_strnicmp          1003c850 f   interop.obj
 0001:0003b920       _sqlite3_stricmp           1003c920 f   interop.obj
 0001:0003bbf0       _sqlite3_str_value         1003cbf0 f   interop.obj
 0001:0003bc20       _sqlite3_str_length        1003cc20 f   interop.obj
 0001:0003bc40       _sqlite3_str_errcode       1003cc40 f   interop.obj
 0001:0003bd10       _sqlite3_msize             1003cd10 f   interop.obj
 0001:0003bda0       _sqlite3_memory_alarm      1003cda0 f   interop.obj
 0001:0003bf50       _sqlite3_mutex_leave       1003cf50 f   interop.obj
 0001:0003bf70       _sqlite3_mutex_try         1003cf70 f   interop.obj
 0001:0003bf90       _sqlite3_mutex_enter       1003cf90 f   interop.obj
 0001:0003bfb0       _sqlite3_mutex_free        1003cfb0 f   interop.obj
 0001:0003c070       _sqlite3_vfs_find          1003d070 f   interop.obj
 0001:0003e230       _sqlite3_table_cursor_interop@12 1003f230 f   interop.obj
 0001:0003e2b0       _sqlite3_context_collseq_interop@16 1003f2b0 f   interop.obj
 0001:0003e350       _sqlite3_context_collcompare_interop@20 1003f350 f   interop.obj
 0001:0003e3d0       _sqlite3_prepare_interop@24 1003f3d0 f   interop.obj
 0001:0003e430       _sqlite3_msize_interop@8   1003f430 f   interop.obj
 0001:0003e470       _sqlite3_malloc_size_interop@4 1003f470 f   interop.obj
 0001:0003e490       _interop_compileoption_used@4 1003f490 f   interop.obj
 0001:0003e530       _sqlite3CodecGetKey        1003f530 f   interop.obj
 0001:0003e570       _node_destroy              1003f570 f   interop.obj
 0001:0003e5b0       _map_iterate               1003f5b0 f   interop.obj
 0001:0003e5d0       _node_insert               1003f5d0 f   interop.obj
 0001:0003fee0       _sqlite3_compileoption_get 10040ee0 f   interop.obj
 0001:0003ff00       _sqlite3_uri_parameter     10040f00 f   interop.obj
 0001:0003ffc0       _sqlite3_sleep             10040fc0 f   interop.obj
 0001:00040000       _sqlite3_errstr            10041000 f   interop.obj
 0001:00040010       _sqlite3_preupdate_hook    10041010 f   interop.obj
 0001:00041270       _sqlite3_cancel_auto_extension 10042270 f   interop.obj
 0001:000412f0       _sqlite3_enable_load_extension 100422f0 f   interop.obj
 0001:00042350       _sqlite3_bind_parameter_name 10043350 f   interop.obj
 0001:000423d0       _sqlite3_vtab_nochange     100433d0 f   interop.obj
 0001:00044c70       _sqlite3_randomness        10045c70 f   interop.obj
 0001:00044e20       _sqlite3_vsnprintf         10045e20 f   interop.obj
 0001:00044ec0       _sqlite3_free              10045ec0 f   interop.obj
 0001:00044f70       _sqlite3_vfs_unregister    10045f70 f   interop.obj
 0001:00045580       _sqlite3re_free            10046580 f   interop.obj
 0001:00046240       _sqlite3_bind_parameter_name_interop@12 10047240 f   interop.obj
 0001:000462e0       _map_destroy               100472e0 f   interop.obj
 0001:000462f0       _map_insert                100472f0 f   interop.obj
 0001:00047ca0       _sqlite3_keyword_check     10048ca0 f   interop.obj
 0001:00047dd0       _sqlite3_free_table        10048dd0 f   interop.obj
 0001:00048010       _sqlite3_strlike           10049010 f   interop.obj
 0001:00048030       _sqlite3_strglob           10049030 f   interop.obj
 0001:00048840       _sqlite3_bind_parameter_index 10049840 f   interop.obj
 0001:0004a090       _sqlite3_snprintf          1004b090 f   interop.obj
 0001:0004aec0       _sqlite3rebaser_delete     1004bec0 f   interop.obj
 0001:0004aee0       _sqlite3changegroup_delete 1004bee0 f   interop.obj
 0001:0004b5a0       _sqlite3_uri_int64         1004c5a0 f   interop.obj
 0001:0004bcb0       _sqlite3_value_numeric_type 1004ccb0 f   interop.obj
 0001:0004d490       _sqlite3_uri_boolean       1004e490 f   interop.obj
 0001:0004d970       _sqlite3_value_int64       1004e970 f   interop.obj
 0001:0004d980       _sqlite3_value_int         1004e980 f   interop.obj
 0001:0004d990       _sqlite3_value_double      1004e990 f   interop.obj
 0001:0004e180       _sqlite3_index_column_info_interop@32 1004f180 f   interop.obj
 0001:0004e290       _sqlite3_value_int64_interop@8 1004f290 f   interop.obj
 0001:0004e2b0       _sqlite3_value_double_interop@8 1004f2b0 f   interop.obj
 0001:0004f100       _sqlite3_str_reset         10050100 f   interop.obj
 0001:0004f140       _sqlite3_release_memory    10050140 f   interop.obj
 0001:0004fd20       _sqlite3_result_error_nomem 10050d20 f   interop.obj
 0001:0004fd70       _sqlite3_result_null       10050d70 f   interop.obj
 0001:00050430       _sqlite3_result_pointer    10051430 f   interop.obj
 0001:00050490       _sqlite3_result_double     10051490 f   interop.obj
 0001:000504b0       _sqlite3_clear_bindings    100514b0 f   interop.obj
 0001:00050fc0       _sqlite3_malloc64          10051fc0 f   interop.obj
 0001:000510c0       _sqlite3_result_double_interop@8 100520c0 f   interop.obj
 0001:000511b0       _sqlite3changeset_finalize 100521b0 f   interop.obj
 0001:00051630       _sqlite3_db_config         10052630 f   interop.obj
 0001:00051ec0       _sqlite3_result_zeroblob64 10052ec0 f   interop.obj
 0001:00051ef0       _sqlite3_result_zeroblob   10052ef0 f   interop.obj
 0001:00051f10       _sqlite3_result_int64      10052f10 f   interop.obj
 0001:00051f50       _sqlite3_result_int        10052f50 f   interop.obj
 0001:00051f90       _sqlite3_value_free        10052f90 f   interop.obj
 0001:00052eb0       _sqlite3_str_new           10053eb0 f   interop.obj
 0001:00053090       _sqlite3_realloc64         10054090 f   interop.obj
 0001:000531a0       _sqlite3_result_int64_interop@8 100541a0 f   interop.obj
 0001:00054b00       _sqlite3_transfer_bindings 10055b00 f   interop.obj
 0001:00054b80       _sqlite3_set_auxdata       10055b80 f   interop.obj
 0001:00056c80       _sqlite3_column_type       10057c80 f   interop.obj
 0001:00056cb0       _sqlite3_column_value      10057cb0 f   interop.obj
 0001:00056cf0       _sqlite3_column_int64      10057cf0 f   interop.obj
 0001:00056d20       _sqlite3_column_int        10057d20 f   interop.obj
 0001:00056d50       _sqlite3_column_double     10057d50 f   interop.obj
 0001:00057f80       _sqlite3_column_int64_interop@12 10058f80 f   interop.obj
 0001:00057fc0       _sqlite3_column_double_interop@12 10058fc0 f   interop.obj
 0001:00058010       _sqlite3changeset_conflict 10059010 f   interop.obj
 0001:00059760       _sqlite3_str_finish        1005a760 f   interop.obj
 0001:000597e0       _sqlite3_str_appendchar    1005a7e0 f   interop.obj
 0001:0005a480       _sqlite3_str_append        1005b480 f   interop.obj
 0001:0005b660       _sqlite3_str_appendall     1005c660 f   interop.obj
 0001:0005cbf0       _sqlite3_aggregate_context 1005dbf0 f   interop.obj
 0001:0005e6f0       _sqlite3_result_error_toobig 1005f6f0 f   interop.obj
 0001:0005e720       _sqlite3_result_error_code 1005f720 f   interop.obj
 0001:0005e760       _sqlite3_result_value      1005f760 f   interop.obj
 0001:0005e780       _sqlite3_result_error16    1005f780 f   interop.obj
 0001:0005e7b0       _sqlite3_result_error      1005f7b0 f   interop.obj
 0001:00060c90       _sqlite3_result_text16le   10061c90 f   interop.obj
 0001:00060cd0       _sqlite3_result_text16be   10061cd0 f   interop.obj
 0001:00060d10       _sqlite3_result_text16     10061d10 f   interop.obj
 0001:00060d50       _sqlite3_result_text64     10061d50 f   interop.obj
 0001:00060de0       _sqlite3_result_text       10061de0 f   interop.obj
 0001:00060e20       _sqlite3_result_blob64     10061e20 f   interop.obj
 0001:00060e90       _sqlite3_result_blob       10061e90 f   interop.obj
 0001:00062650       _sqlite3_test_control      10063650 f   interop.obj
 0001:00063850       _sqlite3_value_text16le    10064850 f   interop.obj
 0001:00063860       _sqlite3_value_text16be    10064860 f   interop.obj
 0001:00063870       _sqlite3_value_text16      10064870 f   interop.obj
 0001:00063880       _sqlite3_value_text        10064880 f   interop.obj
 0001:000638a0       _sqlite3_value_blob        100648a0 f   interop.obj
 0001:00064ba0       _sqlite3_column_text16     10065ba0 f   interop.obj
 0001:00064bd0       _sqlite3_column_text       10065bd0 f   interop.obj
 0001:00064c00       _sqlite3_column_blob       10065c00 f   interop.obj
 0001:00064c30       _sqlite3_value_bytes16     10065c30 f   interop.obj
 0001:00064c40       _sqlite3_value_bytes       10065c40 f   interop.obj
 0001:00064e60       _sqlite3_str_vappendf      10065e60 f   interop.obj
 0001:00066920       _sqlite3_value_text16_interop@8 10067920 f   interop.obj
 0001:00066950       _sqlite3_value_text_interop@8 10067950 f   interop.obj
 0001:000685d0       _sqlite3_column_bytes16    100695d0 f   interop.obj
 0001:00068600       _sqlite3_column_bytes      10069600 f   interop.obj
 0001:00068630       _sqlite3_str_appendf       10069630 f   interop.obj
 0001:00069590       _sqlite3_column_text16_interop@12 1006a590 f   interop.obj
 0001:000695f0       _sqlite3_column_text_interop@12 1006a5f0 f   interop.obj
 0001:00069ff0       _sqlite3_expanded_sql      1006aff0 f   interop.obj
 0001:0006a5d0       _sqlite3_log               1006b5d0 f   interop.obj
 0001:0006df50       _sqlite3_win32_compact_heap 1006ef50 f   interop.obj
 0001:0006e410       _sqlite3_complete          1006f410 f   interop.obj
 0001:0006fd10       _sqlite3_preupdate_new     10070d10 f   interop.obj
 0001:0006ff70       _sqlite3_stmt_status       10070f70 f   interop.obj
 0001:00070a20       _sqlite3_backup_pagecount  10071a20 f   interop.obj
 0001:00070a60       _sqlite3_backup_remaining  10071a60 f   interop.obj
 0001:00072810       _sqlite3_win32_write_debug 10073810 f   interop.obj
 0001:00072980       _sqlite3_vmprintf          10073980 f   interop.obj
 0001:00072b10       _sqlite3_vfs_register      10073b10 f   interop.obj
 0001:00072bc0       _sqlite3_db_status         10073bc0 f   interop.obj
 0001:00072fd0       _sqlite3_status64          10073fd0 f   interop.obj
 0001:00073370       _sqlite3_compileoption_used 10074370 f   interop.obj
 0001:00073430       _sqlite3_db_readonly       10074430 f   interop.obj
 0001:000734a0       _sqlite3_db_filename       100744a0 f   interop.obj
 0001:00073520       _sqlite3_file_control      10074520 f   interop.obj
 0001:00073650       _sqlite3_extended_result_codes 10074650 f   interop.obj
 0001:000736d0       _sqlite3_get_autocommit    100746d0 f   interop.obj
 0001:00073720       _sqlite3_collation_needed16 10074720 f   interop.obj
 0001:000737b0       _sqlite3_collation_needed  100747b0 f   interop.obj
 0001:00073840       _sqlite3_create_collation16 10074840 f   interop.obj
 0001:00073910       _sqlite3_create_collation_v2 10074910 f   interop.obj
 0001:000739c0       _sqlite3_create_collation  100749c0 f   interop.obj
 0001:000739e0       _sqlite3_limit             100749e0 f   interop.obj
 0001:00073a50       _sqlite3_extended_errcode  10074a50 f   interop.obj
 0001:00073ad0       _sqlite3_errcode           10074ad0 f   interop.obj
 0001:00073b50       _sqlite3_errmsg16          10074b50 f   interop.obj
 0001:00073c10       _sqlite3_errmsg            10074c10 f   interop.obj
 0001:00073ce0       _sqlite3_wal_hook          10074ce0 f   interop.obj
 0001:00073d60       _sqlite3_rollback_hook     10074d60 f   interop.obj
 0001:00073de0       _sqlite3_update_hook       10074de0 f   interop.obj
 0001:00073e60       _sqlite3_commit_hook       10074e60 f   interop.obj
 0001:00073ee0       _sqlite3_profile           10074ee0 f   interop.obj
 0001:00073f60       _sqlite3_trace_v2          10074f60 f   interop.obj
 0001:00073ff0       _sqlite3_trace             10074ff0 f   interop.obj
 0001:00074080       _sqlite3_create_function16 10075080 f   interop.obj
 0001:00074160       _sqlite3_create_function_v2 10075160 f   interop.obj
 0001:000742b0       _sqlite3_create_function   100752b0 f   interop.obj
 0001:000742e0       _sqlite3_interrupt         100752e0 f   interop.obj
 0001:00074340       _sqlite3_progress_handler  10075340 f   interop.obj
 0001:000743e0       _sqlite3_busy_handler      100753e0 f   interop.obj
 0001:00074480       _sqlite3_total_changes     10075480 f   interop.obj
 0001:000744d0       _sqlite3_changes           100754d0 f   interop.obj
 0001:00074520       _sqlite3_set_last_insert_rowid 10075520 f   interop.obj
 0001:00074590       _sqlite3_last_insert_rowid 10075590 f   interop.obj
 0001:000745e0       _sqlite3_db_release_memory 100755e0 f   interop.obj
 0001:000746b0       _sqlite3_db_mutex          100756b0 f   interop.obj
 0001:00074bc0       _sqlite3_vtab_config       10075bc0 f   interop.obj
 0001:00074c80       _sqlite3_vtab_on_conflict  10075c80 f   interop.obj
 0001:00074cd0       _sqlite3_create_module_v2  10075cd0 f   interop.obj
 0001:00074d30       _sqlite3_create_module     10075d30 f   interop.obj
 0001:00076460       _sqlite3_set_authorizer    10077460 f   interop.obj
 0001:000768f0       _sqlite3_next_stmt         100778f0 f   interop.obj
 0001:00076af0       _sqlite3_column_origin_name16 10077af0 f   interop.obj
 0001:00076b10       _sqlite3_column_origin_name 10077b10 f   interop.obj
 0001:00076b30       _sqlite3_column_table_name16 10077b30 f   interop.obj
 0001:00076b50       _sqlite3_column_table_name 10077b50 f   interop.obj
 0001:00076b70       _sqlite3_column_database_name16 10077b70 f   interop.obj
 0001:00076b90       _sqlite3_column_database_name 10077b90 f   interop.obj
 0001:00076bb0       _sqlite3_column_decltype16 10077bb0 f   interop.obj
 0001:00076bd0       _sqlite3_column_decltype   10077bd0 f   interop.obj
 0001:00076bf0       _sqlite3_column_name16     10077bf0 f   interop.obj
 0001:00076c10       _sqlite3_column_name       10077c10 f   interop.obj
 0001:000790a0       _sqlite3_mprintf           1007a0a0 f   interop.obj
 0001:000790d0       _sqlite3_memory_highwater  1007a0d0 f   interop.obj
 0001:00079100       _sqlite3_memory_used       1007a100 f   interop.obj
 0001:00079250       _sqlite3_status            1007a250 f   interop.obj
 0001:000792d0       _sqlite3_totype_init       1007a2d0 f   interop.obj
 0001:0007a110       _sqlite3_column_origin_name16_interop@12 1007b110 f   interop.obj
 0001:0007a170       _sqlite3_column_origin_name_interop@12 1007b170 f   interop.obj
 0001:0007a1c0       _sqlite3_column_table_name16_interop@12 1007b1c0 f   interop.obj
 0001:0007a220       _sqlite3_column_table_name_interop@12 1007b220 f   interop.obj
 0001:0007a270       _sqlite3_column_database_name16_interop@12 1007b270 f   interop.obj
 0001:0007a2d0       _sqlite3_column_database_name_interop@12 1007b2d0 f   interop.obj
 0001:0007a320       _sqlite3_create_function_interop@36 1007b320 f   interop.obj
 0001:0007a390       _sqlite3_memory_highwater_interop@8 1007b390 f   interop.obj
 0001:0007a3d0       _sqlite3_memory_used_interop@4 1007b3d0 f   interop.obj
 0001:0007a410       _sqlite3_last_insert_rowid_interop@8 1007b410 f   interop.obj
 0001:0007a430       _sqlite3_column_decltype16_interop@12 1007b430 f   interop.obj
 0001:0007a490       _sqlite3_column_decltype_interop@12 1007b490 f   interop.obj
 0001:0007a4e0       _sqlite3_column_name16_interop@12 1007b4e0 f   interop.obj
 0001:0007a540       _sqlite3_column_name_interop@12 1007b540 f   interop.obj
 0001:0007a590       _sqlite3_changes_interop@4 1007b590 f   interop.obj
 0001:0007a5b0       _sqlite3_errmsg_interop@8  1007b5b0 f   interop.obj
 0001:0007a6d0       _sqlite3session_isempty    1007b6d0 f   interop.obj
 0001:0007a740       _sqlite3session_indirect   1007b740 f   interop.obj
 0001:0007a790       _sqlite3session_enable     1007b790 f   interop.obj
 0001:0007b5a0       _sqlite3_busy_timeout      1007c5a0 f   interop.obj
 0001:0007b620       _sqlite3_config            1007c620 f   interop.obj
 0001:0007b9a0       _sqlite3_vtab_collation    1007c9a0 f   interop.obj
 0001:0007d540       _sqlite3_bind_zeroblob     1007e540 f   interop.obj
 0001:0007d590       _sqlite3_bind_pointer      1007e590 f   interop.obj
 0001:0007d620       _sqlite3_bind_null         1007e620 f   interop.obj
 0001:0007d660       _sqlite3_bind_int64        1007e660 f   interop.obj
 0001:0007d6e0       _sqlite3_bind_int          1007e6e0 f   interop.obj
 0001:0007d700       _sqlite3_bind_double       1007e700 f   interop.obj
 0001:0007f310       _sqlite3_os_init           10080310 f   interop.obj
 0001:0007f7f0       _sqlite3_win32_reset_heap  100807f0 f   interop.obj
 0001:0007fde0       _sqlite3_bind_int64_interop@12 10080de0 f   interop.obj
 0001:0007fe20       _sqlite3_bind_double_interop@12 10080e20 f   interop.obj
 0001:0007ffb0       _sqlite3_overload_function 10080fb0 f   interop.obj
 0001:00080b00       _sqlite3_load_extension    10081b00 f   interop.obj
 0001:000814b0       _sqlite3_bind_zeroblob64   100824b0 f   interop.obj
 0001:00081530       _sqlite3_bind_text16       10082530 f   interop.obj
 0001:00081550       _sqlite3_bind_text64       10082550 f   interop.obj
 0001:000815b0       _sqlite3_bind_text         100825b0 f   interop.obj
 0001:000815d0       _sqlite3_bind_blob64       100825d0 f   interop.obj
 0001:00081620       _sqlite3_bind_blob         10082620 f   interop.obj
 0001:00083f20       _sqlite3_preupdate_old     10084f20 f   interop.obj
 0001:00084140       _sqlite3_bind_value        10085140 f   interop.obj
 0001:00086460       _sqlite3_wal_checkpoint_v2 10087460 f   interop.obj
 0001:00086590       _sqlite3_initialize        10087590 f   interop.obj
 0001:000867b0       _sqlite3_complete16        100877b0 f   interop.obj
 0001:00086ac0       _sqlite3_reset_auto_extension 10087ac0 f   interop.obj
 0001:00086b30       _sqlite3_auto_extension    10087b30 f   interop.obj
 0001:00088a40       _sqlite3_win32_set_directory8 10089a40 f   interop.obj
 0001:00088ab0       _sqlite3_win32_utf8_to_mbcs_v2 10089ab0 f   interop.obj
 0001:00088b30       _sqlite3_win32_utf8_to_mbcs 10089b30 f   interop.obj
 0001:00088bb0       _sqlite3_win32_mbcs_to_utf8_v2 10089bb0 f   interop.obj
 0001:00088c30       _sqlite3_win32_mbcs_to_utf8 10089c30 f   interop.obj
 0001:00088cb0       _sqlite3_win32_unicode_to_utf8 10089cb0 f   interop.obj
 0001:00088d00       _sqlite3_win32_utf8_to_unicode 10089d00 f   interop.obj
 0001:00088d50       _sqlite3_realloc           10089d50 f   interop.obj
 0001:00088d90       _sqlite3_malloc            10089d90 f   interop.obj
 0001:00088e20       _sqlite3_soft_heap_limit64 10089e20 f   interop.obj
 0001:00088f20       _sqlite3_mutex_alloc       10089f20 f   interop.obj
 0001:0008bd80       _sqlite3rebaser_create     1008cd80 f   interop.obj
 0001:0008bdc0       _sqlite3changegroup_new    1008cdc0 f   interop.obj
 0001:0008c3f0       _sqlite3session_attach     1008d3f0 f   interop.obj
 0001:0008f170       _sqlite3_wal_checkpoint    10090170 f   interop.obj
 0001:0008f1d0       _sqlite3_shutdown          100901d0 f   interop.obj
 0001:00090b60       _sqlite3_value_dup         10091b60 f   interop.obj
 0001:000920d0       _sqlite3_win32_set_directory16 100930d0 f   interop.obj
 0001:00092120       _sqlite3_soft_heap_limit   10093120 f   interop.obj
 0001:00092220       _sqlite3_percentile_init   10093220 f   interop.obj
 0001:000946d0       _sqlite3_create_disposable_module 100956d0 f   interop.obj
 0001:00094970       _sqlite3_create_disposable_module_interop@112 10095970 f   interop.obj
 0001:00094b10       _sqlite3CodecSizeChange    10095b10 f   interop.obj
 0001:00095530       _sqlite3changeset_start_strm 10096530 f   interop.obj
 0001:00095590       _sqlite3changeset_start    10096590 f   interop.obj
 0001:00096c90       _sqlite3_wal_autocheckpoint 10097c90 f   interop.obj
 0001:000997a0       _sqlite3_win32_set_directory 1009a7a0 f   interop.obj
 0001:0009b860       _RegisterExtensionFunctions 1009c860 f   interop.obj
 0001:0009c580       _sqlite3_rtree_query_callback 1009d580 f   interop.obj
 0001:0009c5e0       _sqlite3_rtree_geometry_callback 1009d5e0 f   interop.obj
 0001:0009ed50       _sqlite3CodecAttach        1009fd50 f   interop.obj
 0001:000a2600       _sqlite3re_compile         100a3600 f   interop.obj
 0001:000a3670       _sqlite3_key_v2            100a4670 f   interop.obj
 0001:000a3690       _sqlite3changegroup_output_strm 100a4690 f   interop.obj
 0001:000a36b0       _sqlite3changegroup_output 100a46b0 f   interop.obj
 0001:000a3700       _sqlite3changeset_invert_strm 100a4700 f   interop.obj
 0001:000a3750       _sqlite3changeset_invert   100a4750 f   interop.obj
 0001:000a6bf0       _sqlite3_cursor_rowid_interop@12 100a7bf0 f   interop.obj
 0001:000a6cd0       _sqlite3_key               100a7cd0 f   interop.obj
 0001:000a7690       _sqlite3changeset_next     100a8690 f   interop.obj
 0001:000a7ba0       _sqlite3_db_cacheflush     100a8ba0 f   interop.obj
 0001:000a9560       _sqlite3_backup_finish     100aa560 f   interop.obj
 0001:000a9f80       _sqlite3_regexp_init       100aaf80 f   interop.obj
 0001:000a9fb0       _sqlite3Json1Init          100aafb0 f   interop.obj
 0001:000aa6a0       _sqlite3_backup_finish_interop@4 100ab6a0 f   interop.obj
 0001:000aa6c0       _sqlite3_rekey_v2          100ab6c0 f   interop.obj
 0001:000aa8b0       _sqlite3_rekey             100ab8b0 f   interop.obj
 0001:000aa8d0       _sqlite3rebaser_rebase_strm 100ab8d0 f   interop.obj
 0001:000aa920       _sqlite3rebaser_rebase     100ab920 f   interop.obj
 0001:000aa970       _sqlite3rebaser_configure  100ab970 f   interop.obj
 0001:000aa9c0       _sqlite3changegroup_add_strm 100ab9c0 f   interop.obj
 0001:000aaa00       _sqlite3changegroup_add    100aba00 f   interop.obj
 0001:000aaa40       _sqlite3_close_v2          100aba40 f   interop.obj
 0001:000aaa60       _sqlite3_close             100aba60 f   interop.obj
 0001:000aba10       _sqlite3_json_init         100aca10 f   interop.obj
 0001:000aba90       _sqlite3_close_interop@4   100aca90 f   interop.obj
 0001:000abab0       _sqlite3changeset_concat_strm 100acab0 f   interop.obj
 0001:000abb80       _sqlite3changeset_concat   100acb80 f   interop.obj
 0001:000ac230       _sqlite3_backup_step       100ad230 f   interop.obj
 0001:000ac7c0       _sqlite3_backup_init       100ad7c0 f   interop.obj
 0001:000b0410       _sqlite3_reset             100b1410 f   interop.obj
 0001:000b04d0       _sqlite3_reset_interop@4   100b14d0 f   interop.obj
 0001:000b0560       _sqlite3_exec              100b1560 f   interop.obj
 0001:000b0ac0       _sqlite3_finalize          100b1ac0 f   interop.obj
 0001:000b0d20       _sqlite3_finalize_interop@4 100b1d20 f   interop.obj
 0001:000b1250       _sqlite3_get_table         100b2250 f   interop.obj
 0001:000b1a10       _sqlite3_blob_write        100b2a10 f   interop.obj
 0001:000b1a30       _sqlite3_blob_read         100b2a30 f   interop.obj
 0001:000b1a50       _sqlite3_blob_close        100b2a50 f   interop.obj
 0001:000b1c20       _sqlite3_blob_close_interop@4 100b2c20 f   interop.obj
 0001:000ba910       _sqlite3_table_column_metadata 100bb910 f   interop.obj
 0001:000bb6c0       _sqlite3_table_column_metadata_interop@44 100bc6c0 f   interop.obj
 0001:000cd320       _sqlite3_declare_vtab      100ce320 f   interop.obj
 0001:000ce590       _sqlite3_prepare_v3        100cf590 f   interop.obj
 0001:000ce660       _sqlite3_step              100cf660 f   interop.obj
 0001:000d0a90       _sqlite3_prepare16_v3      100d1a90 f   interop.obj
 0001:000d0ac0       _sqlite3_prepare16_v2      100d1ac0 f   interop.obj
 0001:000d0af0       _sqlite3_prepare16         100d1af0 f   interop.obj
 0001:000d0ce0       _sqlite3_sha_init          100d1ce0 f   interop.obj
 0001:000d1550       _sqlite3_prepare16_interop@24 100d2550 f   interop.obj
 0001:000d4e90       _sqlite3_blob_reopen       100d5e90 f   interop.obj
 0001:000d4f70       _sqlite3_blob_open         100d5f70 f   interop.obj
 0001:000d61e0       _sqlite3session_patchset   100d71e0 f   interop.obj
 0001:000d6200       _sqlite3session_patchset_strm 100d7200 f   interop.obj
 0001:000d6220       _sqlite3session_changeset_strm 100d7220 f   interop.obj
 0001:000d6240       _sqlite3session_changeset  100d7240 f   interop.obj
 0001:000dc150       _sqlite3session_delete     100dd150 f   interop.obj
 0001:000dc240       _sqlite3session_create     100dd240 f   interop.obj
 0001:000dc350       _sqlite3session_diff       100dd350 f   interop.obj
 0001:000dfa50       _sqlite3changeset_apply_v2_strm 100e0a50 f   interop.obj
 0001:000dfa90       _sqlite3changeset_apply_v2 100e0a90 f   interop.obj
 0001:000e1990       _sqlite3changeset_apply_strm 100e2990 f   interop.obj
 0001:000e19d0       _sqlite3changeset_apply    100e29d0 f   interop.obj
 0001:000e2620       _sqlite3_open16            100e3620 f   interop.obj
 0001:000e2720       _sqlite3_open_v2           100e3720 f   interop.obj
 0001:000e2740       _sqlite3_open              100e3740 f   interop.obj
 0001:000e2d80       _sqlite3_open_interop@20   100e3d80 f   interop.obj
 0001:000e3da0       _sqlite3_open16_interop@20 100e4da0 f   interop.obj
 0001:000ea910       _sqlite3_fts5_init         100eb910 f   interop.obj
 0001:000ea920       _sqlite3_fts_init          100eb920 f   interop.obj
 0001:000ea930       __ftoui3                   100eb930 f   LIBCMT:_ftol3_.obj
 0001:000ea93f       __ftoul3                   100eb93f f   LIBCMT:_ftol3_.obj
 0001:000ea94e       __ftol3                    100eb94e f   LIBCMT:_ftol3_.obj
 0001:000ea95b       __ftol3_NaN                100eb95b f   LIBCMT:_ftol3_.obj
 0001:000ea973       __ftol3_work               100eb973 f   LIBCMT:_ftol3_.obj
 0001:000ea9f9       __ftol3_common             100eb9f9 f   LIBCMT:_ftol3_.obj
 0001:000eaabb       __ftol3_arg_error          100ebabb f   LIBCMT:_ftol3_.obj
 0001:000eaacd       __ftol3_except             100ebacd f   LIBCMT:_ftol3_.obj
 0001:000eab11       __dtoui3                   100ebb11 f   LIBCMT:_ftol3_.obj
 0001:000eab20       __dtoul3                   100ebb20 f   LIBCMT:_ftol3_.obj
 0001:000eab2f       __dtol3                    100ebb2f f   LIBCMT:_ftol3_.obj
 0001:000eab3c       __dtol3_NaN                100ebb3c f   LIBCMT:_ftol3_.obj
 0001:000eab59       __dtol3_work               100ebb59 f   LIBCMT:_ftol3_.obj
 0001:000eac40       __ultod3                   100ebc40 f   LIBCMT:_ftol3_.obj
 0001:000eac80       __ltod3                    100ebc80 f   LIBCMT:_ftol3_.obj
 0001:000eacb0       __aulldiv                  100ebcb0 f   LIBCMT:ulldiv.obj
 0001:000ead20       __allshr                   100ebd20 f   LIBCMT:llshr.obj
 0001:000ead50       __aullrem                  100ebd50 f   LIBCMT:ullrem.obj
 0001:000eadd0       _sinh                      100ebdd0 f   libucrt:87ctrigh.obj
 0001:000eadda       _cosh                      100ebdda f   libucrt:87ctrigh.obj
 0001:000eade1       _tanh                      100ebde1 f   libucrt:87ctrigh.obj
 0001:000eade8       __CIsinh                   100ebde8 f   libucrt:87ctrigh.obj
 0001:000eadf2       __CIcosh                   100ebdf2 f   libucrt:87ctrigh.obj
 0001:000eadf9       __CItanh                   100ebdf9 f   libucrt:87ctrigh.obj
 0001:000eae00       __libm_sse2_tan_precise    100ebe00 f   libucrt:tan_sse2_precise.obj
 0001:000eb070       _atan2                     100ec070 f   libucrt:87ctriga.obj
 0001:000eb07a       __CIatan2                  100ec07a f   libucrt:87ctriga.obj
 0001:000eb090       _floor                     100ec090 f   libucrt:floor_pentium4.obj
 0001:000eb0d0       __floor_pentium4           100ec0d0 f   libucrt:floor_pentium4.obj
 0001:000eb190       __libm_sse2_sqrt_precise   100ec190 f   libucrt:sqrt_sse2_precise.obj
 0001:000eb290       __libm_sse2_pow_precise    100ec290 f   libucrt:pow_sse2_precise.obj
 0001:000ebde0       __libm_sse2_exp_precise    100ecde0 f   libucrt:exp_sse2_precise.obj
 0001:000ec0c0       __libm_sse2_log10_precise  100ed0c0 f   libucrt:log10_sse2_precise.obj
 0001:000ec370       __libm_sse2_log_precise    100ed370 f   libucrt:log_sse2_precise.obj
 0001:000ec600       __libm_sse2_cos_precise    100ed600 f   libucrt:cos_sse2_precise.obj
 0001:000ec7c0       __libm_sse2_sin_precise    100ed7c0 f   libucrt:sin_sse2_precise.obj
 0001:000ec990       __libm_sse2_atan_precise   100ed990 f   libucrt:atan_sse2_precise.obj
 0001:000ecc80       __libm_sse2_asin_precise   100edc80 f   libucrt:asin_sse2_precise.obj
 0001:000ed1d0       __libm_sse2_acos_precise   100ee1d0 f   libucrt:acos_sse2_precise.obj
 0001:000ed6f0       __fFSINH                   100ee6f0     libucrt:87trigh.obj
 0001:000ed742       __fFCOSH                   100ee742     libucrt:87trigh.obj
 0001:000ed7f0       __cintrindisp2             100ee7f0 f   libucrt:87cdisp.obj
 0001:000ed834       __cintrindisp1             100ee834 f   libucrt:87cdisp.obj
 0001:000ed877       __ctrandisp2               100ee877 f   libucrt:87cdisp.obj
 0001:000eda06       __ctrandisp1               100eea06 f   libucrt:87cdisp.obj
 0001:000eda39       __fload                    100eea39 f   libucrt:87cdisp.obj
 0001:000eda80       _tan                       100eea80 f   libucrt:tan.obj
 0001:000edac0       __CItan                    100eeac0 f   libucrt:tan.obj
 0001:000edafb       __CItan_default            100eeafb f   libucrt:tan.obj
 0001:000edb0f       __tan_default              100eeb0f     libucrt:tan.obj
 0001:000edbcc       __fFATN2                   100eebcc     libucrt:87triga.obj
 0001:000edc1c       __rtpiby2                  100eec1c     libucrt:87triga.obj
 0001:000edc58       __floor_default            100eec58 f   libucrt:floor.obj
 0001:000edd20       _pow                       100eed20 f   libucrt:pow.obj
 0001:000edd60       __CIpow                    100eed60 f   libucrt:pow.obj
 0001:000edd9b       __CIpow_default            100eed9b f   libucrt:pow.obj
 0001:000eddb4       __pow_default              100eedb4     libucrt:pow.obj
 0001:000edfb0       _exp                       100eefb0 f   libucrt:87ctran.obj
 0001:000edfec       __CIexp                    100eefec f   libucrt:87ctran.obj
 0001:000ee027       __exp_default              100ef027 f   libucrt:87ctran.obj
 0001:000ee031       __CIexp_default            100ef031 f   libucrt:87ctran.obj
 0001:000ee040       _cos                       100ef040 f   libucrt:cos.obj
 0001:000ee080       __CIcos                    100ef080 f   libucrt:cos.obj
 0001:000ee0bb       __CIcos_default            100ef0bb f   libucrt:cos.obj
 0001:000ee0cf       __cos_default              100ef0cf     libucrt:cos.obj
 0001:000ee170       _sin                       100ef170 f   libucrt:sin.obj
 0001:000ee1b0       __CIsin                    100ef1b0 f   libucrt:sin.obj
 0001:000ee1eb       __CIsin_default            100ef1eb f   libucrt:sin.obj
 0001:000ee1ff       __sin_default              100ef1ff     libucrt:sin.obj
 0001:000ee2a0       _atan                      100ef2a0 f   libucrt:atan.obj
 0001:000ee2e0       __CIatan                   100ef2e0 f   libucrt:atan.obj
 0001:000ee31b       __CIatan_default           100ef31b f   libucrt:atan.obj
 0001:000ee32f       __atan_default             100ef32f     libucrt:atan.obj
 0001:000ee3c0       _asin                      100ef3c0 f   libucrt:asin.obj
 0001:000ee400       __CIasin                   100ef400 f   libucrt:asin.obj
 0001:000ee43b       __CIasin_default           100ef43b f   libucrt:asin.obj
 0001:000ee44f       __asin_default             100ef44f     libucrt:asin.obj
 0001:000ee510       _acos                      100ef510 f   libucrt:acos.obj
 0001:000ee550       __CIacos                   100ef550 f   libucrt:acos.obj
 0001:000ee58b       __CIacos_default           100ef58b f   libucrt:acos.obj
 0001:000ee59f       __acos_default             100ef59f     libucrt:acos.obj
 0001:000ee660       __CItan_pentium4           100ef660 f   libucrt:tan_pentium4.obj
 0001:000ee678       __tan_pentium4             100ef678     libucrt:tan_pentium4.obj
 0001:000ee8c0       __CIpow_pentium4           100ef8c0 f   libucrt:pow_pentium4.obj
 0001:000ee8d9       __pow_pentium4             100ef8d9     libucrt:pow_pentium4.obj
 0001:000ef3e0       __CIexp_pentium4           100f03e0 f   libucrt:exp_pentium4.obj
 0001:000ef3f8       __exp_pentium4             100f03f8     libucrt:exp_pentium4.obj
 0001:000ef6a0       __CIcos_pentium4           100f06a0 f   libucrt:cos_pentium4.obj
 0001:000ef6b8       __cos_pentium4             100f06b8     libucrt:cos_pentium4.obj
 0001:000ef850       __CIsin_pentium4           100f0850 f   libucrt:sin_pentium4.obj
 0001:000ef868       __sin_pentium4             100f0868     libucrt:sin_pentium4.obj
 0001:000efa20       __CIatan_pentium4          100f0a20 f   libucrt:atan_pentium4.obj
 0001:000efa38       __atan_pentium4            100f0a38     libucrt:atan_pentium4.obj
 0001:000efcf0       __CIasin_pentium4          100f0cf0 f   libucrt:asin_pentium4.obj
 0001:000efd08       __asin_pentium4            100f0d08     libucrt:asin_pentium4.obj
 0001:000f0270       __CIacos_pentium4          100f1270 f   libucrt:acos_pentium4.obj
 0001:000f0288       __acos_pentium4            100f1288     libucrt:acos_pentium4.obj
 0001:000f07c4       __CorDllMain@12            100f17c4 f   mscoree:mscoree.dll
 0002:00000000       __imp__CryptCreateHash@20  100f2000     advapi32:ADVAPI32.dll
 0002:00000004       __imp__CryptDestroyKey@4   100f2004     advapi32:ADVAPI32.dll
 0002:00000008       __imp__CryptAcquireContextW@20 100f2008     advapi32:ADVAPI32.dll
 0002:0000000c       __imp__CryptEncrypt@28     100f200c     advapi32:ADVAPI32.dll
 0002:00000010       __imp__CryptDuplicateKey@16 100f2010     advapi32:ADVAPI32.dll
 0002:00000014       __imp__CryptDecrypt@24     100f2014     advapi32:ADVAPI32.dll
 0002:00000018       __imp__CryptDeriveKey@20   100f2018     advapi32:ADVAPI32.dll
 0002:0000001c       __imp__CryptHashData@16    100f201c     advapi32:ADVAPI32.dll
 0002:00000020       __imp__CryptDestroyHash@4  100f2020     advapi32:ADVAPI32.dll
 0002:00000024       \177ADVAPI32_NULL_THUNK_DATA 100f2024     advapi32:ADVAPI32.dll
 0002:00000028       __imp__LockFile@20         100f2028     kernel32:KERNEL32.dll
 0002:0000002c       __imp__LeaveCriticalSection@4 100f202c     kernel32:KERNEL32.dll
 0002:00000030       __imp__InitializeCriticalSection@4 100f2030     kernel32:KERNEL32.dll
 0002:00000034       __imp__SetFilePointer@16   100f2034     kernel32:KERNEL32.dll
 0002:00000038       __imp__GetFullPathNameA@16 100f2038     kernel32:KERNEL32.dll
 0002:0000003c       __imp__SetEndOfFile@4      100f203c     kernel32:KERNEL32.dll
 0002:00000040       __imp__UnlockFileEx@20     100f2040     kernel32:KERNEL32.dll
 0002:00000044       __imp__GetTempPathW@8      100f2044     kernel32:KERNEL32.dll
 0002:00000048       __imp__CreateMutexW@12     100f2048     kernel32:KERNEL32.dll
 0002:0000004c       __imp__WaitForSingleObject@8 100f204c     kernel32:KERNEL32.dll
 0002:00000050       __imp__CreateFileW@28      100f2050     kernel32:KERNEL32.dll
 0002:00000054       __imp__GetFileAttributesW@4 100f2054     kernel32:KERNEL32.dll
 0002:00000058       __imp__GetCurrentThreadId@0 100f2058     kernel32:KERNEL32.dll
 0002:0000005c       __imp__UnmapViewOfFile@4   100f205c     kernel32:KERNEL32.dll
 0002:00000060       __imp__HeapValidate@12     100f2060     kernel32:KERNEL32.dll
 0002:00000064       __imp__HeapSize@12         100f2064     kernel32:KERNEL32.dll
 0002:00000068       __imp__MultiByteToWideChar@24 100f2068     kernel32:KERNEL32.dll
 0002:0000006c       __imp__Sleep@4             100f206c     kernel32:KERNEL32.dll
 0002:00000070       __imp__GetTempPathA@8      100f2070     kernel32:KERNEL32.dll
 0002:00000074       __imp__FormatMessageW@28   100f2074     kernel32:KERNEL32.dll
 0002:00000078       __imp__GetDiskFreeSpaceA@20 100f2078     kernel32:KERNEL32.dll
 0002:0000007c       __imp__GetLastError@0      100f207c     kernel32:KERNEL32.dll
 0002:00000080       __imp__GetFileAttributesA@4 100f2080     kernel32:KERNEL32.dll
 0002:00000084       __imp__GetFileAttributesExW@12 100f2084     kernel32:KERNEL32.dll
 0002:00000088       __imp__OutputDebugStringW@4 100f2088     kernel32:KERNEL32.dll
 0002:0000008c       __imp__FlushViewOfFile@8   100f208c     kernel32:KERNEL32.dll
 0002:00000090       __imp__CreateFileA@28      100f2090     kernel32:KERNEL32.dll
 0002:00000094       __imp__LoadLibraryA@4      100f2094     kernel32:KERNEL32.dll
 0002:00000098       __imp__WaitForSingleObjectEx@12 100f2098     kernel32:KERNEL32.dll
 0002:0000009c       __imp__OutputDebugStringA@4 100f209c     kernel32:KERNEL32.dll
 0002:000000a0       __imp__DeleteFileW@4       100f20a0     kernel32:KERNEL32.dll
 0002:000000a4       __imp__HeapReAlloc@16      100f20a4     kernel32:KERNEL32.dll
 0002:000000a8       __imp__CloseHandle@4       100f20a8     kernel32:KERNEL32.dll
 0002:000000ac       __imp__GetSystemInfo@4     100f20ac     kernel32:KERNEL32.dll
 0002:000000b0       __imp__LoadLibraryW@4      100f20b0     kernel32:KERNEL32.dll
 0002:000000b4       __imp__HeapAlloc@12        100f20b4     kernel32:KERNEL32.dll
 0002:000000b8       __imp__HeapCompact@8       100f20b8     kernel32:KERNEL32.dll
 0002:000000bc       __imp__HeapDestroy@4       100f20bc     kernel32:KERNEL32.dll
 0002:000000c0       __imp__UnlockFile@20       100f20c0     kernel32:KERNEL32.dll
 0002:000000c4       __imp__GetProcAddress@8    100f20c4     kernel32:KERNEL32.dll
 0002:000000c8       __imp__CreateFileMappingA@24 100f20c8     kernel32:KERNEL32.dll
 0002:000000cc       __imp__LocalFree@4         100f20cc     kernel32:KERNEL32.dll
 0002:000000d0       __imp__LockFileEx@24       100f20d0     kernel32:KERNEL32.dll
 0002:000000d4       __imp__GetFileSize@8       100f20d4     kernel32:KERNEL32.dll
 0002:000000d8       __imp__DeleteCriticalSection@4 100f20d8     kernel32:KERNEL32.dll
 0002:000000dc       __imp__GetCurrentProcessId@0 100f20dc     kernel32:KERNEL32.dll
 0002:000000e0       __imp__GetProcessHeap@0    100f20e0     kernel32:KERNEL32.dll
 0002:000000e4       __imp__SystemTimeToFileTime@8 100f20e4     kernel32:KERNEL32.dll
 0002:000000e8       __imp__FreeLibrary@4       100f20e8     kernel32:KERNEL32.dll
 0002:000000ec       __imp__WideCharToMultiByte@32 100f20ec     kernel32:KERNEL32.dll
 0002:000000f0       __imp__GetSystemTimeAsFileTime@4 100f20f0     kernel32:KERNEL32.dll
 0002:000000f4       __imp__GetSystemTime@4     100f20f4     kernel32:KERNEL32.dll
 0002:000000f8       __imp__FormatMessageA@28   100f20f8     kernel32:KERNEL32.dll
 0002:000000fc       __imp__CreateFileMappingW@24 100f20fc     kernel32:KERNEL32.dll
 0002:00000100       __imp__MapViewOfFile@20    100f2100     kernel32:KERNEL32.dll
 0002:00000104       __imp__QueryPerformanceCounter@4 100f2104     kernel32:KERNEL32.dll
 0002:00000108       __imp__GetTickCount@0      100f2108     kernel32:KERNEL32.dll
 0002:0000010c       __imp__FlushFileBuffers@4  100f210c     kernel32:KERNEL32.dll
 0002:00000110       __imp__GetDiskFreeSpaceW@20 100f2110     kernel32:KERNEL32.dll
 0002:00000114       __imp__WriteFile@20        100f2114     kernel32:KERNEL32.dll
 0002:00000118       __imp__GetFullPathNameW@16 100f2118     kernel32:KERNEL32.dll
 0002:0000011c       __imp__AreFileApisANSI@0   100f211c     kernel32:KERNEL32.dll
 0002:00000120       __imp__EnterCriticalSection@4 100f2120     kernel32:KERNEL32.dll
 0002:00000124       __imp__HeapFree@12         100f2124     kernel32:KERNEL32.dll
 0002:00000128       __imp__HeapCreate@12       100f2128     kernel32:KERNEL32.dll
 0002:0000012c       __imp__TryEnterCriticalSection@4 100f212c     kernel32:KERNEL32.dll
 0002:00000130       __imp__ReadFile@20         100f2130     kernel32:KERNEL32.dll
 0002:00000134       __imp__DeleteFileA@4       100f2134     kernel32:KERNEL32.dll
 0002:00000138       __imp__UnhandledExceptionFilter@4 100f2138     kernel32:KERNEL32.dll
 0002:0000013c       __imp__SetUnhandledExceptionFilter@4 100f213c     kernel32:KERNEL32.dll
 0002:00000140       __imp__GetCurrentProcess@0 100f2140     kernel32:KERNEL32.dll
 0002:00000144       __imp__TerminateProcess@8  100f2144     kernel32:KERNEL32.dll
 0002:00000148       __imp__IsProcessorFeaturePresent@4 100f2148     kernel32:KERNEL32.dll
 0002:0000014c       __imp__InitializeSListHead@4 100f214c     kernel32:KERNEL32.dll
 0002:00000150       __imp__IsDebuggerPresent@0 100f2150     kernel32:KERNEL32.dll
 0002:00000154       __imp__GetStartupInfoW@4   100f2154     kernel32:KERNEL32.dll
 0002:00000158       __imp__GetModuleHandleW@4  100f2158     kernel32:KERNEL32.dll
 0002:0000015c       __imp__InterlockedFlushSList@4 100f215c     kernel32:KERNEL32.dll
 0002:00000160       __imp__RtlUnwind@16        100f2160     kernel32:KERNEL32.dll
 0002:00000164       __imp__SetLastError@4      100f2164     kernel32:KERNEL32.dll
 0002:00000168       __imp__InitializeCriticalSectionAndSpinCount@8 100f2168     kernel32:KERNEL32.dll
 0002:0000016c       __imp__TlsAlloc@0          100f216c     kernel32:KERNEL32.dll
 0002:00000170       __imp__TlsGetValue@4       100f2170     kernel32:KERNEL32.dll
 0002:00000174       __imp__TlsSetValue@8       100f2174     kernel32:KERNEL32.dll
 0002:00000178       __imp__TlsFree@4           100f2178     kernel32:KERNEL32.dll
 0002:0000017c       __imp__LoadLibraryExW@12   100f217c     kernel32:KERNEL32.dll
 0002:00000180       __imp__CreateThread@24     100f2180     kernel32:KERNEL32.dll
 0002:00000184       __imp__ExitThread@4        100f2184     kernel32:KERNEL32.dll
 0002:00000188       __imp__FreeLibraryAndExitThread@8 100f2188     kernel32:KERNEL32.dll
 0002:0000018c       __imp__GetModuleHandleExW@12 100f218c     kernel32:KERNEL32.dll
 0002:00000190       __imp__ExitProcess@4       100f2190     kernel32:KERNEL32.dll
 0002:00000194       __imp__GetModuleFileNameA@12 100f2194     kernel32:KERNEL32.dll
 0002:00000198       __imp__CompareStringW@24   100f2198     kernel32:KERNEL32.dll
 0002:0000019c       __imp__LCMapStringW@24     100f219c     kernel32:KERNEL32.dll
 0002:000001a0       __imp__GetACP@0            100f21a0     kernel32:KERNEL32.dll
 0002:000001a4       __imp__GetTimeZoneInformation@4 100f21a4     kernel32:KERNEL32.dll
 0002:000001a8       __imp__FindClose@4         100f21a8     kernel32:KERNEL32.dll
 0002:000001ac       __imp__FindFirstFileExA@24 100f21ac     kernel32:KERNEL32.dll
 0002:000001b0       __imp__FindNextFileA@8     100f21b0     kernel32:KERNEL32.dll
 0002:000001b4       __imp__IsValidCodePage@4   100f21b4     kernel32:KERNEL32.dll
 0002:000001b8       __imp__GetOEMCP@0          100f21b8     kernel32:KERNEL32.dll
 0002:000001bc       __imp__GetCPInfo@8         100f21bc     kernel32:KERNEL32.dll
 0002:000001c0       __imp__GetCommandLineA@0   100f21c0     kernel32:KERNEL32.dll
 0002:000001c4       __imp__GetCommandLineW@0   100f21c4     kernel32:KERNEL32.dll
 0002:000001c8       __imp__GetEnvironmentStringsW@0 100f21c8     kernel32:KERNEL32.dll
 0002:000001cc       __imp__FreeEnvironmentStringsW@4 100f21cc     kernel32:KERNEL32.dll
 0002:000001d0       __imp__SetEnvironmentVariableA@8 100f21d0     kernel32:KERNEL32.dll
 0002:000001d4       __imp__GetStdHandle@4      100f21d4     kernel32:KERNEL32.dll
 0002:000001d8       __imp__GetFileType@4       100f21d8     kernel32:KERNEL32.dll
 0002:000001dc       __imp__GetStringTypeW@16   100f21dc     kernel32:KERNEL32.dll
 0002:000001e0       __imp__SetStdHandle@8      100f21e0     kernel32:KERNEL32.dll
 0002:000001e4       __imp__DecodePointer@4     100f21e4     kernel32:KERNEL32.dll
 0002:000001e8       __imp__GetConsoleCP@0      100f21e8     kernel32:KERNEL32.dll
 0002:000001ec       __imp__GetConsoleMode@8    100f21ec     kernel32:KERNEL32.dll
 0002:000001f0       __imp__SetFilePointerEx@20 100f21f0     kernel32:KERNEL32.dll
 0002:000001f4       __imp__RaiseException@16   100f21f4     kernel32:KERNEL32.dll
 0002:000001f8       __imp__WriteConsoleW@20    100f21f8     kernel32:KERNEL32.dll
 0002:000001fc       \177KERNEL32_NULL_THUNK_DATA 100f21fc     kernel32:KERNEL32.dll
 0002:00000200       __imp___CorDllMain@12      100f2200     mscoree:mscoree.dll
 0002:00000204       \177mscoree_NULL_THUNK_DATA 100f2204     mscoree:mscoree.dll
 0002:00000208       ___guard_check_icall_fptr  100f2208     LIBCMT:guard_support.obj
 0002:0000020c       ___xc_a                    100f220c     LIBCMT:initializers.obj
 0002:00000210       ___xc_z                    100f2210     LIBCMT:initializers.obj
 0002:00000214       ___xi_a                    100f2214     LIBCMT:initializers.obj
 0002:00000218       ___acrt_timeset_initializer 100f2218     libucrt:timeset_initializer.obj
 0002:0000021c       ___acrt_multibyte_initializer 100f221c     libucrt:multibyte_initializer.obj
 0002:00000220       ___acrt_stdio_initializer  100f2220     libucrt:stdio_initializer.obj
 0002:00000224       ___acrt_tran_sse2_initializer 100f2224     libucrt:sse2_initializer.obj
 0002:00000228       ___xi_z                    100f2228     LIBCMT:initializers.obj
 0002:0000022c       ___xp_a                    100f222c     LIBCMT:initializers.obj
 0002:00000230       ___acrt_locale_terminator  100f2230     libucrt:locale_initializer.obj
 0002:00000234       ___dcrt_console_output_terminator 100f2234     libucrt:console_output_initializer.obj
 0002:00000238       ___acrt_stdio_terminator   100f2238     libucrt:stdio_initializer.obj
 0002:0000023c       ___xp_z                    100f223c     LIBCMT:initializers.obj
 0002:00000240       ___xt_a                    100f2240     LIBCMT:initializers.obj
 0002:00000244       ___xt_z                    100f2244     LIBCMT:initializers.obj
 0002:00000258       __pDefaultRawDllMain       100f2258     LIBCMT:dll_dllmain.obj
 0002:00000258       __pRawDllMain              100f2258     LIBCMT:dll_dllmain.obj
 0002:0000026c       ??_C@_1BC@DNHGCMLG@?$AAa?$AAd?$AAv?$AAa?$AAp?$AAi?$AA3?$AA2?$AA?$AA@ 100f226c     libvcruntime:winapi_downlevel.obj
 0002:00000280       ??_C@_1DM@KHCHBNEB@?$AAa?$AAp?$AAi?$AA?9?$AAm?$AAs?$AA?9?$AAw?$AAi?$AAn?$AA?9?$AAc?$AAo?$AAr?$AAe?$AA?9?$AAf?$AAi?$AAb?$AAe?$AAr?$AAs?$AA?9?$AAl?$AA1?$AA?9?$AA1?$AA?9?$AA1?$AA?$AA@ 100f2280     libvcruntime:winapi_downlevel.obj
 0002:000002bc       ??_C@_1DK@LPPGFMPP@?$AAa?$AAp?$AAi?$AA?9?$AAm?$AAs?$AA?9?$AAw?$AAi?$AAn?$AA?9?$AAc?$AAo?$AAr?$AAe?$AA?9?$AAs?$AAy?$AAn?$AAc?$AAh?$AA?9?$AAl?$AA1?$AA?9?$AA2?$AA?9?$AA0?$AA?$AA@ 100f22bc     libvcruntime:winapi_downlevel.obj
 0002:000002f8       ??_C@_1BC@GDMECMAK@?$AAk?$AAe?$AAr?$AAn?$AAe?$AAl?$AA3?$AA2?$AA?$AA@ 100f22f8     libvcruntime:winapi_downlevel.obj
 0002:00000314       ??_C@_08KNHFBNJ@FlsAlloc?$AA@ 100f2314     libvcruntime:winapi_downlevel.obj
 0002:00000328       ??_C@_07PEJMOBNF@FlsFree?$AA@ 100f2328     libvcruntime:winapi_downlevel.obj
 0002:00000338       ??_C@_0M@GDNOONDI@FlsGetValue?$AA@ 100f2338     libvcruntime:winapi_downlevel.obj
 0002:0000034c       ??_C@_0M@JCPCPOEF@FlsSetValue?$AA@ 100f234c     libvcruntime:winapi_downlevel.obj
 0002:00000360       ??_C@_0BM@HCFOFFN@InitializeCriticalSectionEx?$AA@ 100f2360     libvcruntime:winapi_downlevel.obj
 0002:00000510       ??_C@_08EHJDFFNH@__based?$CI?$AA@ 100f2510     libvcruntime:undname.obj
 0002:0000051c       ??_C@_07KOLFKCDI@__cdecl?$AA@ 100f251c     libvcruntime:undname.obj
 0002:00000524       ??_C@_08GHMPAG@__pascal?$AA@ 100f2524     libvcruntime:undname.obj
 0002:00000530       ??_C@_09IFJBGAPI@__stdcall?$AA@ 100f2530     libvcruntime:undname.obj
 0002:0000053c       ??_C@_0L@NPHFGOKO@__thiscall?$AA@ 100f253c     libvcruntime:undname.obj
 0002:00000548       ??_C@_0L@JMKHOMEK@__fastcall?$AA@ 100f2548     libvcruntime:undname.obj
 0002:00000554       ??_C@_0N@BCKKPABJ@__vectorcall?$AA@ 100f2554     libvcruntime:undname.obj
 0002:00000564       ??_C@_09HIJEGCPM@__clrcall?$AA@ 100f2564     libvcruntime:undname.obj
 0002:00000570       ??_C@_06GHPCKEAG@__eabi?$AA@ 100f2570     libvcruntime:undname.obj
 0002:00000578       ??_C@_07JOMMBBKO@__ptr64?$AA@ 100f2578     libvcruntime:undname.obj
 0002:00000580       ??_C@_0L@PILCLIHE@__restrict?$AA@ 100f2580     libvcruntime:undname.obj
 0002:0000058c       ??_C@_0M@GFIIJFMG@__unaligned?$AA@ 100f258c     libvcruntime:undname.obj
 0002:00000598       ??_C@_09DHDLOLLB@restrict?$CI?$AA@ 100f2598     libvcruntime:undname.obj
 0002:000005a4       ??_C@_04NIHEBCM@?5new?$AA@ 100f25a4     libvcruntime:undname.obj
 0002:000005ac       ??_C@_07FPCDHGMM@?5delete?$AA@ 100f25ac     libvcruntime:undname.obj
 0002:000005b4       ??_C@_02GPIOPFAK@?$DO?$DO?$AA@ 100f25b4     libvcruntime:undname.obj
 0002:000005b8       ??_C@_02FODMEDOG@?$DM?$DM?$AA@ 100f25b8     libvcruntime:undname.obj
 0002:000005bc       ??_C@_01DCLJPIOD@?$CB?$AA@ 100f25bc     libvcruntime:undname.obj
 0002:000005c0       ??_C@_02EGOFBIJA@?$DN?$DN?$AA@ 100f25c0     libvcruntime:undname.obj
 0002:000005c4       ??_C@_02FDNJECIE@?$CB?$DN?$AA@ 100f25c4     libvcruntime:undname.obj
 0002:000005c8       ??_C@_08LHJFAFGD@operator?$AA@ 100f25c8     libvcruntime:undname.obj
 0002:000005d4       ??_C@_02HBOOOICD@?9?$DO?$AA@ 100f25d4     libvcruntime:undname.obj
 0002:000005d8       ??_C@_02ECNGHCIF@?$CL?$CL?$AA@ 100f25d8     libvcruntime:undname.obj
 0002:000005dc       ??_C@_01HNPIGOCE@?$CG?$AA@ 100f25dc     libvcruntime:undname.obj
 0002:000005e0       ??_C@_03MNHNFDLC@?9?$DO?$CK?$AA@ 100f25e0     libvcruntime:undname.obj
 0002:000005e4       ??_C@_02EHCHHCKH@?$DM?$DN?$AA@ 100f25e4     libvcruntime:undname.obj
 0002:000005e8       ??_C@_02EEKDKGMJ@?$DO?$DN?$AA@ 100f25e8     libvcruntime:undname.obj
 0002:000005ec       ??_C@_02HCKGKOFO@?$CI?$CJ?$AA@ 100f25ec     libvcruntime:undname.obj
 0002:000005f0       ??_C@_01PJKLJHI@?$HO?$AA@  100f25f0     libvcruntime:undname.obj
 0002:000005f4       ??_C@_01JKBOJNNK@?$FO?$AA@ 100f25f4     libvcruntime:undname.obj
 0002:000005f8       ??_C@_01DNKMNLPK@?$HM?$AA@ 100f25f8     libvcruntime:undname.obj
 0002:000005fc       ??_C@_02PPKAJPJL@?$CG?$CG?$AA@ 100f25fc     libvcruntime:undname.obj
 0002:00000600       ??_C@_02NONPIBCD@?$HM?$HM?$AA@ 100f2600     libvcruntime:undname.obj
 0002:00000604       ??_C@_02FPIMKNGF@?$CK?$DN?$AA@ 100f2604     libvcruntime:undname.obj
 0002:00000608       ??_C@_02FOEOMHFC@?$CL?$DN?$AA@ 100f2608     libvcruntime:undname.obj
 0002:0000060c       ??_C@_02FKMDLLOA@?9?$DN?$AA@ 100f260c     libvcruntime:undname.obj
 0002:00000610       ??_C@_02FJEHGPIO@?1?$DN?$AA@ 100f2610     libvcruntime:undname.obj
 0002:00000614       ??_C@_02FENAOKFI@?$CF?$DN?$AA@ 100f2614     libvcruntime:undname.obj
 0002:00000618       ??_C@_03IKFCCPFF@?$DO?$DO?$DN?$AA@ 100f2618     libvcruntime:undname.obj
 0002:0000061c       ??_C@_03CDNPDDLA@?$DM?$DM?$DN?$AA@ 100f261c     libvcruntime:undname.obj
 0002:00000620       ??_C@_02FGJGFEAB@?$CG?$DN?$AA@ 100f2620     libvcruntime:undname.obj
 0002:00000624       ??_C@_02DHLNPPGH@?$HM?$DN?$AA@ 100f2624     libvcruntime:undname.obj
 0002:00000628       ??_C@_02MHEGNOJ@?$FO?$DN?$AA@ 100f2628     libvcruntime:undname.obj
 0002:0000062c       ??_C@_09IFPLHPGF@?$GAvftable?8?$AA@ 100f262c     libvcruntime:undname.obj
 0002:00000638       ??_C@_09BLBHBJP@?$GAvbtable?8?$AA@ 100f2638     libvcruntime:undname.obj
 0002:00000644       ??_C@_07FEEIOKP@?$GAvcall?8?$AA@ 100f2644     libvcruntime:undname.obj
 0002:0000064c       ??_C@_08LLFFHHDJ@?$GAtypeof?8?$AA@ 100f264c     libvcruntime:undname.obj
 0002:00000658       ??_C@_0BF@KDPPACIK@?$GAlocal?5static?5guard?8?$AA@ 100f2658     libvcruntime:undname.obj
 0002:00000670       ??_C@_08OBABFOLI@?$GAstring?8?$AA@ 100f2670     libvcruntime:undname.obj
 0002:0000067c       ??_C@_0BD@JDLKDPAB@?$GAvbase?5destructor?8?$AA@ 100f267c     libvcruntime:undname.obj
 0002:00000690       ??_C@_0BN@DEGPLNFK@?$GAvector?5deleting?5destructor?8?$AA@ 100f2690     libvcruntime:undname.obj
 0002:000006b0       ??_C@_0BO@OBMKPJIG@?$GAdefault?5constructor?5closure?8?$AA@ 100f26b0     libvcruntime:undname.obj
 0002:000006d0       ??_C@_0BN@IMDCHIKM@?$GAscalar?5deleting?5destructor?8?$AA@ 100f26d0     libvcruntime:undname.obj
 0002:000006f0       ??_C@_0BO@PFGOCPJJ@?$GAvector?5constructor?5iterator?8?$AA@ 100f26f0     libvcruntime:undname.obj
 0002:00000710       ??_C@_0BN@LFPFMEDL@?$GAvector?5destructor?5iterator?8?$AA@ 100f2710     libvcruntime:undname.obj
 0002:00000730       ??_C@_0CE@IKBNEHA@?$GAvector?5vbase?5constructor?5iterat@ 100f2730     libvcruntime:undname.obj
 0002:00000754       ??_C@_0BL@NILFHHPC@?$GAvirtual?5displacement?5map?8?$AA@ 100f2754     libvcruntime:undname.obj
 0002:00000770       ??_C@_0CB@JONCMFFK@?$GAeh?5vector?5constructor?5iterator?8@ 100f2770     libvcruntime:undname.obj
 0002:00000794       ??_C@_0CA@GCEOPDGL@?$GAeh?5vector?5destructor?5iterator?8?$AA@ 100f2794     libvcruntime:undname.obj
 0002:000007b4       ??_C@_0CH@OOJPLCPH@?$GAeh?5vector?5vbase?5constructor?5ite@ 100f27b4     libvcruntime:undname.obj
 0002:000007dc       ??_C@_0BL@LLKPOHJI@?$GAcopy?5constructor?5closure?8?$AA@ 100f27dc     libvcruntime:undname.obj
 0002:000007f8       ??_C@_0BA@KBCDOMBN@?$GAudt?5returning?8?$AA@ 100f27f8     libvcruntime:undname.obj
 0002:00000808       ??_C@_03KLGMFNMG@?$GAEH?$AA@ 100f2808     libvcruntime:undname.obj
 0002:0000080c       ??_C@_05KHLCHHI@?$GARTTI?$AA@ 100f280c     libvcruntime:undname.obj
 0002:00000814       ??_C@_0BA@KKLDJDLB@?$GAlocal?5vftable?8?$AA@ 100f2814     libvcruntime:undname.obj
 0002:00000824       ??_C@_0CE@IIHCMGGL@?$GAlocal?5vftable?5constructor?5closu@ 100f2824     libvcruntime:undname.obj
 0002:00000848       ??_C@_06FHBGPFGH@?5new?$FL?$FN?$AA@ 100f2848     libvcruntime:undname.obj
 0002:00000850       ??_C@_09LBNFPBCA@?5delete?$FL?$FN?$AA@ 100f2850     libvcruntime:undname.obj
 0002:0000085c       ??_C@_0P@HJKNJFNN@?$GAomni?5callsig?8?$AA@ 100f285c     libvcruntime:undname.obj
 0002:0000086c       ??_C@_0BL@CNOONJFP@?$GAplacement?5delete?5closure?8?$AA@ 100f286c     libvcruntime:undname.obj
 0002:00000888       ??_C@_0BN@CKNJLHMB@?$GAplacement?5delete?$FL?$FN?5closure?8?$AA@ 100f2888     libvcruntime:undname.obj
 0002:000008a8       ??_C@_0CG@CFDHKGGD@?$GAmanaged?5vector?5constructor?5iter@ 100f28a8     libvcruntime:undname.obj
 0002:000008d0       ??_C@_0CF@IMGKMJNO@?$GAmanaged?5vector?5destructor?5itera@ 100f28d0     libvcruntime:undname.obj
 0002:000008f8       ??_C@_0CG@HLDDJMAG@?$GAeh?5vector?5copy?5constructor?5iter@ 100f28f8     libvcruntime:undname.obj
 0002:00000920       ??_C@_0CM@FCBBDIGB@?$GAeh?5vector?5vbase?5copy?5constructo@ 100f2920     libvcruntime:undname.obj
 0002:0000094c       ??_C@_0BL@CLIPGLGB@?$GAdynamic?5initializer?5for?5?8?$AA@ 100f294c     libvcruntime:undname.obj
 0002:00000968       ??_C@_0CB@PDBIFEP@?$GAdynamic?5atexit?5destructor?5for?5?8@ 100f2968     libvcruntime:undname.obj
 0002:0000098c       ??_C@_0CD@CGAJBKEJ@?$GAvector?5copy?5constructor?5iterato@ 100f298c     libvcruntime:undname.obj
 0002:000009b0       ??_C@_0CJ@GJELGAMM@?$GAvector?5vbase?5copy?5constructor?5i@ 100f29b0     libvcruntime:undname.obj
 0002:000009dc       ??_C@_0CL@FGIJHLCE@?$GAmanaged?5vector?5copy?5constructor@ 100f29dc     libvcruntime:undname.obj
 0002:00000a08       ??_C@_0BM@PMGGMLDN@?$GAlocal?5static?5thread?5guard?8?$AA@ 100f2a08     libvcruntime:undname.obj
 0002:00000a24       ??_C@_0N@BDNMDMOL@operator?5?$CC?$CC?5?$AA@ 100f2a24     libvcruntime:undname.obj
 0002:00000a34       ??_C@_0BC@DAFEJGAK@?5Type?5Descriptor?8?$AA@ 100f2a34     libvcruntime:undname.obj
 0002:00000a48       ??_C@_0BM@LDKODKLH@?5Base?5Class?5Descriptor?5at?5?$CI?$AA@ 100f2a48     libvcruntime:undname.obj
 0002:00000a64       ??_C@_0BD@LGICGFMM@?5Base?5Class?5Array?8?$AA@ 100f2a64     libvcruntime:undname.obj
 0002:00000a78       ??_C@_0BN@MECKDCOJ@?5Class?5Hierarchy?5Descriptor?8?$AA@ 100f2a78     libvcruntime:undname.obj
 0002:00000a98       ??_C@_0BK@CFCOFLF@?5Complete?5Object?5Locator?8?$AA@ 100f2a98     libvcruntime:undname.obj
 0002:00000c20       __real@3fe62e42fefa39ef    100f2c20     libucrt:acosh.obj
 0002:00000c28       ??_C@_0EA@FCLIIPNN@Visual?5C?$CL?$CL?5CRT?3?5Not?5enough?5memor@ 100f2c28     libucrt:strerror.obj
 0002:00000c68       ___acrt_exception_action_table 100f2c68     libucrt:exception_filter.obj
 0002:00000cf8       ___acrt_signal_action_table_count 100f2cf8     libucrt:exception_filter.obj
 0002:00000cfc       ___acrt_signal_action_first_fpe_index 100f2cfc     libucrt:exception_filter.obj
 0002:00000d00       ___acrt_signal_action_fpe_count 100f2d00     libucrt:exception_filter.obj
 0002:00000d04       ??_C@_1BI@BGOHAHKC@?$AAm?$AAs?$AAc?$AAo?$AAr?$AAe?$AAe?$AA?4?$AAd?$AAl?$AAl?$AA?$AA@ 100f2d04     libucrt:exit.obj
 0002:00000d1c       ??_C@_0P@MIGLKIOC@CorExitProcess?$AA@ 100f2d1c     libucrt:exit.obj
 0002:00000df8       ??_C@_1EG@CNNIPFIM@?$AAa?$AAp?$AAi?$AA?9?$AAm?$AAs?$AA?9?$AAw?$AAi?$AAn?$AA?9?$AAa?$AAp?$AAp?$AAm?$AAo?$AAd?$AAe?$AAl?$AA?9?$AAr?$AAu?$AAn?$AAt?$AAi?$AAm?$AAe?$AA?9?$AAl?$AA1?$AA?9?$AA1@ 100f2df8     libucrt:winapi_thunks.obj
 0002:00000e40       ??_C@_1EA@JGEFHKEI@?$AAa?$AAp?$AAi?$AA?9?$AAm?$AAs?$AA?9?$AAw?$AAi?$AAn?$AA?9?$AAc?$AAo?$AAr?$AAe?$AA?9?$AAd?$AAa?$AAt?$AAe?$AAt?$AAi?$AAm?$AAe?$AA?9?$AAl?$AA1?$AA?9?$AA1?$AA?9?$AA1?$AA?$AA@ 100f2e40     libucrt:winapi_thunks.obj
 0002:00000e80       ??_C@_1DI@GCIAAENM@?$AAa?$AAp?$AAi?$AA?9?$AAm?$AAs?$AA?9?$AAw?$AAi?$AAn?$AA?9?$AAc?$AAo?$AAr?$AAe?$AA?9?$AAf?$AAi?$AAl?$AAe?$AA?9?$AAl?$AA2?$AA?9?$AA1?$AA?9?$AA1?$AA?$AA@ 100f2e80     libucrt:winapi_thunks.obj
 0002:00000eb8       ??_C@_1EI@MPIAOHOC@?$AAa?$AAp?$AAi?$AA?9?$AAm?$AAs?$AA?9?$AAw?$AAi?$AAn?$AA?9?$AAc?$AAo?$AAr?$AAe?$AA?9?$AAl?$AAo?$AAc?$AAa?$AAl?$AAi?$AAz?$AAa?$AAt?$AAi?$AAo?$AAn?$AA?9?$AAl?$AA1?$AA?9@ 100f2eb8     libucrt:winapi_thunks.obj
 0002:00000f00       ??_C@_1FK@FPHCKFIE@?$AAa?$AAp?$AAi?$AA?9?$AAm?$AAs?$AA?9?$AAw?$AAi?$AAn?$AA?9?$AAc?$AAo?$AAr?$AAe?$AA?9?$AAl?$AAo?$AAc?$AAa?$AAl?$AAi?$AAz?$AAa?$AAt?$AAi?$AAo?$AAn?$AA?9?$AAo?$AAb?$AAs@ 100f2f00     libucrt:winapi_thunks.obj
 0002:00000f60       ??_C@_1EM@DILCGIIO@?$AAa?$AAp?$AAi?$AA?9?$AAm?$AAs?$AA?9?$AAw?$AAi?$AAn?$AA?9?$AAc?$AAo?$AAr?$AAe?$AA?9?$AAp?$AAr?$AAo?$AAc?$AAe?$AAs?$AAs?$AAt?$AAh?$AAr?$AAe?$AAa?$AAd?$AAs?$AA?9?$AAl@ 100f2f60     libucrt:winapi_thunks.obj
 0002:00000fac       ??_C@_1DM@LNCGDDPN@?$AAa?$AAp?$AAi?$AA?9?$AAm?$AAs?$AA?9?$AAw?$AAi?$AAn?$AA?9?$AAc?$AAo?$AAr?$AAe?$AA?9?$AAs?$AAt?$AAr?$AAi?$AAn?$AAg?$AA?9?$AAl?$AA1?$AA?9?$AA1?$AA?9?$AA0?$AA?$AA@ 100f2fac     libucrt:winapi_thunks.obj
 0002:00000fe8       ??_C@_1DO@FPAPJEMD@?$AAa?$AAp?$AAi?$AA?9?$AAm?$AAs?$AA?9?$AAw?$AAi?$AAn?$AA?9?$AAc?$AAo?$AAr?$AAe?$AA?9?$AAs?$AAy?$AAs?$AAi?$AAn?$AAf?$AAo?$AA?9?$AAl?$AA1?$AA?9?$AA2?$AA?9?$AA1?$AA?$AA@ 100f2fe8     libucrt:winapi_thunks.obj
 0002:00001028       ??_C@_1DK@NDHNAHIO@?$AAa?$AAp?$AAi?$AA?9?$AAm?$AAs?$AA?9?$AAw?$AAi?$AAn?$AA?9?$AAc?$AAo?$AAr?$AAe?$AA?9?$AAw?$AAi?$AAn?$AAr?$AAt?$AA?9?$AAl?$AA1?$AA?9?$AA1?$AA?9?$AA0?$AA?$AA@ 100f3028     libucrt:winapi_thunks.obj
 0002:00001064       ??_C@_1DM@KGHDGBCM@?$AAa?$AAp?$AAi?$AA?9?$AAm?$AAs?$AA?9?$AAw?$AAi?$AAn?$AA?9?$AAc?$AAo?$AAr?$AAe?$AA?9?$AAx?$AAs?$AAt?$AAa?$AAt?$AAe?$AA?9?$AAl?$AA2?$AA?9?$AA1?$AA?9?$AA0?$AA?$AA@ 100f3064     libucrt:winapi_thunks.obj
 0002:000010a0       ??_C@_1EO@IJIOEFOH@?$AAa?$AAp?$AAi?$AA?9?$AAm?$AAs?$AA?9?$AAw?$AAi?$AAn?$AA?9?$AAr?$AAt?$AAc?$AAo?$AAr?$AAe?$AA?9?$AAn?$AAt?$AAu?$AAs?$AAe?$AAr?$AA?9?$AAw?$AAi?$AAn?$AAd?$AAo?$AAw?$AA?9@ 100f30a0     libucrt:winapi_thunks.obj
 0002:000010f0       ??_C@_1FG@HHGEKANL@?$AAa?$AAp?$AAi?$AA?9?$AAm?$AAs?$AA?9?$AAw?$AAi?$AAn?$AA?9?$AAs?$AAe?$AAc?$AAu?$AAr?$AAi?$AAt?$AAy?$AA?9?$AAs?$AAy?$AAs?$AAt?$AAe?$AAm?$AAf?$AAu?$AAn?$AAc?$AAt?$AAi@ 100f30f0     libucrt:winapi_thunks.obj
 0002:00001148       ??_C@_1FG@NCKKOLKO@?$AAe?$AAx?$AAt?$AA?9?$AAm?$AAs?$AA?9?$AAw?$AAi?$AAn?$AA?9?$AAk?$AAe?$AAr?$AAn?$AAe?$AAl?$AA3?$AA2?$AA?9?$AAp?$AAa?$AAc?$AAk?$AAa?$AAg?$AAe?$AA?9?$AAc?$AAu?$AAr?$AAr@ 100f3148     libucrt:winapi_thunks.obj
 0002:000011a0       ??_C@_1EG@DBIOJECG@?$AAe?$AAx?$AAt?$AA?9?$AAm?$AAs?$AA?9?$AAw?$AAi?$AAn?$AA?9?$AAn?$AAt?$AAu?$AAs?$AAe?$AAr?$AA?9?$AAd?$AAi?$AAa?$AAl?$AAo?$AAg?$AAb?$AAo?$AAx?$AA?9?$AAl?$AA1?$AA?9?$AA1@ 100f31a0     libucrt:winapi_thunks.obj
 0002:000011e8       ??_C@_1EO@FIHMJCLF@?$AAe?$AAx?$AAt?$AA?9?$AAm?$AAs?$AA?9?$AAw?$AAi?$AAn?$AA?9?$AAn?$AAt?$AAu?$AAs?$AAe?$AAr?$AA?9?$AAw?$AAi?$AAn?$AAd?$AAo?$AAw?$AAs?$AAt?$AAa?$AAt?$AAi?$AAo?$AAn?$AA?9@ 100f31e8     libucrt:winapi_thunks.obj
 0002:00001238       ??_C@_1O@BCCLBEOE@?$AAu?$AAs?$AAe?$AAr?$AA3?$AA2?$AA?$AA@ 100f3238     libucrt:winapi_thunks.obj
 0002:00001250       ??_C@_0BA@IHGNDAEB@CompareStringEx?$AA@ 100f3250     libucrt:winapi_thunks.obj
 0002:00001288       ??_C@_0BE@JOGNEJCI@GetCurrentPackageId?$AA@ 100f3288     libucrt:winapi_thunks.obj
 0002:000012ac       ??_C@_0O@KKBNKAPF@LCMapStringEx?$AA@ 100f32ac     libucrt:winapi_thunks.obj
 0002:000012c4       ??_C@_0BB@HBDEELFH@LocaleNameToLCID?$AA@ 100f32c4     libucrt:winapi_thunks.obj
 0002:000012dc       ??_C@_0N@PPOMPGGK@RoInitialize?$AA@ 100f32dc     libucrt:winapi_thunks.obj
 0002:000012f0       ??_C@_0P@LLFHBIJD@RoUninitialize?$AA@ 100f32f0     libucrt:winapi_thunks.obj
 0002:00001300       ___newctype                100f3300     libucrt:ctype.obj
 0002:00001600       ___newclmap                100f3600     libucrt:ctype.obj
 0002:00001780       ___newcumap                100f3780     libucrt:ctype.obj
 0002:00001900       ??_C@_03KOEHGMDN@Sun?$AA@  100f3900     libucrt:nlsdata.obj
 0002:00001904       ??_C@_03PDAGKDH@Mon?$AA@   100f3904     libucrt:nlsdata.obj
 0002:00001908       ??_C@_03NAGEINEP@Tue?$AA@  100f3908     libucrt:nlsdata.obj
 0002:0000190c       ??_C@_03MHOMLAJA@Wed?$AA@  100f390c     libucrt:nlsdata.obj
 0002:00001910       ??_C@_03IOFIKPDN@Thu?$AA@  100f3910     libucrt:nlsdata.obj
 0002:00001914       ??_C@_03IDIOELNC@Fri?$AA@  100f3914     libucrt:nlsdata.obj
 0002:00001918       ??_C@_03FEFJNEK@Sat?$AA@   100f3918     libucrt:nlsdata.obj
 0002:0000191c       ??_C@_06OOPIFAJ@Sunday?$AA@ 100f391c     libucrt:nlsdata.obj
 0002:00001924       ??_C@_06JLEDEDGH@Monday?$AA@ 100f3924     libucrt:nlsdata.obj
 0002:0000192c       ??_C@_07BAAGCFCM@Tuesday?$AA@ 100f392c     libucrt:nlsdata.obj
 0002:00001934       ??_C@_09DLIGFAKA@Wednesday?$AA@ 100f3934     libucrt:nlsdata.obj
 0002:00001940       ??_C@_08HACCIKIA@Thursday?$AA@ 100f3940     libucrt:nlsdata.obj
 0002:0000194c       ??_C@_06JECMNKMI@Friday?$AA@ 100f394c     libucrt:nlsdata.obj
 0002:00001954       ??_C@_08INBOOONO@Saturday?$AA@ 100f3954     libucrt:nlsdata.obj
 0002:00001960       ??_C@_03JIHJHPIE@Jan?$AA@  100f3960     libucrt:nlsdata.obj
 0002:00001964       ??_C@_03HJBDCHOM@Feb?$AA@  100f3964     libucrt:nlsdata.obj
 0002:00001968       ??_C@_03ODNJBKGA@Mar?$AA@  100f3968     libucrt:nlsdata.obj
 0002:0000196c       ??_C@_03LEOLGMJP@Apr?$AA@  100f396c     libucrt:nlsdata.obj
 0002:00001970       ??_C@_03CNMDKL@May?$AA@    100f3970     libucrt:nlsdata.obj
 0002:00001974       ??_C@_03IDFGHECI@Jun?$AA@  100f3974     libucrt:nlsdata.obj
 0002:00001978       ??_C@_03LBGABGKK@Jul?$AA@  100f3978     libucrt:nlsdata.obj
 0002:0000197c       ??_C@_03IFJFEIGA@Aug?$AA@  100f397c     libucrt:nlsdata.obj
 0002:00001980       ??_C@_03GGCAPAJC@Sep?$AA@  100f3980     libucrt:nlsdata.obj
 0002:00001984       ??_C@_03BMAOKBAD@Oct?$AA@  100f3984     libucrt:nlsdata.obj
 0002:00001988       ??_C@_03JPJOFNIA@Nov?$AA@  100f3988     libucrt:nlsdata.obj
 0002:0000198c       ??_C@_03MKABNOCG@Dec?$AA@  100f398c     libucrt:nlsdata.obj
 0002:00001990       ??_C@_07CGJPFGJA@January?$AA@ 100f3990     libucrt:nlsdata.obj
 0002:00001998       ??_C@_08GNJGEPFN@February?$AA@ 100f3998     libucrt:nlsdata.obj
 0002:000019a4       ??_C@_05HPCKOFNC@March?$AA@ 100f39a4     libucrt:nlsdata.obj
 0002:000019ac       ??_C@_05DMJDNLEJ@April?$AA@ 100f39ac     libucrt:nlsdata.obj
 0002:000019b4       ??_C@_04CNLMGBGM@June?$AA@ 100f39b4     libucrt:nlsdata.obj
 0002:000019bc       ??_C@_04MIEPOIFP@July?$AA@ 100f39bc     libucrt:nlsdata.obj
 0002:000019c4       ??_C@_06LBBHFDDG@August?$AA@ 100f39c4     libucrt:nlsdata.obj
 0002:000019cc       ??_C@_09BHHEALKD@September?$AA@ 100f39cc     libucrt:nlsdata.obj
 0002:000019d8       ??_C@_07JJNFCEND@October?$AA@ 100f39d8     libucrt:nlsdata.obj
 0002:000019e0       ??_C@_08HCHEGEOA@November?$AA@ 100f39e0     libucrt:nlsdata.obj
 0002:000019ec       ??_C@_08EDHMEBNP@December?$AA@ 100f39ec     libucrt:nlsdata.obj
 0002:000019f8       ??_C@_02DEDBPAFC@AM?$AA@   100f39f8     libucrt:nlsdata.obj
 0002:000019fc       ??_C@_02CJNFDJBF@PM?$AA@   100f39fc     libucrt:nlsdata.obj
 0002:00001a00       ??_C@_08BPBNCDIB@MM?1dd?1yy?$AA@ 100f3a00     libucrt:nlsdata.obj
 0002:00001a0c       ??_C@_0BE@CKGJFCPC@dddd?0?5MMMM?5dd?0?5yyyy?$AA@ 100f3a0c     libucrt:nlsdata.obj
 0002:00001a20       ??_C@_08JCCMCCIL@HH?3mm?3ss?$AA@ 100f3a20     libucrt:nlsdata.obj
 0002:00001a2c       ??_C@_17MBGCMIPB@?$AAS?$AAu?$AAn?$AA?$AA@ 100f3a2c     libucrt:nlsdata.obj
 0002:00001a34       ??_C@_17KBOMKBF@?$AAM?$AAo?$AAn?$AA?$AA@ 100f3a34     libucrt:nlsdata.obj
 0002:00001a3c       ??_C@_17BMKGEGOJ@?$AAT?$AAu?$AAe?$AA?$AA@ 100f3a3c     libucrt:nlsdata.obj
 0002:00001a44       ??_C@_17CJEDCEPE@?$AAW?$AAe?$AAd?$AA?$AA@ 100f3a44     libucrt:nlsdata.obj
 0002:00001a4c       ??_C@_17PDPHAADD@?$AAT?$AAh?$AAu?$AA?$AA@ 100f3a4c     libucrt:nlsdata.obj
 0002:00001a54       ??_C@_17HFOLPPLP@?$AAF?$AAr?$AAi?$AA?$AA@ 100f3a54     libucrt:nlsdata.obj
 0002:00001a5c       ??_C@_17GGIBDPIH@?$AAS?$AAa?$AAt?$AA?$AA@ 100f3a5c     libucrt:nlsdata.obj
 0002:00001a64       ??_C@_1O@IHNHDHPB@?$AAS?$AAu?$AAn?$AAd?$AAa?$AAy?$AA?$AA@ 100f3a64     libucrt:nlsdata.obj
 0002:00001a74       ??_C@_1O@MMNBFLIA@?$AAM?$AAo?$AAn?$AAd?$AAa?$AAy?$AA?$AA@ 100f3a74     libucrt:nlsdata.obj
 0002:00001a84       ??_C@_1BA@ENFBFFEK@?$AAT?$AAu?$AAe?$AAs?$AAd?$AAa?$AAy?$AA?$AA@ 100f3a84     libucrt:nlsdata.obj
 0002:00001a94       ??_C@_1BE@EBOGMDOH@?$AAW?$AAe?$AAd?$AAn?$AAe?$AAs?$AAd?$AAa?$AAy?$AA?$AA@ 100f3a94     libucrt:nlsdata.obj
 0002:00001aa8       ??_C@_1BC@HHMNLIHE@?$AAT?$AAh?$AAu?$AAr?$AAs?$AAd?$AAa?$AAy?$AA?$AA@ 100f3aa8     libucrt:nlsdata.obj
 0002:00001abc       ??_C@_1O@PDICJHAG@?$AAF?$AAr?$AAi?$AAd?$AAa?$AAy?$AA?$AA@ 100f3abc     libucrt:nlsdata.obj
 0002:00001acc       ??_C@_1BC@ENMNNPAJ@?$AAS?$AAa?$AAt?$AAu?$AAr?$AAd?$AAa?$AAy?$AA?$AA@ 100f3acc     libucrt:nlsdata.obj
 0002:00001ae0       ??_C@_17DKNBKCHM@?$AAJ?$AAa?$AAn?$AA?$AA@ 100f3ae0     libucrt:nlsdata.obj
 0002:00001ae8       ??_C@_17LMDJEKJN@?$AAF?$AAe?$AAb?$AA?$AA@ 100f3ae8     libucrt:nlsdata.obj
 0002:00001af0       ??_C@_17CKNLEDEC@?$AAM?$AAa?$AAr?$AA?$AA@ 100f3af0     libucrt:nlsdata.obj
 0002:00001af8       ??_C@_17LFPOIHDD@?$AAA?$AAp?$AAr?$AA?$AA@ 100f3af8     libucrt:nlsdata.obj
 0002:00001b00       ??_C@_17PNNKMEED@?$AAM?$AAa?$AAy?$AA?$AA@ 100f3b00     libucrt:nlsdata.obj
 0002:00001b08       ??_C@_17KCJGOCPB@?$AAJ?$AAu?$AAn?$AA?$AA@ 100f3b08     libucrt:nlsdata.obj
 0002:00001b10       ??_C@_17IJPCKHK@?$AAJ?$AAu?$AAl?$AA?$AA@ 100f3b10     libucrt:nlsdata.obj
 0002:00001b18       ??_C@_17ICPELBCN@?$AAA?$AAu?$AAg?$AA?$AA@ 100f3b18     libucrt:nlsdata.obj
 0002:00001b20       ??_C@_17HCHCOKMG@?$AAS?$AAe?$AAp?$AA?$AA@ 100f3b20     libucrt:nlsdata.obj
 0002:00001b28       ??_C@_17FNLKOI@?$AAO?$AAc?$AAt?$AA?$AA@ 100f3b28     libucrt:nlsdata.obj
 0002:00001b30       ??_C@_17BBDMLCIG@?$AAN?$AAo?$AAv?$AA?$AA@ 100f3b30     libucrt:nlsdata.obj
 0002:00001b38       ??_C@_17EGKACKIF@?$AAD?$AAe?$AAc?$AA?$AA@ 100f3b38     libucrt:nlsdata.obj
 0002:00001b40       ??_C@_1BA@EFMEIEBA@?$AAJ?$AAa?$AAn?$AAu?$AAa?$AAr?$AAy?$AA?$AA@ 100f3b40     libucrt:nlsdata.obj
 0002:00001b50       ??_C@_1BC@JGDDFFAM@?$AAF?$AAe?$AAb?$AAr?$AAu?$AAa?$AAr?$AAy?$AA?$AA@ 100f3b50     libucrt:nlsdata.obj
 0002:00001b64       ??_C@_1M@IKEENEDF@?$AAM?$AAa?$AAr?$AAc?$AAh?$AA?$AA@ 100f3b64     libucrt:nlsdata.obj
 0002:00001b70       ??_C@_1M@GJNLMHFD@?$AAA?$AAp?$AAr?$AAi?$AAl?$AA?$AA@ 100f3b70     libucrt:nlsdata.obj
 0002:00001b7c       ??_C@_19EPFLPGAP@?$AAJ?$AAu?$AAn?$AAe?$AA?$AA@ 100f3b7c     libucrt:nlsdata.obj
 0002:00001b88       ??_C@_19BIFMLPCD@?$AAJ?$AAu?$AAl?$AAy?$AA?$AA@ 100f3b88     libucrt:nlsdata.obj
 0002:00001b94       ??_C@_1O@PAHLKOAC@?$AAA?$AAu?$AAg?$AAu?$AAs?$AAt?$AA?$AA@ 100f3b94     libucrt:nlsdata.obj
 0002:00001ba4       ??_C@_1BE@DKAAMBJL@?$AAS?$AAe?$AAp?$AAt?$AAe?$AAm?$AAb?$AAe?$AAr?$AA?$AA@ 100f3ba4     libucrt:nlsdata.obj
 0002:00001bb8       ??_C@_1BA@EPANDLNG@?$AAO?$AAc?$AAt?$AAo?$AAb?$AAe?$AAr?$AA?$AA@ 100f3bb8     libucrt:nlsdata.obj
 0002:00001bc8       ??_C@_1BC@BGLIFPF@?$AAN?$AAo?$AAv?$AAe?$AAm?$AAb?$AAe?$AAr?$AA?$AA@ 100f3bc8     libucrt:nlsdata.obj
 0002:00001bdc       ??_C@_1BC@FEMKIFH@?$AAD?$AAe?$AAc?$AAe?$AAm?$AAb?$AAe?$AAr?$AA?$AA@ 100f3bdc     libucrt:nlsdata.obj
 0002:00001bf0       ??_C@_15ODEHAHHF@?$AAA?$AAM?$AA?$AA@ 100f3bf0     libucrt:nlsdata.obj
 0002:00001bf8       ??_C@_15CLMNNGEL@?$AAP?$AAM?$AA?$AA@ 100f3bf8     libucrt:nlsdata.obj
 0002:00001c00       ??_C@_1BC@IEBCMHCM@?$AAM?$AAM?$AA?1?$AAd?$AAd?$AA?1?$AAy?$AAy?$AA?$AA@ 100f3c00     libucrt:nlsdata.obj
 0002:00001c14       ??_C@_1CI@KNAKOEBC@?$AAd?$AAd?$AAd?$AAd?$AA?0?$AA?5?$AAM?$AAM?$AAM?$AAM?$AA?5?$AAd?$AAd?$AA?0?$AA?5?$AAy?$AAy?$AAy?$AAy?$AA?$AA@ 100f3c14     libucrt:nlsdata.obj
 0002:00001c3c       ??_C@_1BC@GDGBMEMK@?$AAH?$AAH?$AA?3?$AAm?$AAm?$AA?3?$AAs?$AAs?$AA?$AA@ 100f3c3c     libucrt:nlsdata.obj
 0002:00001c50       ??_C@_1M@BMHNFIME@?$AAe?$AAn?$AA?9?$AAU?$AAS?$AA?$AA@ 100f3c50     libucrt:nlsdata.obj
 0002:00001c60       ___lc_time_c               100f3c60     libucrt:nlsdata.obj
 0002:00001dc4       ??_C@_02CLFPBFFP@TZ?$AA@   100f3dc4     libucrt:tzset.obj
 0002:00001dc8       __Inf_C                    100f3dc8     libucrt:_values.obj
 0002:00001dd0       __Nan_C                    100f3dd0     libucrt:_values.obj
 0002:00001dd8       __Eps_C                    100f3dd8     libucrt:_values.obj
 0002:00001df8       __sys_errlist              100f3df8     libucrt:syserr.obj
 0002:00001ea8       ??_C@_08INEPGKHH@No?5error?$AA@ 100f3ea8     libucrt:syserr.obj
 0002:00001eb4       ??_C@_0BI@BJFCGOHL@Operation?5not?5permitted?$AA@ 100f3eb4     libucrt:syserr.obj
 0002:00001ecc       ??_C@_0BK@FMDHKPNF@No?5such?5file?5or?5directory?$AA@ 100f3ecc     libucrt:syserr.obj
 0002:00001ee8       ??_C@_0BA@FKIAIBGA@No?5such?5process?$AA@ 100f3ee8     libucrt:syserr.obj
 0002:00001ef8       ??_C@_0BK@FJBOAFDK@Interrupted?5function?5call?$AA@ 100f3ef8     libucrt:syserr.obj
 0002:00001f14       ??_C@_0BD@KKNFOBBD@Input?1output?5error?$AA@ 100f3f14     libucrt:syserr.obj
 0002:00001f28       ??_C@_0BK@DPKMCKJ@No?5such?5device?5or?5address?$AA@ 100f3f28     libucrt:syserr.obj
 0002:00001f44       ??_C@_0BC@MFFGCDFL@Arg?5list?5too?5long?$AA@ 100f3f44     libucrt:syserr.obj
 0002:00001f58       ??_C@_0BC@HKPNECK@Exec?5format?5error?$AA@ 100f3f58     libucrt:syserr.obj
 0002:00001f6c       ??_C@_0BE@NFGDDCEF@Bad?5file?5descriptor?$AA@ 100f3f6c     libucrt:syserr.obj
 0002:00001f80       ??_C@_0BD@LOHELEP@No?5child?5processes?$AA@ 100f3f80     libucrt:syserr.obj
 0002:00001f94       ??_C@_0CB@EPFKGNAK@Resource?5temporarily?5unavailable@ 100f3f94     libucrt:syserr.obj
 0002:00001fb8       ??_C@_0BB@IMDKMPFB@Not?5enough?5space?$AA@ 100f3fb8     libucrt:syserr.obj
 0002:00001fcc       ??_C@_0BC@HFNFNKAI@Permission?5denied?$AA@ 100f3fcc     libucrt:syserr.obj
 0002:00001fe0       ??_C@_0M@LOEHLCJD@Bad?5address?$AA@ 100f3fe0     libucrt:syserr.obj
 0002:00001fec       ??_C@_0O@NIPGCINC@Unknown?5error?$AA@ 100f3fec     libucrt:syserr.obj
 0002:00001ffc       ??_C@_0BA@BIBLIOEK@Resource?5device?$AA@ 100f3ffc     libucrt:syserr.obj
 0002:0000200c       ??_C@_0M@NAAJNNGH@File?5exists?$AA@ 100f400c     libucrt:syserr.obj
 0002:00002018       ??_C@_0O@OAMDNOCP@Improper?5link?$AA@ 100f4018     libucrt:syserr.obj
 0002:00002028       ??_C@_0P@NLEIANHE@No?5such?5device?$AA@ 100f4028     libucrt:syserr.obj
 0002:00002038       ??_C@_0BA@CJBACOOL@Not?5a?5directory?$AA@ 100f4038     libucrt:syserr.obj
 0002:00002048       ??_C@_0P@NDHGCGKE@Is?5a?5directory?$AA@ 100f4048     libucrt:syserr.obj
 0002:00002058       ??_C@_0BB@HMGGCEBG@Invalid?5argument?$AA@ 100f4058     libucrt:syserr.obj
 0002:0000206c       ??_C@_0BO@IIFBODJE@Too?5many?5open?5files?5in?5system?$AA@ 100f406c     libucrt:syserr.obj
 0002:0000208c       ??_C@_0BE@INBJMKGG@Too?5many?5open?5files?$AA@ 100f408c     libucrt:syserr.obj
 0002:000020a0       ??_C@_0CE@ONOKNLPF@Inappropriate?5I?1O?5control?5operat@ 100f40a0     libucrt:syserr.obj
 0002:000020c4       ??_C@_0P@LFMMIPAE@File?5too?5large?$AA@ 100f40c4     libucrt:syserr.obj
 0002:000020d4       ??_C@_0BI@FEALHKLD@No?5space?5left?5on?5device?$AA@ 100f40d4     libucrt:syserr.obj
 0002:000020ec       ??_C@_0N@FEHLOILP@Invalid?5seek?$AA@ 100f40ec     libucrt:syserr.obj
 0002:000020fc       ??_C@_0BG@DDBFNKBH@Read?9only?5file?5system?$AA@ 100f40fc     libucrt:syserr.obj
 0002:00002114       ??_C@_0P@PKCJJLLM@Too?5many?5links?$AA@ 100f4114     libucrt:syserr.obj
 0002:00002124       ??_C@_0M@LHEPIIOM@Broken?5pipe?$AA@ 100f4124     libucrt:syserr.obj
 0002:00002130       ??_C@_0N@MMJPGLJK@Domain?5error?$AA@ 100f4130     libucrt:syserr.obj
 0002:00002140       ??_C@_0BB@FCBJFCAJ@Result?5too?5large?$AA@ 100f4140     libucrt:syserr.obj
 0002:00002154       ??_C@_0BK@JAEBMJJM@Resource?5deadlock?5avoided?$AA@ 100f4154     libucrt:syserr.obj
 0002:00002170       ??_C@_0BC@BEDIHIDK@Filename?5too?5long?$AA@ 100f4170     libucrt:syserr.obj
 0002:00002184       ??_C@_0BD@CLHBCGPB@No?5locks?5available?$AA@ 100f4184     libucrt:syserr.obj
 0002:00002198       ??_C@_0BJ@IHEHINLI@Function?5not?5implemented?$AA@ 100f4198     libucrt:syserr.obj
 0002:000021b4       ??_C@_0BE@ICMCHPHH@Directory?5not?5empty?$AA@ 100f41b4     libucrt:syserr.obj
 0002:000021c8       ??_C@_0BG@KLEAJEFJ@Illegal?5byte?5sequence?$AA@ 100f41c8     libucrt:syserr.obj
 0002:000021e0       __sys_nerr                 100f41e0     libucrt:syserr.obj
 0002:000021f4       ??_C@_1M@HPNHIDJI@?$AAj?$AAa?$AA?9?$AAJ?$AAP?$AA?$AA@ 100f41f4     libucrt:mbctype.obj
 0002:00002200       ??_C@_1M@BIBDDEMK@?$AAz?$AAh?$AA?9?$AAC?$AAN?$AA?$AA@ 100f4200     libucrt:mbctype.obj
 0002:0000220c       ??_C@_1M@JLOOOEGK@?$AAk?$AAo?$AA?9?$AAK?$AAR?$AA?$AA@ 100f420c     libucrt:mbctype.obj
 0002:00002218       ??_C@_1M@CLNBBOPM@?$AAz?$AAh?$AA?9?$AAT?$AAW?$AA?$AA@ 100f4218     libucrt:mbctype.obj
 0002:00002948       ??_C@_15EMKDOKLE@?$AAa?$AAr?$AA?$AA@ 100f4948     libucrt:lcidtoname_downlevel.obj
 0002:00002950       ??_C@_15KNPADPLH@?$AAb?$AAg?$AA?$AA@ 100f4950     libucrt:lcidtoname_downlevel.obj
 0002:00002958       ??_C@_15EDMHLDMO@?$AAc?$AAa?$AA?$AA@ 100f4958     libucrt:lcidtoname_downlevel.obj
 0002:00002960       ??_C@_1O@BPEAJADD@?$AAz?$AAh?$AA?9?$AAC?$AAH?$AAS?$AA?$AA@ 100f4960     libucrt:lcidtoname_downlevel.obj
 0002:00002970       ??_C@_15LJNHCMNK@?$AAc?$AAs?$AA?$AA@ 100f4970     libucrt:lcidtoname_downlevel.obj
 0002:00002978       ??_C@_15FOMCIDHG@?$AAd?$AAa?$AA?$AA@ 100f4978     libucrt:lcidtoname_downlevel.obj
 0002:00002980       ??_C@_15NBKABECB@?$AAd?$AAe?$AA?$AA@ 100f4980     libucrt:lcidtoname_downlevel.obj
 0002:00002988       ??_C@_15GHPEIIAO@?$AAe?$AAl?$AA?$AA@ 100f4988     libucrt:lcidtoname_downlevel.obj
 0002:00002990       ??_C@_15MNPNEAIF@?$AAe?$AAn?$AA?$AA@ 100f4990     libucrt:lcidtoname_downlevel.obj
 0002:00002998       ??_C@_15GPIOMPMH@?$AAe?$AAs?$AA?$AA@ 100f4998     libucrt:lcidtoname_downlevel.obj
 0002:000029a0       ??_C@_15NGLOAKJC@?$AAf?$AAi?$AA?$AA@ 100f49a0     libucrt:lcidtoname_downlevel.obj
 0002:000029a8       ??_C@_15FBKGNKAM@?$AAf?$AAr?$AA?$AA@ 100f49a8     libucrt:lcidtoname_downlevel.obj
 0002:000029b0       ??_C@_15KGGCNEFK@?$AAh?$AAe?$AA?$AA@ 100f49b0     libucrt:lcidtoname_downlevel.obj
 0002:000029b8       ??_C@_15PGHLIDMF@?$AAh?$AAu?$AA?$AA@ 100f49b8     libucrt:lcidtoname_downlevel.obj
 0002:000029c0       ??_C@_15BIEMAPLM@?$AAi?$AAs?$AA?$AA@ 100f49c0     libucrt:lcidtoname_downlevel.obj
 0002:000029c8       ??_C@_15IFJLDHAF@?$AAi?$AAt?$AA?$AA@ 100f49c8     libucrt:lcidtoname_downlevel.obj
 0002:000029d0       ??_C@_15GEMIOCAG@?$AAj?$AAa?$AA?$AA@ 100f49d0     libucrt:lcidtoname_downlevel.obj
 0002:000029d8       ??_C@_15EPELEGJA@?$AAk?$AAo?$AA?$AA@ 100f49d8     libucrt:lcidtoname_downlevel.obj
 0002:000029e0       ??_C@_15NDDHIMN@?$AAn?$AAl?$AA?$AA@ 100f49e0     libucrt:lcidtoname_downlevel.obj
 0002:000029e8       ??_C@_15BPIGNHCD@?$AAn?$AAo?$AA?$AA@ 100f49e8     libucrt:lcidtoname_downlevel.obj
 0002:000029f0       ??_C@_15DEOPBLCG@?$AAp?$AAl?$AA?$AA@ 100f49f0     libucrt:lcidtoname_downlevel.obj
 0002:000029f8       ??_C@_15KBECGEFG@?$AAp?$AAt?$AA?$AA@ 100f49f8     libucrt:lcidtoname_downlevel.obj
 0002:00002a00       ??_C@_15GLJCBFMD@?$AAr?$AAo?$AA?$AA@ 100f4a00     libucrt:lcidtoname_downlevel.obj
 0002:00002a08       ??_C@_15FEDGKCDI@?$AAr?$AAu?$AA?$AA@ 100f4a08     libucrt:lcidtoname_downlevel.obj
 0002:00002a10       ??_C@_15GLKMLLHM@?$AAh?$AAr?$AA?$AA@ 100f4a10     libucrt:lcidtoname_downlevel.obj
 0002:00002a18       ??_C@_15CPKMFBDB@?$AAs?$AAk?$AA?$AA@ 100f4a18     libucrt:lcidtoname_downlevel.obj
 0002:00002a20       ??_C@_15BAAIOGMK@?$AAs?$AAq?$AA?$AA@ 100f4a20     libucrt:lcidtoname_downlevel.obj
 0002:00002a28       ??_C@_15INNPNOHD@?$AAs?$AAv?$AA?$AA@ 100f4a28     libucrt:lcidtoname_downlevel.obj
 0002:00002a30       ??_C@_15CABMMOGH@?$AAt?$AAh?$AA?$AA@ 100f4a30     libucrt:lcidtoname_downlevel.obj
 0002:00002a38       ??_C@_15BPLIHJJM@?$AAt?$AAr?$AA?$AA@ 100f4a38     libucrt:lcidtoname_downlevel.obj
 0002:00002a40       ??_C@_15NEOEKKDJ@?$AAu?$AAr?$AA?$AA@ 100f4a40     libucrt:lcidtoname_downlevel.obj
 0002:00002a48       ??_C@_15NFICGAJK@?$AAi?$AAd?$AA?$AA@ 100f4a48     libucrt:lcidtoname_downlevel.obj
 0002:00002a50       ??_C@_15PJPFLCCM@?$AAu?$AAk?$AA?$AA@ 100f4a50     libucrt:lcidtoname_downlevel.obj
 0002:00002a58       ??_C@_15HPJPHDM@?$AAb?$AAe?$AA?$AA@ 100f4a58     libucrt:lcidtoname_downlevel.obj
 0002:00002a60       ??_C@_15LCHLGJII@?$AAs?$AAl?$AA?$AA@ 100f4a60     libucrt:lcidtoname_downlevel.obj
 0002:00002a68       ??_C@_15PCFJPHHO@?$AAe?$AAt?$AA?$AA@ 100f4a68     libucrt:lcidtoname_downlevel.obj
 0002:00002a70       ??_C@_15HPFPGODN@?$AAl?$AAv?$AA?$AA@ 100f4a70     libucrt:lcidtoname_downlevel.obj
 0002:00002a78       ??_C@_15NFFGKGLG@?$AAl?$AAt?$AA?$AA@ 100f4a78     libucrt:lcidtoname_downlevel.obj
 0002:00002a80       ??_C@_15BDAKCCHN@?$AAf?$AAa?$AA?$AA@ 100f4a80     libucrt:lcidtoname_downlevel.obj
 0002:00002a88       ??_C@_15NFGIAIAJ@?$AAv?$AAi?$AA?$AA@ 100f4a88     libucrt:lcidtoname_downlevel.obj
 0002:00002a90       ??_C@_15LMKNDMHN@?$AAh?$AAy?$AA?$AA@ 100f4a90     libucrt:lcidtoname_downlevel.obj
 0002:00002a98       ??_C@_15IJBHMCFL@?$AAa?$AAz?$AA?$AA@ 100f4a98     libucrt:lcidtoname_downlevel.obj
 0002:00002aa0       ??_C@_15EKOFJABL@?$AAe?$AAu?$AA?$AA@ 100f4aa0     libucrt:lcidtoname_downlevel.obj
 0002:00002aa8       ??_C@_15BGHADCNK@?$AAm?$AAk?$AA?$AA@ 100f4aa8     libucrt:lcidtoname_downlevel.obj
 0002:00002ab0       ??_C@_15JDNICKHM@?$AAa?$AAf?$AA?$AA@ 100f4ab0     libucrt:lcidtoname_downlevel.obj
 0002:00002ab8       ??_C@_15KPJEDBKD@?$AAk?$AAa?$AA?$AA@ 100f4ab8     libucrt:lcidtoname_downlevel.obj
 0002:00002ac0       ??_C@_15PDNFFFEO@?$AAf?$AAo?$AA?$AA@ 100f4ac0     libucrt:lcidtoname_downlevel.obj
 0002:00002ac8       ??_C@_15OMLEGLOC@?$AAh?$AAi?$AA?$AA@ 100f4ac8     libucrt:lcidtoname_downlevel.obj
 0002:00002ad0       ??_C@_15IDNNENKK@?$AAm?$AAs?$AA?$AA@ 100f4ad0     libucrt:lcidtoname_downlevel.obj
 0002:00002ad8       ??_C@_15MACJNBMH@?$AAk?$AAk?$AA?$AA@ 100f4ad8     libucrt:lcidtoname_downlevel.obj
 0002:00002ae0       ??_C@_15DKDJEOND@?$AAk?$AAy?$AA?$AA@ 100f4ae0     libucrt:lcidtoname_downlevel.obj
 0002:00002ae8       ??_C@_15DFGDLJBG@?$AAs?$AAw?$AA?$AA@ 100f4ae8     libucrt:lcidtoname_downlevel.obj
 0002:00002af0       ??_C@_15BBFAICNG@?$AAu?$AAz?$AA?$AA@ 100f4af0     libucrt:lcidtoname_downlevel.obj
 0002:00002af8       ??_C@_15DKNDCGEA@?$AAt?$AAt?$AA?$AA@ 100f4af8     libucrt:lcidtoname_downlevel.obj
 0002:00002b00       ??_C@_15MGIFMDPL@?$AAp?$AAa?$AA?$AA@ 100f4b00     libucrt:lcidtoname_downlevel.obj
 0002:00002b08       ??_C@_15HCNDBBA@?$AAg?$AAu?$AA?$AA@ 100f4b08     libucrt:lcidtoname_downlevel.obj
 0002:00002b10       ??_C@_15FNBEIBON@?$AAt?$AAa?$AA?$AA@ 100f4b10     libucrt:lcidtoname_downlevel.obj
 0002:00002b18       ??_C@_15NCHGBGLK@?$AAt?$AAe?$AA?$AA@ 100f4b18     libucrt:lcidtoname_downlevel.obj
 0002:00002b20       ??_C@_15PHPHCBPF@?$AAk?$AAn?$AA?$AA@ 100f4b20     libucrt:lcidtoname_downlevel.obj
 0002:00002b28       ??_C@_15DLGBCKMP@?$AAm?$AAr?$AA?$AA@ 100f4b28     libucrt:lcidtoname_downlevel.obj
 0002:00002b30       ??_C@_15EABBLBFF@?$AAs?$AAa?$AA?$AA@ 100f4b30     libucrt:lcidtoname_downlevel.obj
 0002:00002b38       ??_C@_15CBKOMCOI@?$AAm?$AAn?$AA?$AA@ 100f4b38     libucrt:lcidtoname_downlevel.obj
 0002:00002b40       ??_C@_15CKDMCJAF@?$AAg?$AAl?$AA?$AA@ 100f4b40     libucrt:lcidtoname_downlevel.obj
 0002:00002b48       ??_C@_17CNJFBPG@?$AAk?$AAo?$AAk?$AA?$AA@ 100f4b48     libucrt:lcidtoname_downlevel.obj
 0002:00002b50       ??_C@_17FFBJICPL@?$AAs?$AAy?$AAr?$AA?$AA@ 100f4b50     libucrt:lcidtoname_downlevel.obj
 0002:00002b58       ??_C@_17KPNDCPAF@?$AAd?$AAi?$AAv?$AA?$AA@ 100f4b58     libucrt:lcidtoname_downlevel.obj
 0002:00002b60       ??_C@_11LOCGONAA@?$AA?$AA@ 100f4b60     libucrt:lcidtoname_downlevel.obj
 0002:00002b64       ??_C@_1M@OKAHONE@?$AAa?$AAr?$AA?9?$AAS?$AAA?$AA?$AA@ 100f4b64     libucrt:lcidtoname_downlevel.obj
 0002:00002b70       ??_C@_1M@FFFIGIGK@?$AAb?$AAg?$AA?9?$AAB?$AAG?$AA?$AA@ 100f4b70     libucrt:lcidtoname_downlevel.obj
 0002:00002b7c       ??_C@_1M@BJNKEDC@?$AAc?$AAa?$AA?9?$AAE?$AAS?$AA?$AA@ 100f4b7c     libucrt:lcidtoname_downlevel.obj
 0002:00002b88       ??_C@_1M@IJJHFJHA@?$AAc?$AAs?$AA?9?$AAC?$AAZ?$AA?$AA@ 100f4b88     libucrt:lcidtoname_downlevel.obj
 0002:00002b94       ??_C@_1M@CLPEOBGI@?$AAd?$AAa?$AA?9?$AAD?$AAK?$AA?$AA@ 100f4b94     libucrt:lcidtoname_downlevel.obj
 0002:00002ba0       ??_C@_1M@MCMADGCB@?$AAd?$AAe?$AA?9?$AAD?$AAE?$AA?$AA@ 100f4ba0     libucrt:lcidtoname_downlevel.obj
 0002:00002bac       ??_C@_1M@OOCKEMAM@?$AAe?$AAl?$AA?9?$AAG?$AAR?$AA?$AA@ 100f4bac     libucrt:lcidtoname_downlevel.obj
 0002:00002bb8       ??_C@_1M@DDNJFGID@?$AAf?$AAi?$AA?9?$AAF?$AAI?$AA?$AA@ 100f4bb8     libucrt:lcidtoname_downlevel.obj
 0002:00002bc4       ??_C@_1M@GLIPPMAC@?$AAf?$AAr?$AA?9?$AAF?$AAR?$AA?$AA@ 100f4bc4     libucrt:lcidtoname_downlevel.obj
 0002:00002bd0       ??_C@_1M@GFMCHPE@?$AAh?$AAe?$AA?9?$AAI?$AAL?$AA?$AA@ 100f4bd0     libucrt:lcidtoname_downlevel.obj
 0002:00002bdc       ??_C@_1M@MHLPGNKM@?$AAh?$AAu?$AA?9?$AAH?$AAU?$AA?$AA@ 100f4bdc     libucrt:lcidtoname_downlevel.obj
 0002:00002be8       ??_C@_1M@LPDDNNPN@?$AAi?$AAs?$AA?9?$AAI?$AAS?$AA?$AA@ 100f4be8     libucrt:lcidtoname_downlevel.obj
 0002:00002bf4       ??_C@_1M@MADIPODN@?$AAi?$AAt?$AA?9?$AAI?$AAT?$AA?$AA@ 100f4bf4     libucrt:lcidtoname_downlevel.obj
 0002:00002c00       ??_C@_1M@IHBJJGG@?$AAn?$AAl?$AA?9?$AAN?$AAL?$AA?$AA@ 100f4c00     libucrt:lcidtoname_downlevel.obj
 0002:00002c0c       ??_C@_1M@EANAGDL@?$AAn?$AAb?$AA?9?$AAN?$AAO?$AA?$AA@ 100f4c0c     libucrt:lcidtoname_downlevel.obj
 0002:00002c18       ??_C@_1M@NEIEMEGP@?$AAp?$AAl?$AA?9?$AAP?$AAL?$AA?$AA@ 100f4c18     libucrt:lcidtoname_downlevel.obj
 0002:00002c24       ??_C@_1M@BOCFIGEP@?$AAp?$AAt?$AA?9?$AAB?$AAR?$AA?$AA@ 100f4c24     libucrt:lcidtoname_downlevel.obj
 0002:00002c30       ??_C@_1M@IMPFOPBG@?$AAr?$AAo?$AA?9?$AAR?$AAO?$AA?$AA@ 100f4c30     libucrt:lcidtoname_downlevel.obj
 0002:00002c3c       ??_C@_1M@IDNNEJMM@?$AAr?$AAu?$AA?9?$AAR?$AAU?$AA?$AA@ 100f4c3c     libucrt:lcidtoname_downlevel.obj
 0002:00002c48       ??_C@_1M@LILEEOGM@?$AAh?$AAr?$AA?9?$AAH?$AAR?$AA?$AA@ 100f4c48     libucrt:lcidtoname_downlevel.obj
 0002:00002c54       ??_C@_1M@FKIFEHPB@?$AAs?$AAk?$AA?9?$AAS?$AAK?$AA?$AA@ 100f4c54     libucrt:lcidtoname_downlevel.obj
 0002:00002c60       ??_C@_1M@LJMAMNPJ@?$AAs?$AAq?$AA?9?$AAA?$AAL?$AA?$AA@ 100f4c60     libucrt:lcidtoname_downlevel.obj
 0002:00002c6c       ??_C@_1M@GIAKDKJK@?$AAs?$AAv?$AA?9?$AAS?$AAE?$AA?$AA@ 100f4c6c     libucrt:lcidtoname_downlevel.obj
 0002:00002c78       ??_C@_1M@MKJKIKCL@?$AAt?$AAh?$AA?9?$AAT?$AAH?$AA?$AA@ 100f4c78     libucrt:lcidtoname_downlevel.obj
 0002:00002c84       ??_C@_1M@MFLCCMPB@?$AAt?$AAr?$AA?9?$AAT?$AAR?$AA?$AA@ 100f4c84     libucrt:lcidtoname_downlevel.obj
 0002:00002c90       ??_C@_1M@OIJHDKJN@?$AAu?$AAr?$AA?9?$AAP?$AAK?$AA?$AA@ 100f4c90     libucrt:lcidtoname_downlevel.obj
 0002:00002c9c       ??_C@_1M@LHIPCIEK@?$AAi?$AAd?$AA?9?$AAI?$AAD?$AA?$AA@ 100f4c9c     libucrt:lcidtoname_downlevel.obj
 0002:00002ca8       ??_C@_1M@MFMOBGI@?$AAu?$AAk?$AA?9?$AAU?$AAA?$AA?$AA@ 100f4ca8     libucrt:lcidtoname_downlevel.obj
 0002:00002cb4       ??_C@_1M@OBGLJIPL@?$AAb?$AAe?$AA?9?$AAB?$AAY?$AA?$AA@ 100f4cb4     libucrt:lcidtoname_downlevel.obj
 0002:00002cc0       ??_C@_1M@BCFAJEAD@?$AAs?$AAl?$AA?9?$AAS?$AAI?$AA?$AA@ 100f4cc0     libucrt:lcidtoname_downlevel.obj
 0002:00002ccc       ??_C@_1M@FKFFEDDN@?$AAe?$AAt?$AA?9?$AAE?$AAE?$AA?$AA@ 100f4ccc     libucrt:lcidtoname_downlevel.obj
 0002:00002cd8       ??_C@_1M@KGKKAACI@?$AAl?$AAv?$AA?9?$AAL?$AAV?$AA?$AA@ 100f4cd8     libucrt:lcidtoname_downlevel.obj
 0002:00002ce4       ??_C@_1M@IFGBIJO@?$AAl?$AAt?$AA?9?$AAL?$AAT?$AA?$AA@ 100f4ce4     libucrt:lcidtoname_downlevel.obj
 0002:00002cf0       ??_C@_1M@FGEAHEDM@?$AAf?$AAa?$AA?9?$AAI?$AAR?$AA?$AA@ 100f4cf0     libucrt:lcidtoname_downlevel.obj
 0002:00002cfc       ??_C@_1M@KBMAIBFN@?$AAv?$AAi?$AA?9?$AAV?$AAN?$AA?$AA@ 100f4cfc     libucrt:lcidtoname_downlevel.obj
 0002:00002d08       ??_C@_1M@GPCBKDJK@?$AAh?$AAy?$AA?9?$AAA?$AAM?$AA?$AA@ 100f4d08     libucrt:lcidtoname_downlevel.obj
 0002:00002d14       ??_C@_1BG@BECMDDJB@?$AAa?$AAz?$AA?9?$AAA?$AAZ?$AA?9?$AAL?$AAa?$AAt?$AAn?$AA?$AA@ 100f4d14     libucrt:lcidtoname_downlevel.obj
 0002:00002d2c       ??_C@_1M@MAOFCAEA@?$AAe?$AAu?$AA?9?$AAE?$AAS?$AA?$AA@ 100f4d2c     libucrt:lcidtoname_downlevel.obj
 0002:00002d38       ??_C@_1M@IGHABKPI@?$AAm?$AAk?$AA?9?$AAM?$AAK?$AA?$AA@ 100f4d38     libucrt:lcidtoname_downlevel.obj
 0002:00002d44       ??_C@_1M@IAIGNEJG@?$AAt?$AAn?$AA?9?$AAZ?$AAA?$AA?$AA@ 100f4d44     libucrt:lcidtoname_downlevel.obj
 0002:00002d50       ??_C@_1M@IIJCOJFA@?$AAx?$AAh?$AA?9?$AAZ?$AAA?$AA?$AA@ 100f4d50     libucrt:lcidtoname_downlevel.obj
 0002:00002d5c       ??_C@_1M@LGPJHNJH@?$AAz?$AAu?$AA?9?$AAZ?$AAA?$AA?$AA@ 100f4d5c     libucrt:lcidtoname_downlevel.obj
 0002:00002d68       ??_C@_1M@HOKAOIO@?$AAa?$AAf?$AA?9?$AAZ?$AAA?$AA?$AA@ 100f4d68     libucrt:lcidtoname_downlevel.obj
 0002:00002d74       ??_C@_1M@DPCLHLIE@?$AAk?$AAa?$AA?9?$AAG?$AAE?$AA?$AA@ 100f4d74     libucrt:lcidtoname_downlevel.obj
 0002:00002d80       ??_C@_1M@BLKMHJBI@?$AAf?$AAo?$AA?9?$AAF?$AAO?$AA?$AA@ 100f4d80     libucrt:lcidtoname_downlevel.obj
 0002:00002d8c       ??_C@_1M@LGGJAPPB@?$AAh?$AAi?$AA?9?$AAI?$AAN?$AA?$AA@ 100f4d8c     libucrt:lcidtoname_downlevel.obj
 0002:00002d98       ??_C@_1M@FIKPIHFE@?$AAm?$AAt?$AA?9?$AAM?$AAT?$AA?$AA@ 100f4d98     libucrt:lcidtoname_downlevel.obj
 0002:00002da4       ??_C@_1M@HEGGPBFA@?$AAs?$AAe?$AA?9?$AAN?$AAO?$AA?$AA@ 100f4da4     libucrt:lcidtoname_downlevel.obj
 0002:00002db0       ??_C@_1M@EIBJEEPA@?$AAm?$AAs?$AA?9?$AAM?$AAY?$AA?$AA@ 100f4db0     libucrt:lcidtoname_downlevel.obj
 0002:00002dbc       ??_C@_1M@FHLBGMPP@?$AAk?$AAk?$AA?9?$AAK?$AAZ?$AA?$AA@ 100f4dbc     libucrt:lcidtoname_downlevel.obj
 0002:00002dc8       ??_C@_1M@NGJJLCGI@?$AAk?$AAy?$AA?9?$AAK?$AAG?$AA?$AA@ 100f4dc8     libucrt:lcidtoname_downlevel.obj
 0002:00002dd4       ??_C@_1M@GIENNBFC@?$AAs?$AAw?$AA?9?$AAK?$AAE?$AA?$AA@ 100f4dd4     libucrt:lcidtoname_downlevel.obj
 0002:00002de0       ??_C@_1BG@NDGMJIMJ@?$AAu?$AAz?$AA?9?$AAU?$AAZ?$AA?9?$AAL?$AAa?$AAt?$AAn?$AA?$AA@ 100f4de0     libucrt:lcidtoname_downlevel.obj
 0002:00002df8       ??_C@_1M@IDCCIHBC@?$AAt?$AAt?$AA?9?$AAR?$AAU?$AA?$AA@ 100f4df8     libucrt:lcidtoname_downlevel.obj
 0002:00002e04       ??_C@_1M@LOICPMOJ@?$AAb?$AAn?$AA?9?$AAI?$AAN?$AA?$AA@ 100f4e04     libucrt:lcidtoname_downlevel.obj
 0002:00002e10       ??_C@_1M@KPKKNEAH@?$AAp?$AAa?$AA?9?$AAI?$AAN?$AA?$AA@ 100f4e10     libucrt:lcidtoname_downlevel.obj
 0002:00002e1c       ??_C@_1M@PJGPPBOG@?$AAg?$AAu?$AA?9?$AAI?$AAN?$AA?$AA@ 100f4e1c     libucrt:lcidtoname_downlevel.obj
 0002:00002e28       ??_C@_1M@KMKMOPHI@?$AAt?$AAa?$AA?9?$AAI?$AAN?$AA?$AA@ 100f4e28     libucrt:lcidtoname_downlevel.obj
 0002:00002e34       ??_C@_1M@KFEHEPAC@?$AAt?$AAe?$AA?9?$AAI?$AAN?$AA?$AA@ 100f4e34     libucrt:lcidtoname_downlevel.obj
 0002:00002e40       ??_C@_1M@CDCLMGHI@?$AAk?$AAn?$AA?9?$AAI?$AAN?$AA?$AA@ 100f4e40     libucrt:lcidtoname_downlevel.obj
 0002:00002e4c       ??_C@_1M@MIODLDKF@?$AAm?$AAl?$AA?9?$AAI?$AAN?$AA?$AA@ 100f4e4c     libucrt:lcidtoname_downlevel.obj
 0002:00002e58       ??_C@_1M@PBIEACPO@?$AAm?$AAr?$AA?9?$AAI?$AAN?$AA?$AA@ 100f4e58     libucrt:lcidtoname_downlevel.obj
 0002:00002e64       ??_C@_1M@NIDEAGPH@?$AAs?$AAa?$AA?9?$AAI?$AAN?$AA?$AA@ 100f4e64     libucrt:lcidtoname_downlevel.obj
 0002:00002e70       ??_C@_1M@FHIHCBIO@?$AAm?$AAn?$AA?9?$AAM?$AAN?$AA?$AA@ 100f4e70     libucrt:lcidtoname_downlevel.obj
 0002:00002e7c       ??_C@_1M@JAIJPENP@?$AAc?$AAy?$AA?9?$AAG?$AAB?$AA?$AA@ 100f4e7c     libucrt:lcidtoname_downlevel.obj
 0002:00002e88       ??_C@_1M@PHGFBEPN@?$AAg?$AAl?$AA?9?$AAE?$AAS?$AA?$AA@ 100f4e88     libucrt:lcidtoname_downlevel.obj
 0002:00002e94       ??_C@_1O@KPIPDNCP@?$AAk?$AAo?$AAk?$AA?9?$AAI?$AAN?$AA?$AA@ 100f4e94     libucrt:lcidtoname_downlevel.obj
 0002:00002ea4       ??_C@_1O@KNHJLDJA@?$AAs?$AAy?$AAr?$AA?9?$AAS?$AAY?$AA?$AA@ 100f4ea4     libucrt:lcidtoname_downlevel.obj
 0002:00002eb4       ??_C@_1O@MKEKBLAH@?$AAd?$AAi?$AAv?$AA?9?$AAM?$AAV?$AA?$AA@ 100f4eb4     libucrt:lcidtoname_downlevel.obj
 0002:00002ec4       ??_C@_1O@OHDCKDDF@?$AAq?$AAu?$AAz?$AA?9?$AAB?$AAO?$AA?$AA@ 100f4ec4     libucrt:lcidtoname_downlevel.obj
 0002:00002ed4       ??_C@_1M@LEPJNLFD@?$AAn?$AAs?$AA?9?$AAZ?$AAA?$AA?$AA@ 100f4ed4     libucrt:lcidtoname_downlevel.obj
 0002:00002ee0       ??_C@_1M@OMLEIIJB@?$AAm?$AAi?$AA?9?$AAN?$AAZ?$AA?$AA@ 100f4ee0     libucrt:lcidtoname_downlevel.obj
 0002:00002eec       ??_C@_1M@PMPEAILG@?$AAa?$AAr?$AA?9?$AAI?$AAQ?$AA?$AA@ 100f4eec     libucrt:lcidtoname_downlevel.obj
 0002:00002ef8       ??_C@_1M@CNKPNOEE@?$AAd?$AAe?$AA?9?$AAC?$AAH?$AA?$AA@ 100f4ef8     libucrt:lcidtoname_downlevel.obj
 0002:00002f04       ??_C@_1M@LKMGMLKO@?$AAe?$AAn?$AA?9?$AAG?$AAB?$AA?$AA@ 100f4f04     libucrt:lcidtoname_downlevel.obj
 0002:00002f10       ??_C@_1M@PGKJFFGL@?$AAe?$AAs?$AA?9?$AAM?$AAX?$AA?$AA@ 100f4f10     libucrt:lcidtoname_downlevel.obj
 0002:00002f1c       ??_C@_1M@DNNANBDC@?$AAf?$AAr?$AA?9?$AAB?$AAE?$AA?$AA@ 100f4f1c     libucrt:lcidtoname_downlevel.obj
 0002:00002f28       ??_C@_1M@HLGMDFHM@?$AAi?$AAt?$AA?9?$AAC?$AAH?$AA?$AA@ 100f4f28     libucrt:lcidtoname_downlevel.obj
 0002:00002f34       ??_C@_1M@CLLBGJH@?$AAn?$AAl?$AA?9?$AAB?$AAE?$AA?$AA@ 100f4f34     libucrt:lcidtoname_downlevel.obj
 0002:00002f40       ??_C@_1M@BODBOGLF@?$AAn?$AAn?$AA?9?$AAN?$AAO?$AA?$AA@ 100f4f40     libucrt:lcidtoname_downlevel.obj
 0002:00002f4c       ??_C@_1M@HFFAHKAD@?$AAp?$AAt?$AA?9?$AAP?$AAT?$AA?$AA@ 100f4f4c     libucrt:lcidtoname_downlevel.obj
 0002:00002f58       ??_C@_1BG@LNOAKHIE@?$AAs?$AAr?$AA?9?$AAS?$AAP?$AA?9?$AAL?$AAa?$AAt?$AAn?$AA?$AA@ 100f4f58     libucrt:lcidtoname_downlevel.obj
 0002:00002f70       ??_C@_1M@HBMHBGAK@?$AAs?$AAv?$AA?9?$AAF?$AAI?$AA?$AA@ 100f4f70     libucrt:lcidtoname_downlevel.obj
 0002:00002f7c       ??_C@_1BG@DGCJGJBE@?$AAa?$AAz?$AA?9?$AAA?$AAZ?$AA?9?$AAC?$AAy?$AAr?$AAl?$AA?$AA@ 100f4f7c     libucrt:lcidtoname_downlevel.obj
 0002:00002f94       ??_C@_1M@KEJDAAHB@?$AAs?$AAe?$AA?9?$AAS?$AAE?$AA?$AA@ 100f4f94     libucrt:lcidtoname_downlevel.obj
 0002:00002fa0       ??_C@_1M@HEIBJJAD@?$AAm?$AAs?$AA?9?$AAB?$AAN?$AA?$AA@ 100f4fa0     libucrt:lcidtoname_downlevel.obj
 0002:00002fac       ??_C@_1BG@PBGJMCEM@?$AAu?$AAz?$AA?9?$AAU?$AAZ?$AA?9?$AAC?$AAy?$AAr?$AAl?$AA?$AA@ 100f4fac     libucrt:lcidtoname_downlevel.obj
 0002:00002fc4       ??_C@_1O@LAOBCMDF@?$AAq?$AAu?$AAz?$AA?9?$AAE?$AAC?$AA?$AA@ 100f4fc4     libucrt:lcidtoname_downlevel.obj
 0002:00002fd4       ??_C@_1M@POEEMAIO@?$AAa?$AAr?$AA?9?$AAE?$AAG?$AA?$AA@ 100f4fd4     libucrt:lcidtoname_downlevel.obj
 0002:00002fe0       ??_C@_1M@EFAKDEDL@?$AAz?$AAh?$AA?9?$AAH?$AAK?$AA?$AA@ 100f4fe0     libucrt:lcidtoname_downlevel.obj
 0002:00002fec       ??_C@_1M@HKKIJHGI@?$AAd?$AAe?$AA?9?$AAA?$AAT?$AA?$AA@ 100f4fec     libucrt:lcidtoname_downlevel.obj
 0002:00002ff8       ??_C@_1M@KBFBEHJF@?$AAe?$AAn?$AA?9?$AAA?$AAU?$AA?$AA@ 100f4ff8     libucrt:lcidtoname_downlevel.obj
 0002:00003004       ??_C@_1M@MNPLFAAH@?$AAe?$AAs?$AA?9?$AAE?$AAS?$AA?$AA@ 100f5004     libucrt:lcidtoname_downlevel.obj
 0002:00003010       ??_C@_1M@HJOOJFMA@?$AAf?$AAr?$AA?9?$AAC?$AAA?$AA?$AA@ 100f5010     libucrt:lcidtoname_downlevel.obj
 0002:0000301c       ??_C@_1BG@JPOFPNAB@?$AAs?$AAr?$AA?9?$AAS?$AAP?$AA?9?$AAC?$AAy?$AAr?$AAl?$AA?$AA@ 100f501c     libucrt:lcidtoname_downlevel.obj
 0002:00003034       ??_C@_1M@LNFOCMOB@?$AAs?$AAe?$AA?9?$AAF?$AAI?$AA?$AA@ 100f5034     libucrt:lcidtoname_downlevel.obj
 0002:00003040       ??_C@_1O@MGJBOAMB@?$AAq?$AAu?$AAz?$AA?9?$AAP?$AAE?$AA?$AA@ 100f5040     libucrt:lcidtoname_downlevel.obj
 0002:00003050       ??_C@_1M@GJINLBOK@?$AAa?$AAr?$AA?9?$AAL?$AAY?$AA?$AA@ 100f5050     libucrt:lcidtoname_downlevel.obj
 0002:0000305c       ??_C@_1M@GGMNHJNL@?$AAz?$AAh?$AA?9?$AAS?$AAG?$AA?$AA@ 100f505c     libucrt:lcidtoname_downlevel.obj
 0002:00003068       ??_C@_1M@HOIKODND@?$AAd?$AAe?$AA?9?$AAL?$AAU?$AA?$AA@ 100f5068     libucrt:lcidtoname_downlevel.obj
 0002:00003074       ??_C@_1M@DDOCCGFG@?$AAe?$AAn?$AA?9?$AAC?$AAA?$AA?$AA@ 100f5074     libucrt:lcidtoname_downlevel.obj
 0002:00003080       ??_C@_1M@BNOEMJLF@?$AAe?$AAs?$AA?9?$AAG?$AAT?$AA?$AA@ 100f5080     libucrt:lcidtoname_downlevel.obj
 0002:0000308c       ??_C@_1M@EOGNKEK@?$AAf?$AAr?$AA?9?$AAC?$AAH?$AA?$AA@ 100f508c     libucrt:lcidtoname_downlevel.obj
 0002:00003098       ??_C@_1M@FLIDJFHL@?$AAh?$AAr?$AA?9?$AAB?$AAA?$AA?$AA@ 100f5098     libucrt:lcidtoname_downlevel.obj
 0002:000030a4       ??_C@_1O@FMCELNAJ@?$AAs?$AAm?$AAj?$AA?9?$AAN?$AAO?$AA?$AA@ 100f50a4     libucrt:lcidtoname_downlevel.obj
 0002:000030b4       ??_C@_1M@JHGLJMGJ@?$AAa?$AAr?$AA?9?$AAD?$AAZ?$AA?$AA@ 100f50b4     libucrt:lcidtoname_downlevel.obj
 0002:000030c0       ??_C@_1M@JKKFDCNP@?$AAz?$AAh?$AA?9?$AAM?$AAO?$AA?$AA@ 100f50c0     libucrt:lcidtoname_downlevel.obj
 0002:000030cc       ??_C@_1M@GEEFALPE@?$AAd?$AAe?$AA?9?$AAL?$AAI?$AA?$AA@ 100f50cc     libucrt:lcidtoname_downlevel.obj
 0002:000030d8       ??_C@_1M@IGEOFBG@?$AAe?$AAn?$AA?9?$AAN?$AAZ?$AA?$AA@ 100f50d8     libucrt:lcidtoname_downlevel.obj
 0002:000030e4       ??_C@_1M@KDBONEHP@?$AAe?$AAs?$AA?9?$AAC?$AAR?$AA?$AA@ 100f50e4     libucrt:lcidtoname_downlevel.obj
 0002:000030f0       ??_C@_1M@FHMDOHNN@?$AAf?$AAr?$AA?9?$AAL?$AAU?$AA?$AA@ 100f50f0     libucrt:lcidtoname_downlevel.obj
 0002:000030fc       ??_C@_1BG@NFKKMAFG@?$AAb?$AAs?$AA?9?$AAB?$AAA?$AA?9?$AAL?$AAa?$AAt?$AAn?$AA?$AA@ 100f50fc     libucrt:lcidtoname_downlevel.obj
 0002:00003114       ??_C@_1O@IMNBEMCI@?$AAs?$AAm?$AAj?$AA?9?$AAS?$AAE?$AA?$AA@ 100f5114     libucrt:lcidtoname_downlevel.obj
 0002:00003124       ??_C@_1M@DHHMBNDP@?$AAa?$AAr?$AA?9?$AAM?$AAA?$AA?$AA@ 100f5124     libucrt:lcidtoname_downlevel.obj
 0002:00003130       ??_C@_1M@BNBLJCGH@?$AAe?$AAn?$AA?9?$AAI?$AAE?$AA?$AA@ 100f5130     libucrt:lcidtoname_downlevel.obj
 0002:0000313c       ??_C@_1M@GEPAFMDL@?$AAe?$AAs?$AA?9?$AAP?$AAA?$AA?$AA@ 100f513c     libucrt:lcidtoname_downlevel.obj
 0002:00003148       ??_C@_1M@OJONDMDL@?$AAf?$AAr?$AA?9?$AAM?$AAC?$AA?$AA@ 100f5148     libucrt:lcidtoname_downlevel.obj
 0002:00003154       ??_C@_1BG@OBCNFJB@?$AAs?$AAr?$AA?9?$AAB?$AAA?$AA?9?$AAL?$AAa?$AAt?$AAn?$AA?$AA@ 100f5154     libucrt:lcidtoname_downlevel.obj
 0002:0000316c       ??_C@_1O@KEMEEGPO@?$AAs?$AAm?$AAa?$AA?9?$AAN?$AAO?$AA?$AA@ 100f516c     libucrt:lcidtoname_downlevel.obj
 0002:0000317c       ??_C@_1M@ELMGFODK@?$AAa?$AAr?$AA?9?$AAT?$AAN?$AA?$AA@ 100f517c     libucrt:lcidtoname_downlevel.obj
 0002:00003188       ??_C@_1M@BHDLHFAF@?$AAe?$AAn?$AA?9?$AAZ?$AAA?$AA?$AA@ 100f5188     libucrt:lcidtoname_downlevel.obj
 0002:00003194       ??_C@_1M@BMGIGLIF@?$AAe?$AAs?$AA?9?$AAD?$AAO?$AA?$AA@ 100f5194     libucrt:lcidtoname_downlevel.obj
 0002:000031a0       ??_C@_1BG@CMBHIPBE@?$AAs?$AAr?$AA?9?$AAB?$AAA?$AA?9?$AAC?$AAy?$AAr?$AAl?$AA?$AA@ 100f51a0     libucrt:lcidtoname_downlevel.obj
 0002:000031b8       ??_C@_1O@HEDBLHNP@?$AAs?$AAm?$AAa?$AA?9?$AAS?$AAE?$AA?$AA@ 100f51b8     libucrt:lcidtoname_downlevel.obj
 0002:000031c8       ??_C@_1M@DAGCADIM@?$AAa?$AAr?$AA?9?$AAO?$AAM?$AA?$AA@ 100f51c8     libucrt:lcidtoname_downlevel.obj
 0002:000031d4       ??_C@_1M@FODLMICG@?$AAe?$AAn?$AA?9?$AAJ?$AAM?$AA?$AA@ 100f51d4     libucrt:lcidtoname_downlevel.obj
 0002:000031e0       ??_C@_1M@DNMLCIHB@?$AAe?$AAs?$AA?9?$AAV?$AAE?$AA?$AA@ 100f51e0     libucrt:lcidtoname_downlevel.obj
 0002:000031ec       ??_C@_1O@EOKHMKJK@?$AAs?$AAm?$AAs?$AA?9?$AAF?$AAI?$AA?$AA@ 100f51ec     libucrt:lcidtoname_downlevel.obj
 0002:000031fc       ??_C@_1M@CAFJMKOF@?$AAa?$AAr?$AA?9?$AAY?$AAE?$AA?$AA@ 100f51fc     libucrt:lcidtoname_downlevel.obj
 0002:00003208       ??_C@_1M@CBFHIJLI@?$AAe?$AAn?$AA?9?$AAC?$AAB?$AA?$AA@ 100f5208     libucrt:lcidtoname_downlevel.obj
 0002:00003214       ??_C@_1M@BGNFLDN@?$AAe?$AAs?$AA?9?$AAC?$AAO?$AA?$AA@ 100f5214     libucrt:lcidtoname_downlevel.obj
 0002:00003220       ??_C@_1O@JMPHMAMC@?$AAs?$AAm?$AAn?$AA?9?$AAF?$AAI?$AA?$AA@ 100f5220     libucrt:lcidtoname_downlevel.obj
 0002:00003230       ??_C@_1M@JLANABKE@?$AAa?$AAr?$AA?9?$AAS?$AAY?$AA?$AA@ 100f5230     libucrt:lcidtoname_downlevel.obj
 0002:0000323c       ??_C@_1M@HPKGCFGN@?$AAe?$AAn?$AA?9?$AAB?$AAZ?$AA?$AA@ 100f523c     libucrt:lcidtoname_downlevel.obj
 0002:00003248       ??_C@_1M@OLJCMLGM@?$AAe?$AAs?$AA?9?$AAP?$AAE?$AA?$AA@ 100f5248     libucrt:lcidtoname_downlevel.obj
 0002:00003254       ??_C@_1M@MKKGFKLE@?$AAa?$AAr?$AA?9?$AAJ?$AAO?$AA?$AA@ 100f5254     libucrt:lcidtoname_downlevel.obj
 0002:00003260       ??_C@_1M@EKPGLDNI@?$AAe?$AAn?$AA?9?$AAT?$AAT?$AA?$AA@ 100f5260     libucrt:lcidtoname_downlevel.obj
 0002:0000326c       ??_C@_1M@OONGHFHE@?$AAe?$AAs?$AA?9?$AAA?$AAR?$AA?$AA@ 100f526c     libucrt:lcidtoname_downlevel.obj
 0002:00003278       ??_C@_1M@OOJFGBHE@?$AAa?$AAr?$AA?9?$AAL?$AAB?$AA?$AA@ 100f5278     libucrt:lcidtoname_downlevel.obj
 0002:00003284       ??_C@_1M@GCEJHNEG@?$AAe?$AAn?$AA?9?$AAZ?$AAW?$AA?$AA@ 100f5284     libucrt:lcidtoname_downlevel.obj
 0002:00003290       ??_C@_1M@JNOCAHJI@?$AAe?$AAs?$AA?9?$AAE?$AAC?$AA?$AA@ 100f5290     libucrt:lcidtoname_downlevel.obj
 0002:0000329c       ??_C@_1M@JEFHPGGB@?$AAa?$AAr?$AA?9?$AAK?$AAW?$AA?$AA@ 100f529c     libucrt:lcidtoname_downlevel.obj
 0002:000032a8       ??_C@_1M@MLKIBJOJ@?$AAe?$AAn?$AA?9?$AAP?$AAH?$AA?$AA@ 100f52a8     libucrt:lcidtoname_downlevel.obj
 0002:000032b4       ??_C@_1M@BDNIPEND@?$AAe?$AAs?$AA?9?$AAC?$AAL?$AA?$AA@ 100f52b4     libucrt:lcidtoname_downlevel.obj
 0002:000032c0       ??_C@_1M@MPNMEKBD@?$AAa?$AAr?$AA?9?$AAA?$AAE?$AA?$AA@ 100f52c0     libucrt:lcidtoname_downlevel.obj
 0002:000032cc       ??_C@_1M@KBJALCPI@?$AAe?$AAs?$AA?9?$AAU?$AAY?$AA?$AA@ 100f52cc     libucrt:lcidtoname_downlevel.obj
 0002:000032d8       ??_C@_1M@LLCCOAGA@?$AAa?$AAr?$AA?9?$AAB?$AAH?$AA?$AA@ 100f52d8     libucrt:lcidtoname_downlevel.obj
 0002:000032e4       ??_C@_1M@PBFNCDEL@?$AAe?$AAs?$AA?9?$AAP?$AAY?$AA?$AA@ 100f52e4     libucrt:lcidtoname_downlevel.obj
 0002:000032f0       ??_C@_1M@EDGINPNP@?$AAa?$AAr?$AA?9?$AAQ?$AAA?$AA?$AA@ 100f52f0     libucrt:lcidtoname_downlevel.obj
 0002:000032fc       ??_C@_1M@MKDBIIJI@?$AAe?$AAs?$AA?9?$AAB?$AAO?$AA?$AA@ 100f52fc     libucrt:lcidtoname_downlevel.obj
 0002:00003308       ??_C@_1M@CPKKEBLD@?$AAe?$AAs?$AA?9?$AAS?$AAV?$AA?$AA@ 100f5308     libucrt:lcidtoname_downlevel.obj
 0002:00003314       ??_C@_1M@NDBGMMJL@?$AAe?$AAs?$AA?9?$AAH?$AAN?$AA?$AA@ 100f5314     libucrt:lcidtoname_downlevel.obj
 0002:00003320       ??_C@_1M@JIJIBHDP@?$AAe?$AAs?$AA?9?$AAN?$AAI?$AA?$AA@ 100f5320     libucrt:lcidtoname_downlevel.obj
 0002:0000332c       ??_C@_1M@CGFMKEEK@?$AAe?$AAs?$AA?9?$AAP?$AAR?$AA?$AA@ 100f532c     libucrt:lcidtoname_downlevel.obj
 0002:00003338       ??_C@_1O@ICJHKIIK@?$AAz?$AAh?$AA?9?$AAC?$AAH?$AAT?$AA?$AA@ 100f5338     libucrt:lcidtoname_downlevel.obj
 0002:00003348       ??_C@_15CLNEJCE@?$AAs?$AAr?$AA?$AA@ 100f5348     libucrt:lcidtoname_downlevel.obj
 0002:00003a70       ??_C@_1M@KAHEKEIG@?$AAa?$AAf?$AA?9?$AAz?$AAa?$AA?$AA@ 100f5a70     libucrt:lcidtoname_downlevel.obj
 0002:00003a7c       ??_C@_1M@GIECOABL@?$AAa?$AAr?$AA?9?$AAa?$AAe?$AA?$AA@ 100f5a7c     libucrt:lcidtoname_downlevel.obj
 0002:00003a88       ??_C@_1M@BMLMEKGI@?$AAa?$AAr?$AA?9?$AAb?$AAh?$AA?$AA@ 100f5a88     libucrt:lcidtoname_downlevel.obj
 0002:00003a94       ??_C@_1M@DAPFDGGB@?$AAa?$AAr?$AA?9?$AAd?$AAz?$AA?$AA@ 100f5a94     libucrt:lcidtoname_downlevel.obj
 0002:00003aa0       ??_C@_1M@FJNKGKIG@?$AAa?$AAr?$AA?9?$AAe?$AAg?$AA?$AA@ 100f5aa0     libucrt:lcidtoname_downlevel.obj
 0002:00003aac       ??_C@_1M@FLGKKCLO@?$AAa?$AAr?$AA?9?$AAi?$AAq?$AA?$AA@ 100f5aac     libucrt:lcidtoname_downlevel.obj
 0002:00003ab8       ??_C@_1M@GNDIPALM@?$AAa?$AAr?$AA?9?$AAj?$AAo?$AA?$AA@ 100f5ab8     libucrt:lcidtoname_downlevel.obj
 0002:00003ac4       ??_C@_1M@DDMJFMGJ@?$AAa?$AAr?$AA?9?$AAk?$AAw?$AA?$AA@ 100f5ac4     libucrt:lcidtoname_downlevel.obj
 0002:00003ad0       ??_C@_1M@EJALMLHM@?$AAa?$AAr?$AA?9?$AAl?$AAb?$AA?$AA@ 100f5ad0     libucrt:lcidtoname_downlevel.obj
 0002:00003adc       ??_C@_1M@MOBDBLOC@?$AAa?$AAr?$AA?9?$AAl?$AAy?$AA?$AA@ 100f5adc     libucrt:lcidtoname_downlevel.obj
 0002:00003ae8       ??_C@_1M@JAOCLHDH@?$AAa?$AAr?$AA?9?$AAm?$AAa?$AA?$AA@ 100f5ae8     libucrt:lcidtoname_downlevel.obj
 0002:00003af4       ??_C@_1M@JHPMKJIE@?$AAa?$AAr?$AA?9?$AAo?$AAm?$AA?$AA@ 100f5af4     libucrt:lcidtoname_downlevel.obj
 0002:00003b00       ??_C@_1M@OEPGHFNH@?$AAa?$AAr?$AA?9?$AAq?$AAa?$AA?$AA@ 100f5b00     libucrt:lcidtoname_downlevel.obj
 0002:00003b0c       ??_C@_1M@KJDONENM@?$AAa?$AAr?$AA?9?$AAs?$AAa?$AA?$AA@ 100f5b0c     libucrt:lcidtoname_downlevel.obj
 0002:00003b18       ??_C@_1M@DMJDKLKM@?$AAa?$AAr?$AA?9?$AAs?$AAy?$AA?$AA@ 100f5b18     libucrt:lcidtoname_downlevel.obj
 0002:00003b24       ??_C@_1M@OMFIPEDC@?$AAa?$AAr?$AA?9?$AAt?$AAn?$AA?$AA@ 100f5b24     libucrt:lcidtoname_downlevel.obj
 0002:00003b30       ??_C@_1M@IHMHGAON@?$AAa?$AAr?$AA?9?$AAy?$AAe?$AA?$AA@ 100f5b30     libucrt:lcidtoname_downlevel.obj
 0002:00003b3c       ??_C@_1BG@KDCPGJGB@?$AAa?$AAz?$AA?9?$AAa?$AAz?$AA?9?$AAc?$AAy?$AAr?$AAl?$AA?$AA@ 100f5b3c     libucrt:lcidtoname_downlevel.obj
 0002:00003b54       ??_C@_1BG@IBCKDDOE@?$AAa?$AAz?$AA?9?$AAa?$AAz?$AA?9?$AAl?$AAa?$AAt?$AAn?$AA?$AA@ 100f5b54     libucrt:lcidtoname_downlevel.obj
 0002:00003b6c       ??_C@_1M@EGPFDCPD@?$AAb?$AAe?$AA?9?$AAb?$AAy?$AA?$AA@ 100f5b6c     libucrt:lcidtoname_downlevel.obj
 0002:00003b78       ??_C@_1M@PCMGMCGC@?$AAb?$AAg?$AA?9?$AAb?$AAg?$AA?$AA@ 100f5b78     libucrt:lcidtoname_downlevel.obj
 0002:00003b84       ??_C@_1M@BJBMFGOB@?$AAb?$AAn?$AA?9?$AAi?$AAn?$AA?$AA@ 100f5b84     libucrt:lcidtoname_downlevel.obj
 0002:00003b90       ??_C@_1BG@EAKMMACD@?$AAb?$AAs?$AA?9?$AAb?$AAa?$AA?9?$AAl?$AAa?$AAt?$AAn?$AA?$AA@ 100f5b90     libucrt:lcidtoname_downlevel.obj
 0002:00003ba8       ??_C@_1M@KGADAODK@?$AAc?$AAa?$AA?9?$AAe?$AAs?$AA?$AA@ 100f5ba8     libucrt:lcidtoname_downlevel.obj
 0002:00003bb4       ??_C@_1M@COAJPDHI@?$AAc?$AAs?$AA?9?$AAc?$AAz?$AA?$AA@ 100f5bb4     libucrt:lcidtoname_downlevel.obj
 0002:00003bc0       ??_C@_1M@DHBHFONH@?$AAc?$AAy?$AA?9?$AAg?$AAb?$AA?$AA@ 100f5bc0     libucrt:lcidtoname_downlevel.obj
 0002:00003bcc       ??_C@_1M@IMGKELGA@?$AAd?$AAa?$AA?9?$AAd?$AAk?$AA?$AA@ 100f5bcc     libucrt:lcidtoname_downlevel.obj
 0002:00003bd8       ??_C@_1M@NNDGDNGA@?$AAd?$AAe?$AA?9?$AAa?$AAt?$AA?$AA@ 100f5bd8     libucrt:lcidtoname_downlevel.obj
 0002:00003be4       ??_C@_1M@IKDBHEEM@?$AAd?$AAe?$AA?9?$AAc?$AAh?$AA?$AA@ 100f5be4     libucrt:lcidtoname_downlevel.obj
 0002:00003bf0       ??_C@_1M@GFFOJMCJ@?$AAd?$AAe?$AA?9?$AAd?$AAe?$AA?$AA@ 100f5bf0     libucrt:lcidtoname_downlevel.obj
 0002:00003bfc       ??_C@_1M@MDNLKBPM@?$AAd?$AAe?$AA?9?$AAl?$AAi?$AA?$AA@ 100f5bfc     libucrt:lcidtoname_downlevel.obj
 0002:00003c08       ??_C@_1M@NJBEEJNL@?$AAd?$AAe?$AA?9?$AAl?$AAu?$AA?$AA@ 100f5c08     libucrt:lcidtoname_downlevel.obj
 0002:00003c14       ??_C@_1O@GNNELBAP@?$AAd?$AAi?$AAv?$AA?9?$AAm?$AAv?$AA?$AA@ 100f5c14     libucrt:lcidtoname_downlevel.obj
 0002:00003c24       ??_C@_1M@EJLEOGAE@?$AAe?$AAl?$AA?9?$AAg?$AAr?$AA?$AA@ 100f5c24     libucrt:lcidtoname_downlevel.obj
 0002:00003c30       ??_C@_1M@GMPONJN@?$AAe?$AAn?$AA?9?$AAa?$AAu?$AA?$AA@ 100f5c30     libucrt:lcidtoname_downlevel.obj
 0002:00003c3c       ??_C@_1M@NIDIIPGF@?$AAe?$AAn?$AA?9?$AAb?$AAz?$AA?$AA@ 100f5c3c     libucrt:lcidtoname_downlevel.obj
 0002:00003c48       ??_C@_1M@JEHMIMFO@?$AAe?$AAn?$AA?9?$AAc?$AAa?$AA?$AA@ 100f5c48     libucrt:lcidtoname_downlevel.obj
 0002:00003c54       ??_C@_1M@IGMJCDLA@?$AAe?$AAn?$AA?9?$AAc?$AAb?$AA?$AA@ 100f5c54     libucrt:lcidtoname_downlevel.obj
 0002:00003c60       ??_C@_1M@BNFIGBKG@?$AAe?$AAn?$AA?9?$AAg?$AAb?$AA?$AA@ 100f5c60     libucrt:lcidtoname_downlevel.obj
 0002:00003c6c       ??_C@_1M@LKIFDIGP@?$AAe?$AAn?$AA?9?$AAi?$AAe?$AA?$AA@ 100f5c6c     libucrt:lcidtoname_downlevel.obj
 0002:00003c78       ??_C@_1M@PJKFGCCO@?$AAe?$AAn?$AA?9?$AAj?$AAm?$AA?$AA@ 100f5c78     libucrt:lcidtoname_downlevel.obj
 0002:00003c84       ??_C@_1M@KPPKEPBO@?$AAe?$AAn?$AA?9?$AAn?$AAz?$AA?$AA@ 100f5c84     libucrt:lcidtoname_downlevel.obj
 0002:00003c90       ??_C@_1M@GMDGLDOB@?$AAe?$AAn?$AA?9?$AAp?$AAh?$AA?$AA@ 100f5c90     libucrt:lcidtoname_downlevel.obj
 0002:00003c9c       ??_C@_1M@ONGIBJNA@?$AAe?$AAn?$AA?9?$AAt?$AAt?$AA?$AA@ 100f5c9c     libucrt:lcidtoname_downlevel.obj
 0002:00003ca8       ??_C@_1M@LLODPCMM@?$AAe?$AAn?$AA?9?$AAu?$AAs?$AA?$AA@ 100f5ca8     libucrt:lcidtoname_downlevel.obj
 0002:00003cb4       ??_C@_1M@LAKFNPAN@?$AAe?$AAn?$AA?9?$AAz?$AAa?$AA?$AA@ 100f5cb4     libucrt:lcidtoname_downlevel.obj
 0002:00003cc0       ??_C@_1M@MFNHNHEO@?$AAe?$AAn?$AA?9?$AAz?$AAw?$AA?$AA@ 100f5cc0     libucrt:lcidtoname_downlevel.obj
 0002:00003ccc       ??_C@_1M@EJEINPHM@?$AAe?$AAs?$AA?9?$AAa?$AAr?$AA?$AA@ 100f5ccc     libucrt:lcidtoname_downlevel.obj
 0002:00003cd8       ??_C@_1M@GNKPCCJA@?$AAe?$AAs?$AA?9?$AAb?$AAo?$AA?$AA@ 100f5cd8     libucrt:lcidtoname_downlevel.obj
 0002:00003ce4       ??_C@_1M@LEEGFONL@?$AAe?$AAs?$AA?9?$AAc?$AAl?$AA?$AA@ 100f5ce4     libucrt:lcidtoname_downlevel.obj
 0002:00003cf0       ??_C@_1M@KGPDPBDF@?$AAe?$AAs?$AA?9?$AAc?$AAo?$AA?$AA@ 100f5cf0     libucrt:lcidtoname_downlevel.obj
 0002:00003cfc       ??_C@_1M@EIAHOHH@?$AAe?$AAs?$AA?9?$AAc?$AAr?$AA?$AA@ 100f5cfc     libucrt:lcidtoname_downlevel.obj
 0002:00003d08       ??_C@_1M@LLPGMBIN@?$AAe?$AAs?$AA?9?$AAd?$AAo?$AA?$AA@ 100f5d08     libucrt:lcidtoname_downlevel.obj
 0002:00003d14       ??_C@_1M@DKHMKNJA@?$AAe?$AAs?$AA?9?$AAe?$AAc?$AA?$AA@ 100f5d14     libucrt:lcidtoname_downlevel.obj
 0002:00003d20       ??_C@_1M@GKGFPKAP@?$AAe?$AAs?$AA?9?$AAe?$AAs?$AA?$AA@ 100f5d20     libucrt:lcidtoname_downlevel.obj
 0002:00003d2c       ??_C@_1M@LKHKGDLN@?$AAe?$AAs?$AA?9?$AAg?$AAt?$AA?$AA@ 100f5d2c     libucrt:lcidtoname_downlevel.obj
 0002:00003d38       ??_C@_1M@HEIIGGJD@?$AAe?$AAs?$AA?9?$AAh?$AAn?$AA?$AA@ 100f5d38     libucrt:lcidtoname_downlevel.obj
 0002:00003d44       ??_C@_1M@FBDHPPGD@?$AAe?$AAs?$AA?9?$AAm?$AAx?$AA?$AA@ 100f5d44     libucrt:lcidtoname_downlevel.obj
 0002:00003d50       ??_C@_1M@DPAGLNDH@?$AAe?$AAs?$AA?9?$AAn?$AAi?$AA?$AA@ 100f5d50     libucrt:lcidtoname_downlevel.obj
 0002:00003d5c       ??_C@_1M@MDGOPGDD@?$AAe?$AAs?$AA?9?$AAp?$AAa?$AA?$AA@ 100f5d5c     libucrt:lcidtoname_downlevel.obj
 0002:00003d68       ??_C@_1M@EMAMGBGE@?$AAe?$AAs?$AA?9?$AAp?$AAe?$AA?$AA@ 100f5d68     libucrt:lcidtoname_downlevel.obj
 0002:00003d74       ??_C@_1M@IBMCAOEC@?$AAe?$AAs?$AA?9?$AAp?$AAr?$AA?$AA@ 100f5d74     libucrt:lcidtoname_downlevel.obj
 0002:00003d80       ??_C@_1M@FGMDIJED@?$AAe?$AAs?$AA?9?$AAp?$AAy?$AA?$AA@ 100f5d80     libucrt:lcidtoname_downlevel.obj
 0002:00003d8c       ??_C@_1M@IIDEOLLL@?$AAe?$AAs?$AA?9?$AAs?$AAv?$AA?$AA@ 100f5d8c     libucrt:lcidtoname_downlevel.obj
 0002:00003d98       ??_C@_1M@GAOBIPA@?$AAe?$AAs?$AA?9?$AAu?$AAy?$AA?$AA@ 100f5d98     libucrt:lcidtoname_downlevel.obj
 0002:00003da4       ??_C@_1M@JKFFICHJ@?$AAe?$AAs?$AA?9?$AAv?$AAe?$AA?$AA@ 100f5da4     libucrt:lcidtoname_downlevel.obj
 0002:00003db0       ??_C@_1M@PNMLOJDF@?$AAe?$AAt?$AA?9?$AAe?$AAe?$AA?$AA@ 100f5db0     libucrt:lcidtoname_downlevel.obj
 0002:00003dbc       ??_C@_1M@GHHLIKEI@?$AAe?$AAu?$AA?9?$AAe?$AAs?$AA?$AA@ 100f5dbc     libucrt:lcidtoname_downlevel.obj
 0002:00003dc8       ??_C@_1M@PBNONODE@?$AAf?$AAa?$AA?9?$AAi?$AAr?$AA?$AA@ 100f5dc8     libucrt:lcidtoname_downlevel.obj
 0002:00003dd4       ??_C@_1M@JEEHPMIL@?$AAf?$AAi?$AA?9?$AAf?$AAi?$AA?$AA@ 100f5dd4     libucrt:lcidtoname_downlevel.obj
 0002:00003de0       ??_C@_1M@LMDCNDBA@?$AAf?$AAo?$AA?9?$AAf?$AAo?$AA?$AA@ 100f5de0     libucrt:lcidtoname_downlevel.obj
 0002:00003dec       ??_C@_1M@JKEOHLDK@?$AAf?$AAr?$AA?9?$AAb?$AAe?$AA?$AA@ 100f5dec     libucrt:lcidtoname_downlevel.obj
 0002:00003df8       ??_C@_1M@NOHADPMI@?$AAf?$AAr?$AA?9?$AAc?$AAa?$AA?$AA@ 100f5df8     libucrt:lcidtoname_downlevel.obj
 0002:00003e04       ??_C@_1M@KDHIHAEC@?$AAf?$AAr?$AA?9?$AAc?$AAh?$AA?$AA@ 100f5e04     libucrt:lcidtoname_downlevel.obj
 0002:00003e10       ??_C@_1M@MMBBFGAK@?$AAf?$AAr?$AA?9?$AAf?$AAr?$AA?$AA@ 100f5e10     libucrt:lcidtoname_downlevel.obj
 0002:00003e1c       ??_C@_1M@PAFNENNF@?$AAf?$AAr?$AA?9?$AAl?$AAu?$AA?$AA@ 100f5e1c     libucrt:lcidtoname_downlevel.obj
 0002:00003e28       ??_C@_1M@EOHDJGDD@?$AAf?$AAr?$AA?9?$AAm?$AAc?$AA?$AA@ 100f5e28     libucrt:lcidtoname_downlevel.obj
 0002:00003e34       ??_C@_1M@FAPLLOPF@?$AAg?$AAl?$AA?9?$AAe?$AAs?$AA?$AA@ 100f5e34     libucrt:lcidtoname_downlevel.obj
 0002:00003e40       ??_C@_1M@FOPBFLOO@?$AAg?$AAu?$AA?9?$AAi?$AAn?$AA?$AA@ 100f5e40     libucrt:lcidtoname_downlevel.obj
 0002:00003e4c       ??_C@_1M@KBMCINPM@?$AAh?$AAe?$AA?9?$AAi?$AAl?$AA?$AA@ 100f5e4c     libucrt:lcidtoname_downlevel.obj
 0002:00003e58       ??_C@_1M@BBPHKFPJ@?$AAh?$AAi?$AA?9?$AAi?$AAn?$AA?$AA@ 100f5e58     libucrt:lcidtoname_downlevel.obj
 0002:00003e64       ??_C@_1M@PMBNDPHD@?$AAh?$AAr?$AA?9?$AAb?$AAa?$AA?$AA@ 100f5e64     libucrt:lcidtoname_downlevel.obj
 0002:00003e70       ??_C@_1M@BPCKOEGE@?$AAh?$AAr?$AA?9?$AAh?$AAr?$AA?$AA@ 100f5e70     libucrt:lcidtoname_downlevel.obj
 0002:00003e7c       ??_C@_1M@GACBMHKE@?$AAh?$AAu?$AA?9?$AAh?$AAu?$AA?$AA@ 100f5e7c     libucrt:lcidtoname_downlevel.obj
 0002:00003e88       ??_C@_1M@MILPAJJC@?$AAh?$AAy?$AA?9?$AAa?$AAm?$AA?$AA@ 100f5e88     libucrt:lcidtoname_downlevel.obj
 0002:00003e94       ??_C@_1M@BABBICEC@?$AAi?$AAd?$AA?9?$AAi?$AAd?$AA?$AA@ 100f5e94     libucrt:lcidtoname_downlevel.obj
 0002:00003ea0       ??_C@_1M@BIKNHHPF@?$AAi?$AAs?$AA?9?$AAi?$AAs?$AA?$AA@ 100f5ea0     libucrt:lcidtoname_downlevel.obj
 0002:00003eac       ??_C@_1M@NMPCJPHE@?$AAi?$AAt?$AA?9?$AAc?$AAh?$AA?$AA@ 100f5eac     libucrt:lcidtoname_downlevel.obj
 0002:00003eb8       ??_C@_1M@GHKGFEDF@?$AAi?$AAt?$AA?9?$AAi?$AAt?$AA?$AA@ 100f5eb8     libucrt:lcidtoname_downlevel.obj
 0002:00003ec4       ??_C@_1M@NIEJCJJA@?$AAj?$AAa?$AA?9?$AAj?$AAp?$AA?$AA@ 100f5ec4     libucrt:lcidtoname_downlevel.obj
 0002:00003ed0       ??_C@_1M@JILFNBIM@?$AAk?$AAa?$AA?9?$AAg?$AAe?$AA?$AA@ 100f5ed0     libucrt:lcidtoname_downlevel.obj
 0002:00003edc       ??_C@_1M@PACPMGPH@?$AAk?$AAk?$AA?9?$AAk?$AAz?$AA?$AA@ 100f5edc     libucrt:lcidtoname_downlevel.obj
 0002:00003ee8       ??_C@_1M@IELFGMHA@?$AAk?$AAn?$AA?9?$AAi?$AAn?$AA?$AA@ 100f5ee8     libucrt:lcidtoname_downlevel.obj
 0002:00003ef4       ??_C@_1O@IBBJHCH@?$AAk?$AAo?$AAk?$AA?9?$AAi?$AAn?$AA?$AA@ 100f5ef4     libucrt:lcidtoname_downlevel.obj
 0002:00003f04       ??_C@_1M@DMHAEOGC@?$AAk?$AAo?$AA?9?$AAk?$AAr?$AA?$AA@ 100f5f04     libucrt:lcidtoname_downlevel.obj
 0002:00003f10       ??_C@_1M@HBAHBIGA@?$AAk?$AAy?$AA?9?$AAk?$AAg?$AA?$AA@ 100f5f10     libucrt:lcidtoname_downlevel.obj
 0002:00003f1c       ??_C@_1M@KPMILCJG@?$AAl?$AAt?$AA?9?$AAl?$AAt?$AA?$AA@ 100f5f1c     libucrt:lcidtoname_downlevel.obj
 0002:00003f28       ??_C@_1M@BDEKKCA@?$AAl?$AAv?$AA?9?$AAl?$AAv?$AA?$AA@ 100f5f28     libucrt:lcidtoname_downlevel.obj
 0002:00003f34       ??_C@_1M@ELCKCCJJ@?$AAm?$AAi?$AA?9?$AAn?$AAz?$AA?$AA@ 100f5f34     libucrt:lcidtoname_downlevel.obj
 0002:00003f40       ??_C@_1M@CBOOLAPA@?$AAm?$AAk?$AA?9?$AAm?$AAk?$AA?$AA@ 100f5f40     libucrt:lcidtoname_downlevel.obj
 0002:00003f4c       ??_C@_1M@GPHNBJKN@?$AAm?$AAl?$AA?9?$AAi?$AAn?$AA?$AA@ 100f5f4c     libucrt:lcidtoname_downlevel.obj
 0002:00003f58       ??_C@_1M@PABJILIG@?$AAm?$AAn?$AA?9?$AAm?$AAn?$AA?$AA@ 100f5f58     libucrt:lcidtoname_downlevel.obj
 0002:00003f64       ??_C@_1M@FGBKKIPG@?$AAm?$AAr?$AA?9?$AAi?$AAn?$AA?$AA@ 100f5f64     libucrt:lcidtoname_downlevel.obj
 0002:00003f70       ??_C@_1M@NDBPDDAL@?$AAm?$AAs?$AA?9?$AAb?$AAn?$AA?$AA@ 100f5f70     libucrt:lcidtoname_downlevel.obj
 0002:00003f7c       ??_C@_1M@OPIHOOPI@?$AAm?$AAs?$AA?9?$AAm?$AAy?$AA?$AA@ 100f5f7c     libucrt:lcidtoname_downlevel.obj
 0002:00003f88       ??_C@_1M@PPDBCNFM@?$AAm?$AAt?$AA?9?$AAm?$AAt?$AA?$AA@ 100f5f88     libucrt:lcidtoname_downlevel.obj
 0002:00003f94       ??_C@_1M@KDJDKMDD@?$AAn?$AAb?$AA?9?$AAn?$AAo?$AA?$AA@ 100f5f94     libucrt:lcidtoname_downlevel.obj
 0002:00003fa0       ??_C@_1M@KFCFLMJP@?$AAn?$AAl?$AA?9?$AAb?$AAe?$AA?$AA@ 100f5fa0     libucrt:lcidtoname_downlevel.obj
 0002:00003fac       ??_C@_1M@KPOPDDGO@?$AAn?$AAl?$AA?9?$AAn?$AAl?$AA?$AA@ 100f5fac     libucrt:lcidtoname_downlevel.obj
 0002:00003fb8       ??_C@_1M@LJKPEMLN@?$AAn?$AAn?$AA?9?$AAn?$AAo?$AA?$AA@ 100f5fb8     libucrt:lcidtoname_downlevel.obj
 0002:00003fc4       ??_C@_1M@BDGHHBFL@?$AAn?$AAs?$AA?9?$AAz?$AAa?$AA?$AA@ 100f5fc4     libucrt:lcidtoname_downlevel.obj
 0002:00003fd0       ??_C@_1M@IDEHOAP@?$AAp?$AAa?$AA?9?$AAi?$AAn?$AA?$AA@ 100f5fd0     libucrt:lcidtoname_downlevel.obj
 0002:00003fdc       ??_C@_1M@HDBKGOGH@?$AAp?$AAl?$AA?9?$AAp?$AAl?$AA?$AA@ 100f5fdc     libucrt:lcidtoname_downlevel.obj
 0002:00003fe8       ??_C@_1M@LJLLCMEH@?$AAp?$AAt?$AA?9?$AAb?$AAr?$AA?$AA@ 100f5fe8     libucrt:lcidtoname_downlevel.obj
 0002:00003ff4       ??_C@_1M@NCMONAAL@?$AAp?$AAt?$AA?9?$AAp?$AAt?$AA?$AA@ 100f5ff4     libucrt:lcidtoname_downlevel.obj
 0002:00004000       ??_C@_1O@EAKMAJDN@?$AAq?$AAu?$AAz?$AA?9?$AAb?$AAo?$AA?$AA@ 100f6000     libucrt:lcidtoname_downlevel.obj
 0002:00004010       ??_C@_1O@BHHPIGDN@?$AAq?$AAu?$AAz?$AA?9?$AAe?$AAc?$AA?$AA@ 100f6010     libucrt:lcidtoname_downlevel.obj
 0002:00004020       ??_C@_1O@GBAPEKMJ@?$AAq?$AAu?$AAz?$AA?9?$AAp?$AAe?$AA?$AA@ 100f6020     libucrt:lcidtoname_downlevel.obj
 0002:00004030       ??_C@_1M@CLGLEFBO@?$AAr?$AAo?$AA?9?$AAr?$AAo?$AA?$AA@ 100f6030     libucrt:lcidtoname_downlevel.obj
 0002:0000403c       ??_C@_1M@CEEDODME@?$AAr?$AAu?$AA?9?$AAr?$AAu?$AA?$AA@ 100f603c     libucrt:lcidtoname_downlevel.obj
 0002:00004048       ??_C@_1M@HPKKKMPP@?$AAs?$AAa?$AA?9?$AAi?$AAn?$AA?$AA@ 100f6048     libucrt:lcidtoname_downlevel.obj
 0002:00004054       ??_C@_1M@BKMAIGOJ@?$AAs?$AAe?$AA?9?$AAf?$AAi?$AA?$AA@ 100f6054     libucrt:lcidtoname_downlevel.obj
 0002:00004060       ??_C@_1M@NDPIFLFI@?$AAs?$AAe?$AA?9?$AAn?$AAo?$AA?$AA@ 100f6060     libucrt:lcidtoname_downlevel.obj
 0002:0000406c       ??_C@_1M@DANKKHJ@?$AAs?$AAe?$AA?9?$AAs?$AAe?$AA?$AA@ 100f606c     libucrt:lcidtoname_downlevel.obj
 0002:00004078       ??_C@_1M@PNBLONPJ@?$AAs?$AAk?$AA?9?$AAs?$AAk?$AA?$AA@ 100f6078     libucrt:lcidtoname_downlevel.obj
 0002:00004084       ??_C@_1M@LFMODOAL@?$AAs?$AAl?$AA?9?$AAs?$AAi?$AA?$AA@ 100f6084     libucrt:lcidtoname_downlevel.obj
 0002:00004090       ??_C@_1O@DFKOMPG@?$AAs?$AAm?$AAa?$AA?9?$AAn?$AAo?$AA?$AA@ 100f6090     libucrt:lcidtoname_downlevel.obj
 0002:000040a0       ??_C@_1O@NDKPBNNH@?$AAs?$AAm?$AAa?$AA?9?$AAs?$AAe?$AA?$AA@ 100f60a0     libucrt:lcidtoname_downlevel.obj
 0002:000040b0       ??_C@_1O@PLLKBHAB@?$AAs?$AAm?$AAj?$AA?9?$AAn?$AAo?$AA?$AA@ 100f60b0     libucrt:lcidtoname_downlevel.obj
 0002:000040c0       ??_C@_1O@CLEPOGCA@?$AAs?$AAm?$AAj?$AA?9?$AAs?$AAe?$AA?$AA@ 100f60c0     libucrt:lcidtoname_downlevel.obj
 0002:000040d0       ??_C@_1O@DLGJGKMK@?$AAs?$AAm?$AAn?$AA?9?$AAf?$AAi?$AA?$AA@ 100f60d0     libucrt:lcidtoname_downlevel.obj
 0002:000040e0       ??_C@_1O@OJDJGAJC@?$AAs?$AAm?$AAs?$AA?9?$AAf?$AAi?$AA?$AA@ 100f60e0     libucrt:lcidtoname_downlevel.obj
 0002:000040f0       ??_C@_1M@BOFOGHPB@?$AAs?$AAq?$AA?9?$AAa?$AAl?$AA?$AA@ 100f60f0     libucrt:lcidtoname_downlevel.obj
 0002:000040fc       ??_C@_1BG@LJBBIPGB@?$AAs?$AAr?$AA?9?$AAb?$AAa?$AA?9?$AAc?$AAy?$AAr?$AAl?$AA?$AA@ 100f60fc     libucrt:lcidtoname_downlevel.obj
 0002:00004114       ??_C@_1BG@JLBENFOE@?$AAs?$AAr?$AA?9?$AAb?$AAa?$AA?9?$AAl?$AAa?$AAt?$AAn?$AA?$AA@ 100f6114     libucrt:lcidtoname_downlevel.obj
 0002:0000412c       ??_C@_1BG@KODPNHE@?$AAs?$AAr?$AA?9?$AAs?$AAp?$AA?9?$AAc?$AAy?$AAr?$AAl?$AA?$AA@ 100f612c     libucrt:lcidtoname_downlevel.obj
 0002:00004144       ??_C@_1BG@CIOGKHPB@?$AAs?$AAr?$AA?9?$AAs?$AAp?$AA?9?$AAl?$AAa?$AAt?$AAn?$AA?$AA@ 100f6144     libucrt:lcidtoname_downlevel.obj
 0002:0000415c       ??_C@_1M@NGFJLMAC@?$AAs?$AAv?$AA?9?$AAf?$AAi?$AA?$AA@ 100f615c     libucrt:lcidtoname_downlevel.obj
 0002:00004168       ??_C@_1M@MPJEJAJC@?$AAs?$AAv?$AA?9?$AAs?$AAe?$AA?$AA@ 100f6168     libucrt:lcidtoname_downlevel.obj
 0002:00004174       ??_C@_1M@MPNDHLFK@?$AAs?$AAw?$AA?9?$AAk?$AAe?$AA?$AA@ 100f6174     libucrt:lcidtoname_downlevel.obj
 0002:00004180       ??_C@_1O@KOHBJJI@?$AAs?$AAy?$AAr?$AA?9?$AAs?$AAy?$AA?$AA@ 100f6180     libucrt:lcidtoname_downlevel.obj
 0002:00004190       ??_C@_1M@LDCEFHA@?$AAt?$AAa?$AA?9?$AAi?$AAn?$AA?$AA@ 100f6190     libucrt:lcidtoname_downlevel.obj
 0002:0000419c       ??_C@_1M@CNJOFAK@?$AAt?$AAe?$AA?9?$AAi?$AAn?$AA?$AA@ 100f619c     libucrt:lcidtoname_downlevel.obj
 0002:000041a8       ??_C@_1M@GNAECACD@?$AAt?$AAh?$AA?9?$AAt?$AAh?$AA?$AA@ 100f61a8     libucrt:lcidtoname_downlevel.obj
 0002:000041b4       ??_C@_1M@CHBIHOJO@?$AAt?$AAn?$AA?9?$AAz?$AAa?$AA?$AA@ 100f61b4     libucrt:lcidtoname_downlevel.obj
 0002:000041c0       ??_C@_1M@GCCMIGPJ@?$AAt?$AAr?$AA?9?$AAt?$AAr?$AA?$AA@ 100f61c0     libucrt:lcidtoname_downlevel.obj
 0002:000041cc       ??_C@_1M@CELMCNBK@?$AAt?$AAt?$AA?9?$AAr?$AAu?$AA?$AA@ 100f61cc     libucrt:lcidtoname_downlevel.obj
 0002:000041d8       ??_C@_1M@KLMCELGA@?$AAu?$AAk?$AA?9?$AAu?$AAa?$AA?$AA@ 100f61d8     libucrt:lcidtoname_downlevel.obj
 0002:000041e4       ??_C@_1M@EPAJJAJF@?$AAu?$AAr?$AA?9?$AAp?$AAk?$AA?$AA@ 100f61e4     libucrt:lcidtoname_downlevel.obj
 0002:000041f0       ??_C@_1BG@GEGPMCDJ@?$AAu?$AAz?$AA?9?$AAu?$AAz?$AA?9?$AAc?$AAy?$AAr?$AAl?$AA?$AA@ 100f61f0     libucrt:lcidtoname_downlevel.obj
 0002:00004208       ??_C@_1BG@EGGKJILM@?$AAu?$AAz?$AA?9?$AAu?$AAz?$AA?9?$AAl?$AAa?$AAt?$AAn?$AA?$AA@ 100f6208     libucrt:lcidtoname_downlevel.obj
 0002:00004220       ??_C@_1M@GFOCLFF@?$AAv?$AAi?$AA?9?$AAv?$AAn?$AA?$AA@ 100f6220     libucrt:lcidtoname_downlevel.obj
 0002:0000422c       ??_C@_1M@CPAMEDFI@?$AAx?$AAh?$AA?9?$AAz?$AAa?$AA?$AA@ 100f622c     libucrt:lcidtoname_downlevel.obj
 0002:00004238       ??_C@_1O@EBKIFIGN@?$AAz?$AAh?$AA?9?$AAc?$AAh?$AAs?$AA?$AA@ 100f6238     libucrt:lcidtoname_downlevel.obj
 0002:00004248       ??_C@_1O@NMHPGANE@?$AAz?$AAh?$AA?9?$AAc?$AAh?$AAt?$AA?$AA@ 100f6248     libucrt:lcidtoname_downlevel.obj
 0002:00004258       ??_C@_1M@LPINJOMC@?$AAz?$AAh?$AA?9?$AAc?$AAn?$AA?$AA@ 100f6258     libucrt:lcidtoname_downlevel.obj
 0002:00004264       ??_C@_1M@OCJEJODD@?$AAz?$AAh?$AA?9?$AAh?$AAk?$AA?$AA@ 100f6264     libucrt:lcidtoname_downlevel.obj
 0002:00004270       ??_C@_1M@DNDLJINH@?$AAz?$AAh?$AA?9?$AAm?$AAo?$AA?$AA@ 100f6270     libucrt:lcidtoname_downlevel.obj
 0002:0000427c       ??_C@_1M@MBFDNDND@?$AAz?$AAh?$AA?9?$AAs?$AAg?$AA?$AA@ 100f627c     libucrt:lcidtoname_downlevel.obj
 0002:00004288       ??_C@_1M@IMEPLEPE@?$AAz?$AAh?$AA?9?$AAt?$AAw?$AA?$AA@ 100f6288     libucrt:lcidtoname_downlevel.obj
 0002:00004294       ??_C@_1M@BBGHNHJP@?$AAz?$AAu?$AA?9?$AAz?$AAa?$AA?$AA@ 100f6294     libucrt:lcidtoname_downlevel.obj
 0002:000042a0       __days                     100f62a0     libucrt:days.obj
 0002:000042d4       __lpdays                   100f62d4     libucrt:days.obj
 0002:000043f0       __infinity                 100f63f0     libucrt:87tran.obj
 0002:000043fa       __minfinity                100f63fa     libucrt:87tran.obj
 0002:00004404       __logemax                  100f6404     libucrt:87tran.obj
 0002:0000442a       __OP_EXPjmptab             100f642a     libucrt:87tran.obj
 0002:00004450       __indefinite               100f6450     libucrt:87disp.obj
 0002:0000445a       __piby2                    100f645a     libucrt:87disp.obj
 0002:00004464       __piby4                    100f6464     libucrt:87disp.obj
 0002:00004498       __DEFAULT_CW_in_mem        100f6498     libucrt:common.obj
 0002:0000449a       __pi_by_2_to_61            100f649a     libucrt:common.obj
 0002:000044d4       ??_C@_03JGHBODFD@pow?$AA@  100f64d4     libucrt:libm_error.obj
 0002:000044e0       ___acrt_log_table_b        100f64e0     libucrt:log_tables.obj
 0002:000048f0       ___acrt_log_table_t        100f68f0     libucrt:log_tables.obj
 0002:00004d58       __d_inf                    100f6d58     libucrt:util.obj
 0002:00004d60       __d_max                    100f6d60     libucrt:util.obj
 0002:00004d68       __d_mzero                  100f6d68     libucrt:util.obj
 0002:00004d70       ??_C@_04ODHECPBC@fabs?$AA@ 100f6d70     libucrt:fpexcept.obj
 0002:00004d78       ??_C@_04EHEDPDJG@modf?$AA@ 100f6d78     libucrt:fpexcept.obj
 0002:00004d80       ??_C@_05CEJMAHNP@ldexp?$AA@ 100f6d80     libucrt:fpexcept.obj
 0002:00004d88       ??_C@_05KBKMEMPO@_cabs?$AA@ 100f6d88     libucrt:fpexcept.obj
 0002:00004d90       ??_C@_06MEIMCGCF@_hypot?$AA@ 100f6d90     libucrt:fpexcept.obj
 0002:00004d98       ??_C@_04KEPJIHGP@fmod?$AA@ 100f6d98     libucrt:fpexcept.obj
 0002:00004da0       ??_C@_05GKKHEGJL@frexp?$AA@ 100f6da0     libucrt:fpexcept.obj
 0002:00004da8       ??_C@_03MJLDFKDL@_y0?$AA@  100f6da8     libucrt:fpexcept.obj
 0002:00004dac       ??_C@_03NAKIGLHK@_y1?$AA@  100f6dac     libucrt:fpexcept.obj
 0002:00004db0       ??_C@_03ONILCKOB@_yn?$AA@  100f6db0     libucrt:fpexcept.obj
 0002:00004db4       ??_C@_05JGDBENOH@_logb?$AA@ 100f6db4     libucrt:fpexcept.obj
 0002:00004dbc       ??_C@_0L@KDOEJCKC@_nextafter?$AA@ 100f6dbc     libucrt:fpexcept.obj
 0002:00004fd0       ??_C@_1BA@BALFACEM@?$AAC?$AAO?$AAN?$AAO?$AAU?$AAT?$AA$?$AA?$AA@ 100f6fd0     libucrt:initcon.obj
 0002:00004fe0       ___acrt_log10_table_t      100f6fe0     libucrt:log10_tables.obj
 0002:000053f0       ___acrt_log10_table_cb     100f73f0     libucrt:log10_tables.obj
 0002:00005800       ??_C@_0BD@CIAIDBEM@COMPILER?$DNmsvc?91900?$AA@ 100f7800     interop.obj
 0002:00005814       ??_C@_0BB@NKOFIICJ@ENABLE_API_ARMOR?$AA@ 100f7814     interop.obj
 0002:00005828       ??_C@_0BH@CMJLKIMD@ENABLE_COLUMN_METADATA?$AA@ 100f7828     interop.obj
 0002:00005840       ??_C@_0BD@KNIHDNAP@ENABLE_DBSTAT_VTAB?$AA@ 100f7840     interop.obj
 0002:00005854       ??_C@_0M@LFFMHLBN@ENABLE_FTS3?$AA@ 100f7854     interop.obj
 0002:00005860       ??_C@_0BG@DOKPBAOP@ENABLE_LOAD_EXTENSION?$AA@ 100f7860     interop.obj
 0002:00005878       ??_C@_0BJ@LLLBHPOM@ENABLE_MEMORY_MANAGEMENT?$AA@ 100f7878     interop.obj
 0002:00005894       ??_C@_0BG@ECILBGJA@ENABLE_PREUPDATE_HOOK?$AA@ 100f7894     interop.obj
 0002:000058ac       ??_C@_0N@JODKLIOI@ENABLE_RTREE?$AA@ 100f78ac     interop.obj
 0002:000058bc       ??_C@_0P@CFAIONMN@ENABLE_SESSION?$AA@ 100f78bc     interop.obj
 0002:000058cc       ??_C@_0N@DMAKBCMM@ENABLE_STAT4?$AA@ 100f78cc     interop.obj
 0002:000058dc       ??_C@_0BA@NDLOOKAJ@ENABLE_STMTVTAB?$AA@ 100f78dc     interop.obj
 0002:000058ec       ??_C@_09LMNJIBDP@HAS_CODEC?$AA@ 100f78ec     interop.obj
 0002:000058f8       ??_C@_07FIPCPJFC@SOUNDEX?$AA@ 100f78f8     interop.obj
 0002:00005900       ??_C@_0N@HEAGAILC@THREADSAFE?$DN1?$AA@ 100f7900     interop.obj
 0002:00005910       ??_C@_07MCKABMNJ@USE_URI?$AA@ 100f7910     interop.obj
 0002:00005918       ??_C@_0N@KPAIEOFP@WIN32_MALLOC?$AA@ 100f7918     interop.obj
 0002:00005928       ??_C@_01GBGANLPD@0?$AA@    100f7928     interop.obj
 0002:0000592c       ??_C@_01HIHLOKLC@1?$AA@    100f792c     interop.obj
 0002:00005930       ??_C@_07DNDIJFOK@20b?320e?$AA@ 100f7930     interop.obj
 0002:00005938       ??_C@_07PGGEEGEP@20c?320e?$AA@ 100f7938     interop.obj
 0002:00005940       ??_C@_03LIHIGKLL@20e?$AA@  100f7940     interop.obj
 0002:00005944       ??_C@_0M@FJDHLCLG@40f?921a?921d?$AA@ 100f7944     interop.obj
 0002:00005950       ??_C@_03CGLHMDPP@now?$AA@  100f7950     interop.obj
 0002:00005954       ??_C@_0BH@HEILFFIJ@local?5time?5unavailable?$AA@ 100f7954     interop.obj
 0002:0000596c       ??_C@_06BJCFNGJP@second?$AA@ 100f796c     interop.obj
 0002:00005974       ??_C@_06JGJIJFNK@minute?$AA@ 100f7974     interop.obj
 0002:0000597c       ??_C@_04LMOJGCPE@hour?$AA@ 100f797c     interop.obj
 0002:00005984       ??_C@_03NNBHCDBP@day?$AA@  100f7984     interop.obj
 0002:00005988       ??_C@_05MEBAADFH@month?$AA@ 100f7988     interop.obj
 0002:00005990       ??_C@_04JFPLDHAO@year?$AA@ 100f7990     interop.obj
 0002:00005998       ??_C@_09EKBOCLDN@localtime?$AA@ 100f7998     interop.obj
 0002:000059a4       ??_C@_09KNIMKLBK@unixepoch?$AA@ 100f79a4     interop.obj
 0002:000059b0       ??_C@_03JPHCIIKF@utc?$AA@  100f79b0     interop.obj
 0002:000059b4       ??_C@_08IPAOEBNP@weekday?5?$AA@ 100f79b4     interop.obj
 0002:000059c0       ??_C@_09CABLEOFK@start?5of?5?$AA@ 100f79c0     interop.obj
 0002:000059cc       ??_C@_0BO@NGNOHJIK@?$CF04d?9?$CF02d?9?$CF02d?5?$CF02d?3?$CF02d?3?$CF02d?$AA@ 100f79cc     interop.obj
 0002:000059ec       ??_C@_0P@PLMNPDMB@?$CF02d?3?$CF02d?3?$CF02d?$AA@ 100f79ec     interop.obj
 0002:000059fc       ??_C@_0P@MCDGMPHH@?$CF04d?9?$CF02d?9?$CF02d?$AA@ 100f79fc     interop.obj
 0002:00005a0c       ??_C@_04OGKJMPGK@?$CF02d?$AA@ 100f7a0c     interop.obj
 0002:00005a14       ??_C@_06IAGKDDNE@?$CF06?43f?$AA@ 100f7a14     interop.obj
 0002:00005a1c       ??_C@_04OHGLKFFN@?$CF03d?$AA@ 100f7a1c     interop.obj
 0002:00005a24       ??_C@_05CFGAKADK@?$CF?416g?$AA@ 100f7a24     interop.obj
 0002:00005a2c       ??_C@_04BFAHMMK@?$CFlld?$AA@ 100f7a2c     interop.obj
 0002:00005a34       ??_C@_04OCCELDNI@?$CF04d?$AA@ 100f7a34     interop.obj
 0002:00005a3c       ??_C@_09BPOICPEH@julianday?$AA@ 100f7a3c     interop.obj
 0002:00005a48       ??_C@_04JNIHBGGH@date?$AA@ 100f7a48     interop.obj
 0002:00005a50       ??_C@_04CLCEDBPF@time?$AA@ 100f7a50     interop.obj
 0002:00005a58       ??_C@_08FGNPMIBK@datetime?$AA@ 100f7a58     interop.obj
 0002:00005a64       ??_C@_08EPGBJPHJ@strftime?$AA@ 100f7a64     interop.obj
 0002:00005a70       ??_C@_0N@IPDKEGPB@current_time?$AA@ 100f7a70     interop.obj
 0002:00005a80       ??_C@_0BC@DDICBCEN@current_timestamp?$AA@ 100f7a80     interop.obj
 0002:00005a94       ??_C@_0N@DJJJGBGD@current_date?$AA@ 100f7a94     interop.obj
 0002:00005aa4       ??_C@_01FGNFDNOH@?$CF?$AA@ 100f7aa4     interop.obj
 0002:00005aa8       ??_C@_03ICJPMMHB@NaN?$AA@  100f7aa8     interop.obj
 0002:00005aac       ??_C@_00CNPNBAHC@?$AA@     100f7aac     interop.obj
 0002:00005ab0       ??_C@_04HIBGFPH@NULL?$AA@  100f7ab0     interop.obj
 0002:00005ab8       ??_C@_06LHGEHABH@?$CINULL?$CJ?$AA@ 100f7ab8     interop.obj
 0002:00005ac0       ??_C@_01LFCBOECM@?4?$AA@   100f7ac0     interop.obj
 0002:00005ad0       ??_C@_0BD@FKIFACO@922337203685477580?$AA@ 100f7ad0     interop.obj
 0002:00005ae4       ??_C@_0CN@EOKIBNLJ@API?5call?5with?5?$CFs?5database?5connec@ 100f7ae4     interop.obj
 0002:00005b14       ??_C@_08NFNJDBOK@unopened?$AA@ 100f7b14     interop.obj
 0002:00005b20       ??_C@_07MALOAKCI@invalid?$AA@ 100f7b20     interop.obj
 0002:00005b28       ??_C@_09OJILMLHM@Savepoint?$AA@ 100f7b28     interop.obj
 0002:00005b34       ??_C@_0L@BPKAOEDK@AutoCommit?$AA@ 100f7b34     interop.obj
 0002:00005b40       ??_C@_0M@MEGKBOMN@Transaction?$AA@ 100f7b40     interop.obj
 0002:00005b4c       ??_C@_0L@MGGJHFHJ@SorterNext?$AA@ 100f7b4c     interop.obj
 0002:00005b58       ??_C@_0L@GJHBGGGF@PrevIfOpen?$AA@ 100f7b58     interop.obj
 0002:00005b64       ??_C@_0L@EPCJLBGC@NextIfOpen?$AA@ 100f7b64     interop.obj
 0002:00005b70       ??_C@_04PHIBHIIF@Prev?$AA@ 100f7b70     interop.obj
 0002:00005b78       ??_C@_04MDFHGMOB@Next?$AA@ 100f7b78     interop.obj
 0002:00005b80       ??_C@_0L@IHLHABNJ@Checkpoint?$AA@ 100f7b80     interop.obj
 0002:00005b8c       ??_C@_0M@FAIDBMDK@JournalMode?$AA@ 100f7b8c     interop.obj
 0002:00005b98       ??_C@_06OBCEMCJB@Vacuum?$AA@ 100f7b98     interop.obj
 0002:00005ba0       ??_C@_07OKDOHLDO@VFilter?$AA@ 100f7ba0     interop.obj
 0002:00005ba8       ??_C@_07NHABAPID@VUpdate?$AA@ 100f7ba8     interop.obj
 0002:00005bb0       ??_C@_04BNGNMAK@Goto?$AA@  100f7bb0     interop.obj
 0002:00005bb8       ??_C@_05DLHJCIPI@Gosub?$AA@ 100f7bb8     interop.obj
 0002:00005bc0       ??_C@_0O@OADCGMIE@InitCoroutine?$AA@ 100f7bc0     interop.obj
 0002:00005bd0       ??_C@_05LNDKIJIJ@Yield?$AA@ 100f7bd0     interop.obj
 0002:00005bd8       ??_C@_09LLJOBHN@MustBeInt?$AA@ 100f7bd8     interop.obj
 0002:00005be4       ??_C@_04BIEPDJCB@Jump?$AA@ 100f7be4     interop.obj
 0002:00005bec       ??_C@_03KNKIDPAC@Not?$AA@  100f7bec     interop.obj
 0002:00005bf0       ??_C@_04GKJMKNNB@Once?$AA@ 100f7bf0     interop.obj
 0002:00005bf8       ??_C@_02EMFCFMID@If?$AA@   100f7bf8     interop.obj
 0002:00005bfc       ??_C@_05DALJIPE@IfNot?$AA@ 100f7bfc     interop.obj
 0002:00005c04       ??_C@_09LCOBJNPG@IfNullRow?$AA@ 100f7c04     interop.obj
 0002:00005c10       ??_C@_06DCDFCJIJ@SeekLT?$AA@ 100f7c10     interop.obj
 0002:00005c18       ??_C@_06GBOMAKJJ@SeekLE?$AA@ 100f7c18     interop.obj
 0002:00005c20       ??_C@_06GNLJOFHI@SeekGE?$AA@ 100f7c20     interop.obj
 0002:00005c28       ??_C@_06DOGAMGGI@SeekGT?$AA@ 100f7c28     interop.obj
 0002:00005c30       ??_C@_0L@MAHEJOGD@NoConflict?$AA@ 100f7c30     interop.obj
 0002:00005c3c       ??_C@_08MDBAGECB@NotFound?$AA@ 100f7c3c     interop.obj
 0002:00005c48       ??_C@_05JDGHEPJG@Found?$AA@ 100f7c48     interop.obj
 0002:00005c50       ??_C@_09KDEDFHKA@SeekRowid?$AA@ 100f7c50     interop.obj
 0002:00005c5c       ??_C@_09HMMGFEAA@NotExists?$AA@ 100f7c5c     interop.obj
 0002:00005c68       ??_C@_04DKKAEHDH@Last?$AA@ 100f7c68     interop.obj
 0002:00005c70       ??_C@_09NNOEIGHK@IfSmaller?$AA@ 100f7c70     interop.obj
 0002:00005c7c       ??_C@_0L@DMDDEDPI@SorterSort?$AA@ 100f7c7c     interop.obj
 0002:00005c88       ??_C@_04DJANFKGA@Sort?$AA@ 100f7c88     interop.obj
 0002:00005c90       ??_C@_06MAOEIKCJ@Rewind?$AA@ 100f7c90     interop.obj
 0002:00005c98       ??_C@_05FANNJDOC@IdxLE?$AA@ 100f7c98     interop.obj
 0002:00005ca0       ??_C@_05PFBFPBD@IdxGT?$AA@ 100f7ca0     interop.obj
 0002:00005ca8       ??_C@_05DAELAPC@IdxLT?$AA@ 100f7ca8     interop.obj
 0002:00005cb0       ??_C@_05FMIIHMAD@IdxGE?$AA@ 100f7cb0     interop.obj
 0002:00005cb8       ??_C@_0L@JELPJHIJ@RowSetRead?$AA@ 100f7cb8     interop.obj
 0002:00005cc4       ??_C@_02GGHBPHGE@Or?$AA@   100f7cc4     interop.obj
 0002:00005cc8       ??_C@_03LOMLFHDC@And?$AA@  100f7cc8     interop.obj
 0002:00005ccc       ??_C@_0L@EOJPAHGG@RowSetTest?$AA@ 100f7ccc     interop.obj
 0002:00005cd8       ??_C@_07DOMMNIGK@Program?$AA@ 100f7cd8     interop.obj
 0002:00005ce0       ??_C@_08PNIKOKNB@FkIfZero?$AA@ 100f7ce0     interop.obj
 0002:00005cec       ??_C@_05PMIMCOJP@IfPos?$AA@ 100f7cec     interop.obj
 0002:00005cf4       ??_C@_09ELLCPLME@IfNotZero?$AA@ 100f7cf4     interop.obj
 0002:00005d00       ??_C@_06NBBMPCN@IsNull?$AA@ 100f7d00     interop.obj
 0002:00005d08       ??_C@_07HICACDPL@NotNull?$AA@ 100f7d08     interop.obj
 0002:00005d10       ??_C@_02GCDABJMF@Ne?$AA@   100f7d10     interop.obj
 0002:00005d14       ??_C@_02EAMLCBHB@Eq?$AA@   100f7d14     interop.obj
 0002:00005d18       ??_C@_02DODIABFK@Gt?$AA@   100f7d18     interop.obj
 0002:00005d1c       ??_C@_02GBLEMNKL@Le?$AA@   100f7d1c     interop.obj
 0002:00005d20       ??_C@_02DCGNOOLL@Lt?$AA@   100f7d20     interop.obj
 0002:00005d24       ??_C@_02GNOBCCEK@Ge?$AA@   100f7d24     interop.obj
 0002:00005d28       ??_C@_09KPPIGHDL@ElseNotEq?$AA@ 100f7d28     interop.obj
 0002:00005d34       ??_C@_0N@IDMANBEA@DecrJumpZero?$AA@ 100f7d34     interop.obj
 0002:00005d44       ??_C@_0L@POHPJECG@IncrVacuum?$AA@ 100f7d44     interop.obj
 0002:00005d50       ??_C@_05GOGANBLF@VNext?$AA@ 100f7d50     interop.obj
 0002:00005d58       ??_C@_04LLJCPOLH@Init?$AA@ 100f7d58     interop.obj
 0002:00005d60       ??_C@_06HCFIKKEA@Return?$AA@ 100f7d60     interop.obj
 0002:00005d68       ??_C@_0N@FPMLICGC@EndCoroutine?$AA@ 100f7d68     interop.obj
 0002:00005d78       ??_C@_0L@GIACEIKJ@HaltIfNull?$AA@ 100f7d78     interop.obj
 0002:00005d84       ??_C@_04NIFKAFLK@Halt?$AA@ 100f7d84     interop.obj
 0002:00005d8c       ??_C@_07EDADKEAH@Integer?$AA@ 100f7d8c     interop.obj
 0002:00005d94       ??_C@_05DPPJJBMK@Int64?$AA@ 100f7d94     interop.obj
 0002:00005d9c       ??_C@_06ENNEIMBA@String?$AA@ 100f7d9c     interop.obj
 0002:00005da4       ??_C@_04KHKKIIL@Null?$AA@  100f7da4     interop.obj
 0002:00005dac       ??_C@_08BAJALCJE@SoftNull?$AA@ 100f7dac     interop.obj
 0002:00005db8       ??_C@_04HOFOMOEI@Blob?$AA@ 100f7db8     interop.obj
 0002:00005dc0       ??_C@_08DMMJCAML@Variable?$AA@ 100f7dc0     interop.obj
 0002:00005dcc       ??_C@_04LCANPIEP@Move?$AA@ 100f7dcc     interop.obj
 0002:00005dd4       ??_C@_04OPMHGHMB@Copy?$AA@ 100f7dd4     interop.obj
 0002:00005ddc       ??_C@_05BCDNELCG@SCopy?$AA@ 100f7ddc     interop.obj
 0002:00005de4       ??_C@_07DBCPOOBM@IntCopy?$AA@ 100f7de4     interop.obj
 0002:00005dec       ??_C@_09BKHKEBMD@ResultRow?$AA@ 100f7dec     interop.obj
 0002:00005df8       ??_C@_07MCEFGNMJ@CollSeq?$AA@ 100f7df8     interop.obj
 0002:00005e00       ??_C@_06JHIJIKD@AddImm?$AA@ 100f7e00     interop.obj
 0002:00005e08       ??_C@_0N@KGPEGHPK@RealAffinity?$AA@ 100f7e08     interop.obj
 0002:00005e18       ??_C@_04LIPANAOG@Cast?$AA@ 100f7e18     interop.obj
 0002:00005e20       ??_C@_0M@LPEOJDB@Permutation?$AA@ 100f7e20     interop.obj
 0002:00005e2c       ??_C@_07MBOMJGGF@Compare?$AA@ 100f7e2c     interop.obj
 0002:00005e34       ??_C@_06PCNOCLJN@BitAnd?$AA@ 100f7e34     interop.obj
 0002:00005e3c       ??_C@_05BKBNAGEF@BitOr?$AA@ 100f7e3c     interop.obj
 0002:00005e44       ??_C@_09IIGOLNPP@ShiftLeft?$AA@ 100f7e44     interop.obj
 0002:00005e50       ??_C@_0L@DHHFIOFJ@ShiftRight?$AA@ 100f7e50     interop.obj
 0002:00005e5c       ??_C@_03LDFMNCOE@Add?$AA@  100f7e5c     interop.obj
 0002:00005e60       ??_C@_08DLEJPBEP@Subtract?$AA@ 100f7e60     interop.obj
 0002:00005e6c       ??_C@_08EOBDLMOI@Multiply?$AA@ 100f7e6c     interop.obj
 0002:00005e78       ??_C@_06JKMEHOIB@Divide?$AA@ 100f7e78     interop.obj
 0002:00005e80       ??_C@_09DPOHBCHJ@Remainder?$AA@ 100f7e80     interop.obj
 0002:00005e8c       ??_C@_06ODAFHOMO@Concat?$AA@ 100f7e8c     interop.obj
 0002:00005e94       ??_C@_06HIKDFLAB@IsTrue?$AA@ 100f7e94     interop.obj
 0002:00005e9c       ??_C@_06OBLNEDKN@BitNot?$AA@ 100f7e9c     interop.obj
 0002:00005ea4       ??_C@_06GEMKPBPA@Offset?$AA@ 100f7ea4     interop.obj
 0002:00005eac       ??_C@_06FFIACGFC@Column?$AA@ 100f7eac     interop.obj
 0002:00005eb4       ??_C@_07KGFHIBD@String8?$AA@ 100f7eb4     interop.obj
 0002:00005ebc       ??_C@_08MMCPABPC@Affinity?$AA@ 100f7ebc     interop.obj
 0002:00005ec8       ??_C@_0L@PGPMFKDB@MakeRecord?$AA@ 100f7ec8     interop.obj
 0002:00005ed4       ??_C@_05IJGIMMHE@Count?$AA@ 100f7ed4     interop.obj
 0002:00005edc       ??_C@_0L@LIFFPDNM@ReadCookie?$AA@ 100f7edc     interop.obj
 0002:00005ee8       ??_C@_09FEDANMPL@SetCookie?$AA@ 100f7ee8     interop.obj
 0002:00005ef4       ??_C@_09GCNMLHFL@ReopenIdx?$AA@ 100f7ef4     interop.obj
 0002:00005f00       ??_C@_08FJFCCPFB@OpenRead?$AA@ 100f7f00     interop.obj
 0002:00005f0c       ??_C@_09FPCAPNBB@OpenWrite?$AA@ 100f7f0c     interop.obj
 0002:00005f18       ??_C@_07JBEAGLBO@OpenDup?$AA@ 100f7f18     interop.obj
 0002:00005f20       ??_C@_0O@LLCBFLCA@OpenAutoindex?$AA@ 100f7f20     interop.obj
 0002:00005f30       ??_C@_0O@MHKNMBPC@OpenEphemeral?$AA@ 100f7f30     interop.obj
 0002:00005f40       ??_C@_0L@DIBNDBJM@SorterOpen?$AA@ 100f7f40     interop.obj
 0002:00005f4c       ??_C@_0N@DGILIAAH@SequenceTest?$AA@ 100f7f4c     interop.obj
 0002:00005f5c       ??_C@_0L@PKPPHKBP@OpenPseudo?$AA@ 100f7f5c     interop.obj
 0002:00005f68       ??_C@_05LGELBCGM@Close?$AA@ 100f7f68     interop.obj
 0002:00005f70       ??_C@_0M@KKDBEJBG@ColumnsUsed?$AA@ 100f7f70     interop.obj
 0002:00005f7c       ??_C@_08DOCONEG@Sequence?$AA@ 100f7f7c     interop.obj
 0002:00005f88       ??_C@_08FEDJPMPH@NewRowid?$AA@ 100f7f88     interop.obj
 0002:00005f94       ??_C@_06CPFCODOD@Insert?$AA@ 100f7f94     interop.obj
 0002:00005f9c       ??_C@_09LEJELDEO@InsertInt?$AA@ 100f7f9c     interop.obj
 0002:00005fa8       ??_C@_06JBKGCNBB@Delete?$AA@ 100f7fa8     interop.obj
 0002:00005fb0       ??_C@_0L@NDDNCBN@ResetCount?$AA@ 100f7fb0     interop.obj
 0002:00005fbc       ??_C@_0O@GIINMLJL@SorterCompare?$AA@ 100f7fbc     interop.obj
 0002:00005fcc       ??_C@_0L@DNBEOFPP@SorterData?$AA@ 100f7fcc     interop.obj
 0002:00005fd8       ??_C@_07OHPACBNN@RowData?$AA@ 100f7fd8     interop.obj
 0002:00005fe0       ??_C@_05KEGGNBBF@Rowid?$AA@ 100f7fe0     interop.obj
 0002:00005fe8       ??_C@_07HJJPPOKN@NullRow?$AA@ 100f7fe8     interop.obj
 0002:00005ff0       ??_C@_07MBDDIPMC@SeekEnd?$AA@ 100f7ff0     interop.obj
 0002:00005ff8       ??_C@_0N@PCKBEOAP@SorterInsert?$AA@ 100f7ff8     interop.obj
 0002:00006008       ??_C@_09ENCBCCAM@IdxInsert?$AA@ 100f8008     interop.obj
 0002:00006014       ??_C@_09PDNFOMPO@IdxDelete?$AA@ 100f8014     interop.obj
 0002:00006020       ??_C@_0N@HDHEJACK@DeferredSeek?$AA@ 100f8020     interop.obj
 0002:00006030       ??_C@_08KLKOBEJ@IdxRowid?$AA@ 100f8030     interop.obj
 0002:0000603c       ??_C@_07BDCAJABG@Destroy?$AA@ 100f803c     interop.obj
 0002:00006044       ??_C@_04PHKLBGME@Real?$AA@ 100f8044     interop.obj
 0002:0000604c       ??_C@_05MDNHABIA@Clear?$AA@ 100f804c     interop.obj
 0002:00006054       ??_C@_0M@IJLMHKBN@ResetSorter?$AA@ 100f8054     interop.obj
 0002:00006060       ??_C@_0M@DBLJACAP@CreateBtree?$AA@ 100f8060     interop.obj
 0002:0000606c       ??_C@_07EKAJKOOI@SqlExec?$AA@ 100f806c     interop.obj
 0002:00006074       ??_C@_0M@IPJMJJPI@ParseSchema?$AA@ 100f8074     interop.obj
 0002:00006080       ??_C@_0N@FEAPPFEN@LoadAnalysis?$AA@ 100f8080     interop.obj
 0002:00006090       ??_C@_09ELPHDPAO@DropTable?$AA@ 100f8090     interop.obj
 0002:0000609c       ??_C@_09KDDJLBNF@DropIndex?$AA@ 100f809c     interop.obj
 0002:000060a8       ??_C@_0M@JKNINGPB@DropTrigger?$AA@ 100f80a8     interop.obj
 0002:000060b4       ??_C@_0M@KCIGPGBI@IntegrityCk?$AA@ 100f80b4     interop.obj
 0002:000060c0       ??_C@_09KPGKMOML@RowSetAdd?$AA@ 100f80c0     interop.obj
 0002:000060cc       ??_C@_05LOJBNELM@Param?$AA@ 100f80cc     interop.obj
 0002:000060d4       ??_C@_09EBKOHGDP@FkCounter?$AA@ 100f80d4     interop.obj
 0002:000060e0       ??_C@_06LJFJMLCE@MemMax?$AA@ 100f80e0     interop.obj
 0002:000060e8       ??_C@_0M@MCOGCAAC@OffsetLimit?$AA@ 100f80e8     interop.obj
 0002:000060f4       ??_C@_08EFCHECBI@AggStep0?$AA@ 100f80f4     interop.obj
 0002:00006100       ??_C@_07NOMHFNIB@AggStep?$AA@ 100f8100     interop.obj
 0002:00006108       ??_C@_08FCKHNOBN@AggFinal?$AA@ 100f8108     interop.obj
 0002:00006114       ??_C@_06GDNCIOGJ@Expire?$AA@ 100f8114     interop.obj
 0002:0000611c       ??_C@_09FDKNKOOK@TableLock?$AA@ 100f811c     interop.obj
 0002:00006128       ??_C@_06CLFNNGGK@VBegin?$AA@ 100f8128     interop.obj
 0002:00006130       ??_C@_07KDKHCOMM@VCreate?$AA@ 100f8130     interop.obj
 0002:00006138       ??_C@_08JBEDGDCN@VDestroy?$AA@ 100f8138     interop.obj
 0002:00006144       ??_C@_05JABEJFFA@VOpen?$AA@ 100f8144     interop.obj
 0002:0000614c       ??_C@_07DOIHNMAE@VColumn?$AA@ 100f814c     interop.obj
 0002:00006154       ??_C@_07BIPKCCHL@VRename?$AA@ 100f8154     interop.obj
 0002:0000615c       ??_C@_09CNCANJNI@Pagecount?$AA@ 100f815c     interop.obj
 0002:00006168       ??_C@_08PCPIJAPH@MaxPgcnt?$AA@ 100f8168     interop.obj
 0002:00006174       ??_C@_09IOLDCHIA@PureFunc0?$AA@ 100f8174     interop.obj
 0002:00006180       ??_C@_09LAABOPGC@Function0?$AA@ 100f8180     interop.obj
 0002:0000618c       ??_C@_08CLBBEJDB@PureFunc?$AA@ 100f818c     interop.obj
 0002:00006198       ??_C@_08PHKOHANG@Function?$AA@ 100f8198     interop.obj
 0002:000061a4       ??_C@_05ILLBNNOP@Trace?$AA@ 100f81a4     interop.obj
 0002:000061ac       ??_C@_0L@CLJLGDBO@CursorHint?$AA@ 100f81ac     interop.obj
 0002:000061b8       ??_C@_04NBOPPMHE@Noop?$AA@ 100f81b8     interop.obj
 0002:000061c0       ??_C@_07EMCFMDDO@Explain?$AA@ 100f81c0     interop.obj
 0002:000061c8       ??_C@_09JBCNKCCE@Abortable?$AA@ 100f81c8     interop.obj
 0002:000061d4       ??_C@_0BA@FHFNEAED@AreFileApisANSI?$AA@ 100f81d4     interop.obj
 0002:000061e4       ??_C@_0L@CDADJILC@CharLowerW?$AA@ 100f81e4     interop.obj
 0002:000061f0       ??_C@_0L@JBOFCNPB@CharUpperW?$AA@ 100f81f0     interop.obj
 0002:000061fc       ??_C@_0M@JHJNLFGC@CloseHandle?$AA@ 100f81fc     interop.obj
 0002:00006208       ??_C@_0M@HDHGNCCA@CreateFileA?$AA@ 100f8208     interop.obj
 0002:00006214       ??_C@_0M@GPOOGHPH@CreateFileW?$AA@ 100f8214     interop.obj
 0002:00006220       ??_C@_0BD@GJENCGJD@CreateFileMappingA?$AA@ 100f8220     interop.obj
 0002:00006234       ??_C@_0BD@HFNFJDEE@CreateFileMappingW?$AA@ 100f8234     interop.obj
 0002:00006248       ??_C@_0N@MDNOAJMP@CreateMutexW?$AA@ 100f8248     interop.obj
 0002:00006258       ??_C@_0M@CBNKJACB@DeleteFileA?$AA@ 100f8258     interop.obj
 0002:00006264       ??_C@_0M@DNECCFPG@DeleteFileW?$AA@ 100f8264     interop.obj
 0002:00006270       ??_C@_0BI@EKFDIGHI@FileTimeToLocalFileTime?$AA@ 100f8270     interop.obj
 0002:00006288       ??_C@_0BF@KPJNHALE@FileTimeToSystemTime?$AA@ 100f8288     interop.obj
 0002:000062a0       ??_C@_0BB@MOGECGEP@FlushFileBuffers?$AA@ 100f82a0     interop.obj
 0002:000062b4       ??_C@_0P@FKPELJOF@FormatMessageA?$AA@ 100f82b4     interop.obj
 0002:000062c4       ??_C@_0P@EGGMAMDC@FormatMessageW?$AA@ 100f82c4     interop.obj
 0002:000062d4       ??_C@_0M@FACAOGOA@FreeLibrary?$AA@ 100f82d4     interop.obj
 0002:000062e0       ??_C@_0BE@BEODBHKD@GetCurrentProcessId?$AA@ 100f82e0     interop.obj
 0002:000062f4       ??_C@_0BC@CLHNLNI@GetDiskFreeSpaceA?$AA@ 100f82f4     interop.obj
 0002:00006308       ??_C@_0BC@BOCPGOAP@GetDiskFreeSpaceW?$AA@ 100f8308     interop.obj
 0002:0000631c       ??_C@_0BD@DJMMCMCB@GetFileAttributesA?$AA@ 100f831c     interop.obj
 0002:00006330       ??_C@_0BD@CFFEJJPG@GetFileAttributesW?$AA@ 100f8330     interop.obj
 0002:00006344       ??_C@_0BF@JODNCFOA@GetFileAttributesExW?$AA@ 100f8344     interop.obj
 0002:0000635c       ??_C@_0M@BAICHOOE@GetFileSize?$AA@ 100f835c     interop.obj
 0002:00006368       ??_C@_0BB@HALHENPC@GetFullPathNameA?$AA@ 100f8368     interop.obj
 0002:0000637c       ??_C@_0BB@GMCPPICF@GetFullPathNameW?$AA@ 100f837c     interop.obj
 0002:00006390       ??_C@_0N@HICKNDGL@GetLastError?$AA@ 100f8390     interop.obj
 0002:000063a0       ??_C@_0BA@EJGIKKLP@GetProcAddressA?$AA@ 100f83a0     interop.obj
 0002:000063b0       ??_C@_0O@HJFFHIPG@GetSystemInfo?$AA@ 100f83b0     interop.obj
 0002:000063c0       ??_C@_0O@IKEIBEBH@GetSystemTime?$AA@ 100f83c0     interop.obj
 0002:000063d0       ??_C@_0BI@ENMDHCMK@GetSystemTimeAsFileTime?$AA@ 100f83d0     interop.obj
 0002:000063e8       ??_C@_0N@CMNFBGGC@GetTempPathA?$AA@ 100f83e8     interop.obj
 0002:000063f8       ??_C@_0N@DAENKDLF@GetTempPathW?$AA@ 100f83f8     interop.obj
 0002:00006408       ??_C@_0N@JOMACIEF@GetTickCount?$AA@ 100f8408     interop.obj
 0002:00006418       ??_C@_0O@LLCLDPIK@GetVersionExA?$AA@ 100f8418     interop.obj
 0002:00006428       ??_C@_0O@KHLDIKFN@GetVersionExW?$AA@ 100f8428     interop.obj
 0002:00006438       ??_C@_09JDKINLHP@HeapAlloc?$AA@ 100f8438     interop.obj
 0002:00006444       ??_C@_0L@ICEGIJOB@HeapCreate?$AA@ 100f8444     interop.obj
 0002:00006450       ??_C@_0M@NELNNOPP@HeapDestroy?$AA@ 100f8450     interop.obj
 0002:0000645c       ??_C@_08ICEHPNNG@HeapFree?$AA@ 100f845c     interop.obj
 0002:00006468       ??_C@_0M@HHKAEGMB@HeapReAlloc?$AA@ 100f8468     interop.obj
 0002:00006474       ??_C@_08LKCFNBPH@HeapSize?$AA@ 100f8474     interop.obj
 0002:00006480       ??_C@_0N@BKFJNCJM@HeapValidate?$AA@ 100f8480     interop.obj
 0002:00006490       ??_C@_0M@EIEMDCNL@HeapCompact?$AA@ 100f8490     interop.obj
 0002:0000649c       ??_C@_0N@LOMLCOFC@LoadLibraryA?$AA@ 100f849c     interop.obj
 0002:000064ac       ??_C@_0N@KCFDJLIF@LoadLibraryW?$AA@ 100f84ac     interop.obj
 0002:000064bc       ??_C@_09FHKJECCN@LocalFree?$AA@ 100f84bc     interop.obj
 0002:000064c8       ??_C@_08DICMLIHC@LockFile?$AA@ 100f84c8     interop.obj
 0002:000064d4       ??_C@_0L@EJAEKEDD@LockFileEx?$AA@ 100f84d4     interop.obj
 0002:000064e0       ??_C@_0O@IGIELGBD@MapViewOfFile?$AA@ 100f84e0     interop.obj
 0002:000064f0       ??_C@_0BE@HCIKGJGE@MultiByteToWideChar?$AA@ 100f84f0     interop.obj
 0002:00006504       ??_C@_0BI@LFICGGHO@QueryPerformanceCounter?$AA@ 100f8504     interop.obj
 0002:0000651c       ??_C@_08KLCHJOKF@ReadFile?$AA@ 100f851c     interop.obj
 0002:00006528       ??_C@_0N@KGGGLBCJ@SetEndOfFile?$AA@ 100f8528     interop.obj
 0002:00006538       ??_C@_0P@HKHKGCLN@SetFilePointer?$AA@ 100f8538     interop.obj
 0002:00006548       ??_C@_05PFDOMJEF@Sleep?$AA@ 100f8548     interop.obj
 0002:00006550       ??_C@_0BF@HBHGIPOG@SystemTimeToFileTime?$AA@ 100f8550     interop.obj
 0002:00006568       ??_C@_0L@PBJENKDG@UnlockFile?$AA@ 100f8568     interop.obj
 0002:00006574       ??_C@_0N@HOKNOHPO@UnlockFileEx?$AA@ 100f8574     interop.obj
 0002:00006584       ??_C@_0BA@GLKNLELN@UnmapViewOfFile?$AA@ 100f8584     interop.obj
 0002:00006594       ??_C@_0BE@LJADKLBD@WideCharToMultiByte?$AA@ 100f8594     interop.obj
 0002:000065a8       ??_C@_09NOIIIIGM@WriteFile?$AA@ 100f85a8     interop.obj
 0002:000065b4       ??_C@_0P@DLHPPCNH@CreateEventExW?$AA@ 100f85b4     interop.obj
 0002:000065c4       ??_C@_0BE@CLKLPNNG@WaitForSingleObject?$AA@ 100f85c4     interop.obj
 0002:000065d8       ??_C@_0BG@IFNJHLEG@WaitForSingleObjectEx?$AA@ 100f85d8     interop.obj
 0002:000065f0       ??_C@_0BB@GDGABGCO@SetFilePointerEx?$AA@ 100f85f0     interop.obj
 0002:00006604       ??_C@_0BN@NEEHBBPO@GetFileInformationByHandleEx?$AA@ 100f8604     interop.obj
 0002:00006624       ??_C@_0BF@ECJCKDGL@MapViewOfFileFromApp?$AA@ 100f8624     interop.obj
 0002:0000663c       ??_C@_0M@HHGEPIBF@CreateFile2?$AA@ 100f863c     interop.obj
 0002:00006648       ??_C@_0BE@GMOAPDKA@LoadPackagedLibrary?$AA@ 100f8648     interop.obj
 0002:0000665c       ??_C@_0P@CDHHOHKP@GetTickCount64?$AA@ 100f865c     interop.obj
 0002:0000666c       ??_C@_0BE@HLKFLAJF@GetNativeSystemInfo?$AA@ 100f866c     interop.obj
 0002:00006680       ??_C@_0BD@ILGKEMFC@OutputDebugStringA?$AA@ 100f8680     interop.obj
 0002:00006694       ??_C@_0BD@JHPCPJIF@OutputDebugStringW?$AA@ 100f8694     interop.obj
 0002:000066a8       ??_C@_0P@BOLOPLNF@GetProcessHeap?$AA@ 100f86a8     interop.obj
 0002:000066b8       ??_C@_0BJ@EKFPCGJA@CreateFileMappingFromApp?$AA@ 100f86b8     interop.obj
 0002:000066d4       ??_C@_0BL@FOMKKFPM@InterlockedCompareExchange?$AA@ 100f86d4     interop.obj
 0002:000066f0       ??_C@_0L@IDKDBMAM@UuidCreate?$AA@ 100f86f0     interop.obj
 0002:000066fc       ??_C@_0BF@DJFPALMK@UuidCreateSequential?$AA@ 100f86fc     interop.obj
 0002:00006714       ??_C@_0BA@IHGACFIJ@FlushViewOfFile?$AA@ 100f8714     interop.obj
 0002:00006724       ??_C@_0CK@NGPIDCAA@failed?5to?5HeapCompact?5?$CIno?5space?$CJ@ 100f8724     interop.obj
 0002:00006750       ??_C@_0CF@BOCDEBEA@failed?5to?5HeapCompact?5?$CI?$CFlu?$CJ?0?5hea@ 100f8750     interop.obj
 0002:00006778       ??_C@_0CM@NNNFEPLG@failed?5to?5HeapAlloc?5?$CFu?5bytes?5?$CI?$CFl@ 100f8778     interop.obj
 0002:000067a4       ??_C@_0CL@JKLAHGLA@failed?5to?5HeapFree?5block?5?$CFp?5?$CI?$CFlu@ 100f87a4     interop.obj
 0002:000067d0       ??_C@_0CF@LIJODODC@failed?5to?5?$CFs?5?$CFu?5bytes?5?$CI?$CFlu?$CJ?0?5hea@ 100f87d0     interop.obj
 0002:000067f8       ??_C@_0CL@HCBMEFAG@failed?5to?5HeapSize?5block?5?$CFp?5?$CI?$CFlu@ 100f87f8     interop.obj
 0002:00006828       ??_C@_0EA@IKKAKFOI@failed?5to?5HeapCreate?5?$CI?$CFlu?$CJ?0?5flag@ 100f8828     interop.obj
 0002:00006868       ??_C@_0CF@JHBMKENA@failed?5to?5HeapDestroy?5?$CI?$CFlu?$CJ?0?5hea@ 100f8868     interop.obj
 0002:00006890       ??_C@_02DKCKIIND@?$CFs?$AA@ 100f8890     interop.obj
 0002:00006894       ??_C@_0BE@MJECGBL@OsError?50x?$CFlx?5?$CI?$CFlu?$CJ?$AA@ 100f8894     interop.obj
 0002:000068a8       ??_C@_0BP@JDJJJHMH@os_win?4c?3?$CFd?3?5?$CI?$CFlu?$CJ?5?$CFs?$CI?$CFs?$CJ?5?9?5?$CFs?$AA@ 100f88a8     interop.obj
 0002:000068c8       ??_C@_0DC@FIDAINO@delayed?5?$CFdms?5for?5lock?1sharing?5co@ 100f88c8     interop.obj
 0002:000068fc       ??_C@_0M@JAPMDKOE@winSeekFile?$AA@ 100f88fc     interop.obj
 0002:00006908       ??_C@_08GBGPIFFF@winClose?$AA@ 100f8908     interop.obj
 0002:00006914       ??_C@_07BGDHELCN@winRead?$AA@ 100f8914     interop.obj
 0002:0000691c       ??_C@_09GFOHNLGD@winWrite1?$AA@ 100f891c     interop.obj
 0002:00006928       ??_C@_09EOMKIIKA@winWrite2?$AA@ 100f8928     interop.obj
 0002:00006934       ??_C@_0N@JHOIFHJA@winTruncate1?$AA@ 100f8934     interop.obj
 0002:00006944       ??_C@_0N@LMMFAEFD@winTruncate2?$AA@ 100f8944     interop.obj
 0002:00006954       ??_C@_08LAPEMDHJ@winSync1?$AA@ 100f8954     interop.obj
 0002:00006960       ??_C@_08JLNJJALK@winSync2?$AA@ 100f8960     interop.obj
 0002:0000696c       ??_C@_0M@DODNMLAG@winFileSize?$AA@ 100f896c     interop.obj
 0002:00006978       ??_C@_0BC@CHABEBCJ@winUnlockReadLock?$AA@ 100f8978     interop.obj
 0002:0000698c       ??_C@_09INENJOCI@winUnlock?$AA@ 100f898c     interop.obj
 0002:00006998       ??_C@_0BE@BHPBKPGB@winLockSharedMemory?$AA@ 100f8998     interop.obj
 0002:000069ac       ??_C@_06KEOMCCGA@?$CFs?9shm?$AA@ 100f89ac     interop.obj
 0002:000069b4       ??_C@_0N@KAFKNICG@readonly_shm?$AA@ 100f89b4     interop.obj
 0002:000069c4       ??_C@_0L@NHPDAEHO@winOpenShm?$AA@ 100f89c4     interop.obj
 0002:000069d0       ??_C@_0L@JMPNPFLA@winShmMap1?$AA@ 100f89d0     interop.obj
 0002:000069dc       ??_C@_0L@LHNAKGHD@winShmMap2?$AA@ 100f89dc     interop.obj
 0002:000069e8       ??_C@_0L@KOMLJHDC@winShmMap3?$AA@ 100f89e8     interop.obj
 0002:000069f4       ??_C@_0O@MBBPBMPM@winUnmapfile1?$AA@ 100f89f4     interop.obj
 0002:00006a04       ??_C@_0O@OKDCEPDP@winUnmapfile2?$AA@ 100f8a04     interop.obj
 0002:00006a14       ??_C@_0M@FMIFOGHC@winMapfile1?$AA@ 100f8a14     interop.obj
 0002:00006a20       ??_C@_0M@HHKILFLB@winMapfile2?$AA@ 100f8a20     interop.obj
 0002:00006a2c       ??_C@_07NBNPOOME@etilqs_?$AA@ 100f8a2c     interop.obj
 0002:00006a34       ??_C@_0BA@KKAJEMJB@winGetTempname1?$AA@ 100f8a34     interop.obj
 0002:00006a44       ??_C@_0BA@IBCEBPFC@winGetTempname2?$AA@ 100f8a44     interop.obj
 0002:00006a54       ??_C@_0BA@NHHOLINE@winGetTempname4?$AA@ 100f8a54     interop.obj
 0002:00006a64       ??_C@_0BA@MOGFIJJF@winGetTempname5?$AA@ 100f8a64     interop.obj
 0002:00006a74       ??_C@_07BEGGPPOF@winOpen?$AA@ 100f8a74     interop.obj
 0002:00006a7c       ??_C@_04JKHAIEHD@psow?$AA@ 100f8a7c     interop.obj
 0002:00006a84       ??_C@_09MOHEIBIO@winDelete?$AA@ 100f8a84     interop.obj
 0002:00006a90       ??_C@_09NBJCHJLH@winAccess?$AA@ 100f8a90     interop.obj
 0002:00006a9c       ??_C@_06GIIGBPHC@?$CFs?$CFc?$CFs?$AA@ 100f8a9c     interop.obj
 0002:00006aa4       ??_C@_0BB@OFJJKLCE@winFullPathname1?$AA@ 100f8aa4     interop.obj
 0002:00006ab8       ??_C@_0BB@MOLEPIOH@winFullPathname2?$AA@ 100f8ab8     interop.obj
 0002:00006acc       ??_C@_05NMJMPJJB@win32?$AA@ 100f8acc     interop.obj
 0002:00006ad4       ??_C@_0P@DDINIIBH@win32?9longpath?$AA@ 100f8ad4     interop.obj
 0002:00006ae4       ??_C@_0L@GKDKNNFD@win32?9none?$AA@ 100f8ae4     interop.obj
 0002:00006af0       ??_C@_0BE@EDBNHJPM@win32?9longpath?9none?$AA@ 100f8af0     interop.obj
 0002:00006b04       ??_C@_0BL@FJPGAHP@recovered?5?$CFd?5pages?5from?5?$CFs?$AA@ 100f8b04     interop.obj
 0002:00006b20       ??_C@_09HKLPJOIM@?9journal?$AA?$AA@ 100f8b20     interop.obj
 0002:00006b2c       ??_C@_05HMKKNGEJ@?9wal?$AA?$AA@ 100f8b2c     interop.obj
 0002:00006b34       ??_C@_06LDKHBALK@nolock?$AA@ 100f8b34     interop.obj
 0002:00006b3c       ??_C@_09JFJMBHCC@immutable?$AA@ 100f8b3c     interop.obj
 0002:00006b48       ??_C@_0CF@EDMDCOFB@recovered?5?$CFd?5frames?5from?5WAL?5fil@ 100f8b48     interop.obj
 0002:00006b70       ??_C@_0BK@NCCCKLLJ@cannot?5limit?5WAL?5size?3?5?$CFs?$AA@ 100f8b70     interop.obj
 0002:00006b8c       ??_C@_08CADOGOJM@?3memory?3?$AA@ 100f8b8c     interop.obj
 0002:00006b98       ??_C@_01EEMJAFIK@?6?$AA@   100f8b98     interop.obj
 0002:00006b9c       ??_C@_0BH@LLKFEBHC@invalid?5page?5number?5?$CFd?$AA@ 100f8b9c     interop.obj
 0002:00006bb4       ??_C@_0BJ@HHKCLCDH@2nd?5reference?5to?5page?5?$CFd?$AA@ 100f8bb4     interop.obj
 0002:00006bd0       ??_C@_0BN@NJCBBLIO@Failed?5to?5read?5ptrmap?5key?$DN?$CFd?$AA@ 100f8bd0     interop.obj
 0002:00006bf0       ??_C@_0DG@EAEHHDPC@Bad?5ptr?5map?5entry?5key?$DN?$CFd?5expecte@ 100f8bf0     interop.obj
 0002:00006c28       ??_C@_0DJ@PBFEOOMP@?$CFd?5of?5?$CFd?5pages?5missing?5from?5over@ 100f8c28     interop.obj
 0002:00006c64       ??_C@_0BG@GMIBDIEE@failed?5to?5get?5page?5?$CFd?$AA@ 100f8c64     interop.obj
 0002:00006c7c       ??_C@_0CH@LNHECGJJ@freelist?5leaf?5count?5too?5big?5on?5p@ 100f8c7c     interop.obj
 0002:00006ca4       ??_C@_0CH@EHDDBGPL@free?9page?5count?5in?5header?5is?5too@ 100f8ca4     interop.obj
 0002:00006ccc       ??_C@_09OLGIMPDE@Page?5?$CFd?3?5?$AA@ 100f8ccc     interop.obj
 0002:00006cd8       ??_C@_0CG@ILLDAEJM@unable?5to?5get?5the?5page?4?5error?5co@ 100f8cd8     interop.obj
 0002:00006d00       ??_C@_0CG@FFKEALPN@btreeInitPage?$CI?$CJ?5returns?5error?5co@ 100f8d00     interop.obj
 0002:00006d28       ??_C@_0BK@DEBKKJM@On?5tree?5page?5?$CFd?5cell?5?$CFd?3?5?$AA@ 100f8d28     interop.obj
 0002:00006d44       ??_C@_0BM@FMPLCKPB@On?5page?5?$CFd?5at?5right?5child?3?5?$AA@ 100f8d44     interop.obj
 0002:00006d60       ??_C@_0BO@GNBLAJEP@Offset?5?$CFd?5out?5of?5range?5?$CFd?4?4?$CFd?$AA@ 100f8d60     interop.obj
 0002:00006d80       ??_C@_0BI@EFAGLMLE@Extends?5off?5end?5of?5page?$AA@ 100f8d80     interop.obj
 0002:00006d98       ??_C@_0BI@CKMEGBED@Rowid?5?$CFlld?5out?5of?5order?$AA@ 100f8d98     interop.obj
 0002:00006db0       ??_C@_0BJ@FLOCKNJL@Child?5page?5depth?5differs?$AA@ 100f8db0     interop.obj
 0002:00006dcc       ??_C@_0CF@FDPBJINM@Multiple?5uses?5for?5byte?5?$CFu?5of?5pag@ 100f8dcc     interop.obj
 0002:00006df4       ??_C@_0DE@NONOJPEC@Fragmentation?5of?5?$CFd?5bytes?5report@ 100f8df4     interop.obj
 0002:00006e28       ??_C@_0BA@EAICBBKE@Main?5freelist?3?5?$AA@ 100f8e28     interop.obj
 0002:00006e38       ??_C@_0BG@NJBAMKDO@Page?5?$CFd?5is?5never?5used?$AA@ 100f8e38     interop.obj
 0002:00006e50       ??_C@_0CC@IBCKHFBM@Pointer?5map?5page?5?$CFd?5is?5reference@ 100f8e50     interop.obj
 0002:00006e74       ??_C@_0BE@OKPJBBEB@unknown?5database?5?$CFs?$AA@ 100f8e74     interop.obj
 0002:00006e88       ??_C@_0BP@CNIPEHFB@destination?5database?5is?5in?5use?$AA@ 100f8e88     interop.obj
 0002:00006ea8       ??_C@_0CI@IHDDPHMP@source?5and?5destination?5must?5be?5d@ 100f8ea8     interop.obj
 0002:00006ed0       ??_C@_06NJMDEJD@?$CF?$CB?415g?$AA@ 100f8ed0     interop.obj
 0002:00006ed8       ??_C@_01JOAMLHOP@?9?$AA@   100f8ed8     interop.obj
 0002:00006edc       ??_C@_04HDOCAJNK@?$CFs?$CFs?$AA@ 100f8edc     interop.obj
 0002:00006ee4       ??_C@_0O@HEEEJLEO@sqlite_record?$AA@ 100f8ee4     interop.obj
 0002:00006ef4       ??_C@_04INKOODMH@k?$CI?$CFd?$AA@ 100f8ef4     interop.obj
 0002:00006efc       ??_C@_06FJHKNKMG@BINARY?$AA@ 100f8efc     interop.obj
 0002:00006f04       ??_C@_01HMGJMAIH@B?$AA@    100f8f04     interop.obj
 0002:00006f08       ??_C@_05HEGMJKCJ@?0?$CFs?$CFs?$AA@ 100f8f08     interop.obj
 0002:00006f10       ??_C@_01PKGAHCOL@?$CJ?$AA@ 100f8f10     interop.obj
 0002:00006f14       ??_C@_07CJFGHBKN@?$CI?$CF?420s?$CJ?$AA@ 100f8f14     interop.obj
 0002:00006f1c       ??_C@_06BPGFIOAL@?$CFs?$CI?$CFd?$CJ?$AA@ 100f8f1c     interop.obj
 0002:00006f24       ??_C@_02DPKJAMEF@?$CFd?$AA@ 100f8f24     interop.obj
 0002:00006f28       ??_C@_06OLGPAEJH@?$CIblob?$CJ?$AA@ 100f8f28     interop.obj
 0002:00006f30       ??_C@_07EGLAFBFD@vtab?3?$CFp?$AA@ 100f8f30     interop.obj
 0002:00006f38       ??_C@_03LEIBKMN@?0?$CFd?$AA@ 100f8f38     interop.obj
 0002:00006f3c       ??_C@_01LBDDMOBJ@?$FN?$AA@ 100f8f3c     interop.obj
 0002:00006f40       ??_C@_07MHLKLKDM@program?$AA@ 100f8f40     interop.obj
 0002:00006f48       ??_C@_04LABILCJL@?$CF?42x?$AA@ 100f8f48     interop.obj
 0002:00006f50       ??_C@_0BA@FKMAFLJK@?$CFs?9mjXXXXXX9XXz?$AA@ 100f8f50     interop.obj
 0002:00006f60       ??_C@_0O@IDFCBAPA@MJ?5delete?3?5?$CFs?$AA@ 100f8f60     interop.obj
 0002:00006f70       ??_C@_0P@EKBGDFBG@MJ?5collide?3?5?$CFs?$AA@ 100f8f70     interop.obj
 0002:00006f80       ??_C@_0N@FLHACMNC@?9mj?$CF06X9?$CF02X?$AA@ 100f8f80     interop.obj
 0002:00006f90       ??_C@_0BO@PMDGIFIC@FOREIGN?5KEY?5constraint?5failed?$AA@ 100f8f90     interop.obj
 0002:00006fb0       ??_C@_0ED@KOIKBLFM@non?9deterministic?5function?5in?5in@ 100f8fb0     interop.obj
 0002:00006ff4       ??_C@_0CN@JCKHFJMJ@API?5called?5with?5finalized?5prepar@ 100f8ff4     interop.obj
 0002:00007024       ??_C@_0CI@DGDEMKDJ@API?5called?5with?5NULL?5prepared?5st@ 100f9024     interop.obj
 0002:0000704c       ??_C@_0BH@BEFJIDGM@string?5or?5blob?5too?5big?$AA@ 100f904c     interop.obj
 0002:00007064       ??_C@_0CI@NKIMDBDG@bind?5on?5a?5busy?5prepared?5statemen@ 100f9064     interop.obj
 0002:0000708c       ??_C@_03CJPCKGBB@?9?9?5?$AA@ 100f908c     interop.obj
 0002:00007090       ??_C@_06BGANNCL@?8?$CF?4?$CKq?8?$AA@ 100f9090     interop.obj
 0002:00007098       ??_C@_0N@OGKFEFFN@zeroblob?$CI?$CFd?$CJ?$AA@ 100f9098     interop.obj
 0002:000070a8       ??_C@_02IAJJKNGA@x?8?$AA@  100f90a8     interop.obj
 0002:000070ac       ??_C@_04NOJCDH@?$CF02x?$AA@ 100f90ac     interop.obj
 0002:000070b4       ??_C@_01GEODFPGF@?8?$AA@   100f90b4     interop.obj
 0002:000070b8       ??_C@_08BBHBEGAC@NOT?5NULL?$AA@ 100f90b8     interop.obj
 0002:000070c4       ??_C@_06OHAHIIGJ@UNIQUE?$AA@ 100f90c4     interop.obj
 0002:000070cc       ??_C@_05GCOJDIEO@CHECK?$AA@ 100f90cc     interop.obj
 0002:000070d4       ??_C@_0M@CFPAHGLH@FOREIGN?5KEY?$AA@ 100f90d4     interop.obj
 0002:000070e0       ??_C@_0BF@PPLEKELH@?$CFs?5constraint?5failed?$AA@ 100f90e0     interop.obj
 0002:000070f8       ??_C@_06CEJILJDK@?$CFz?3?5?$CFs?$AA@ 100f90f8     interop.obj
 0002:00007100       ??_C@_0BI@CKCEIKAL@abort?5at?5?$CFd?5in?5?$FL?$CFs?$FN?3?5?$CFs?$AA@ 100f9100     interop.obj
 0002:00007118       ??_C@_0DD@EHMCJFDN@cannot?5open?5savepoint?5?9?5SQL?5stat@ 100f9118     interop.obj
 0002:0000714c       ??_C@_0BG@NADCOEGF@no?5such?5savepoint?3?5?$CFs?$AA@ 100f914c     interop.obj
 0002:00007164       ??_C@_0DG@JCGPCDM@cannot?5release?5savepoint?5?9?5SQL?5s@ 100f9164     interop.obj
 0002:0000719c       ??_C@_0DH@EPKPHENF@cannot?5commit?5transaction?5?9?5SQL?5@ 100f919c     interop.obj
 0002:000071d4       ??_C@_0DA@CKKHGBEC@cannot?5start?5a?5transaction?5withi@ 100f91d4     interop.obj
 0002:00007204       ??_C@_0CL@DIEDEFLK@cannot?5rollback?5?9?5no?5transaction@ 100f9204     interop.obj
 0002:00007230       ??_C@_0CJ@LALCBGBP@cannot?5commit?5?9?5no?5transaction?5i@ 100f9230     interop.obj
 0002:0000725c       ??_C@_0BM@FKBOKANJ@database?5schema?5has?5changed?$AA@ 100f925c     interop.obj
 0002:00007278       ??_C@_0O@JMEKHCEB@sqlite_master?$AA@ 100f9278     interop.obj
 0002:00007288       ??_C@_0EA@GFNDAJBJ@SELECT?5name?0?5rootpage?0?5sql?5FROM?5@ 100f9288     interop.obj
 0002:000072c8       ??_C@_0CF@DBNDEPJP@too?5many?5levels?5of?5trigger?5recur@ 100f92c8     interop.obj
 0002:000072f0       ??_C@_04MHJLCKAK@into?$AA@ 100f92f0     interop.obj
 0002:000072f8       ??_C@_06JIMOCJPC@out?5of?$AA@ 100f92f8     interop.obj
 0002:00007300       ??_C@_0DE@KIPNAMAA@cannot?5change?5?$CFs?5wal?5mode?5from?5w@ 100f9300     interop.obj
 0002:00007334       ??_C@_0BN@JOIFECGM@database?5table?5is?5locked?3?5?$CFs?$AA@ 100f9334     interop.obj
 0002:00007354       ??_C@_05FGPIKCAB@?9?9?5?$CFs?$AA@ 100f9354     interop.obj
 0002:0000735c       ??_C@_0CA@JGFGBIFL@statement?5aborts?5at?5?$CFd?3?5?$FL?$CFs?$FN?5?$CFs?$AA@ 100f935c     interop.obj
 0002:0000737c       ??_C@_0O@BNNCBLEN@out?5of?5memory?$AA@ 100f937c     interop.obj
 0002:0000738c       ??_C@_04MLLLIHIP@null?$AA@ 100f938c     interop.obj
 0002:00007394       ??_C@_04DGGKDJMA@real?$AA@ 100f9394     interop.obj
 0002:0000739c       ??_C@_07LKHFMGFB@integer?$AA@ 100f939c     interop.obj
 0002:000073a4       ??_C@_0BN@OFFACDFM@cannot?5open?5value?5of?5type?5?$CFs?$AA@ 100f93a4     interop.obj
 0002:000073c4       ??_C@_0BE@PGLAJEIK@no?5such?5rowid?3?5?$CFlld?$AA@ 100f93c4     interop.obj
 0002:000073d8       ??_C@_0BO@BCBGJJEM@cannot?5open?5virtual?5table?3?5?$CFs?$AA@ 100f93d8     interop.obj
 0002:000073f8       ??_C@_0CE@OCACOFEC@cannot?5open?5table?5without?5rowid?3@ 100f93f8     interop.obj
 0002:0000741c       ??_C@_0BF@LEHNPEDD@cannot?5open?5view?3?5?$CFs?$AA@ 100f941c     interop.obj
 0002:00007434       ??_C@_0BF@IFOHJMAC@no?5such?5column?3?5?$CC?$CFs?$CC?$AA@ 100f9434     interop.obj
 0002:0000744c       ??_C@_0M@EKGNDAGL@foreign?5key?$AA@ 100f944c     interop.obj
 0002:00007458       ??_C@_07KNEBDGNE@indexed?$AA@ 100f9458     interop.obj
 0002:00007460       ??_C@_0CC@PCDMPIAA@cannot?5open?5?$CFs?5column?5for?5writin@ 100f9460     interop.obj
 0002:00007484       ??_C@_03CLCAEGCJ@new?$AA@  100f9484     interop.obj
 0002:00007488       ??_C@_03PNKCFLFB@old?$AA@  100f9488     interop.obj
 0002:0000748c       ??_C@_08HPCEJEEF@excluded?$AA@ 100f948c     interop.obj
 0002:00007498       ??_C@_0BP@LIGNHLP@misuse?5of?5aliased?5aggregate?5?$CFs?$AA@ 100f9498     interop.obj
 0002:000074b8       ??_C@_0BC@ECPMLDEB@row?5value?5misused?$AA@ 100f94b8     interop.obj
 0002:000074cc       ??_C@_0P@OOEELNMH@no?5such?5column?$AA@ 100f94cc     interop.obj
 0002:000074dc       ??_C@_0BG@CPPEOILG@ambiguous?5column?5name?$AA@ 100f94dc     interop.obj
 0002:000074f4       ??_C@_0N@GOMHGJCA@?$CFs?3?5?$CFs?4?$CFs?4?$CFs?$AA@ 100f94f4     interop.obj
 0002:00007504       ??_C@_09DEPFKOIN@?$CFs?3?5?$CFs?4?$CFs?$AA@ 100f9504     interop.obj
 0002:00007510       ??_C@_06DJHOIPC@?$CFs?3?5?$CFs?$AA@ 100f9510     interop.obj
 0002:00007518       ??_C@_0BM@FHGIFHJI@partial?5index?5WHERE?5clauses?$AA@ 100f9518     interop.obj
 0002:00007534       ??_C@_0BC@OGGBHAGM@index?5expressions?$AA@ 100f9534     interop.obj
 0002:00007548       ??_C@_0BC@FDHDOACM@CHECK?5constraints?$AA@ 100f9548     interop.obj
 0002:0000755c       ??_C@_0BE@FFEBFOFH@?$CFs?5prohibited?5in?5?$CFs?$AA@ 100f955c     interop.obj
 0002:00007570       ??_C@_0BB@MKMPFLCK@the?5?$CC?4?$CC?5operator?$AA@ 100f9570     interop.obj
 0002:00007588       ??_C@_0EH@BOEFIEGB@second?5argument?5to?5likelihood?$CI?$CJ?5@ 100f9588     interop.obj
 0002:000075d0       ??_C@_0CD@CLOCOINF@not?5authorized?5to?5use?5function?3?5@ 100f95d0     interop.obj
 0002:000075f4       ??_C@_0BM@KJBKFFPA@non?9deterministic?5functions?$AA@ 100f95f4     interop.obj
 0002:00007610       ??_C@_0CE@JOMBDPK@misuse?5of?5aggregate?5function?5?$CF?4?$CK@ 100f9610     interop.obj
 0002:00007634       ??_C@_0BH@DEPAIHDK@no?5such?5function?3?5?$CF?4?$CKs?$AA@ 100f9634     interop.obj
 0002:0000764c       ??_C@_0CN@GBOJIJCC@wrong?5number?5of?5arguments?5to?5fun@ 100f964c     interop.obj
 0002:0000767c       ??_C@_0L@JIOMEFKM@subqueries?$AA@ 100f967c     interop.obj
 0002:00007688       ??_C@_0L@HHPOFMCB@parameters?$AA@ 100f9688     interop.obj
 0002:00007694       ??_C@_0DI@IJOLPLNO@?$CFr?5?$CFs?5BY?5term?5out?5of?5range?5?9?5sho@ 100f9694     interop.obj
 0002:000076cc       ??_C@_0CC@GEJJPDIE@too?5many?5terms?5in?5ORDER?5BY?5claus@ 100f96cc     interop.obj
 0002:000076f0       ??_C@_05BIEKMFNJ@ORDER?$AA@ 100f96f0     interop.obj
 0002:000076f8       ??_C@_0DN@KHANHMIL@?$CFr?5ORDER?5BY?5term?5does?5not?5match?5@ 100f96f8     interop.obj
 0002:00007738       ??_C@_0BP@OLNMGBH@too?5many?5terms?5in?5?$CFs?5BY?5clause?$AA@ 100f9738     interop.obj
 0002:00007758       ??_C@_0CM@CFGBPLAG@a?5GROUP?5BY?5clause?5is?5required?5be@ 100f9758     interop.obj
 0002:00007784       ??_C@_05NAIABEH@GROUP?$AA@ 100f9784     interop.obj
 0002:0000778c       ??_C@_0DL@LDIIFJFH@aggregate?5functions?5are?5not?5allo@ 100f978c     interop.obj
 0002:000077c8       ??_C@_0DA@HPOBBFJP@Expression?5tree?5is?5too?5large?5?$CIma@ 100f97c8     interop.obj
 0002:000077f8       ??_C@_0CL@MAPAMFMM@variable?5number?5must?5be?5between?5@ 100f97f8     interop.obj
 0002:00007824       ??_C@_0BH@KLMBLGJH@too?5many?5SQL?5variables?$AA@ 100f9824     interop.obj
 0002:0000783c       ??_C@_0BO@INDAFOLJ@?$CFd?5columns?5assigned?5?$CFd?5values?$AA@ 100f983c     interop.obj
 0002:0000785c       ??_C@_0BH@HJGFDJPB@too?5many?5columns?5in?5?$CFs?$AA@ 100f985c     interop.obj
 0002:00007874       ??_C@_04LOAJBDKD@true?$AA@ 100f9874     interop.obj
 0002:0000787c       ??_C@_05LAPONLG@false?$AA@ 100f987c     interop.obj
 0002:00007884       ??_C@_07HKAAOBDA@_ROWID_?$AA@ 100f9884     interop.obj
 0002:0000788c       ??_C@_05GIFMDDGN@ROWID?$AA@ 100f988c     interop.obj
 0002:00007894       ??_C@_03PGJCFEMG@OID?$AA@  100f9894     interop.obj
 0002:00007898       ??_C@_0BP@PMIGPOKJ@USING?5INDEX?5?$CFs?5FOR?5IN?9OPERATOR?$AA@ 100f9898     interop.obj
 0002:000078b8       ??_C@_0CM@BAEGMMEI@sub?9select?5returns?5?$CFd?5columns?5?9?5@ 100f98b8     interop.obj
 0002:000078e4       ??_C@_0M@MCLOEEML@CORRELATED?5?$AA@ 100f98e4     interop.obj
 0002:000078f0       ??_C@_0BA@OOKPLBGF@?$CFsLIST?5SUBQUERY?$AA@ 100f98f0     interop.obj
 0002:00007900       ??_C@_0BC@JIOHIBJ@?$CFsSCALAR?5SUBQUERY?$AA@ 100f9900     interop.obj
 0002:00007914       ??_C@_02MDDDDAID@0x?$AA@   100f9914     interop.obj
 0002:00007918       ??_C@_0BK@FAKNEGAL@hex?5literal?5too?5big?3?5?$CFs?$CFs?$AA@ 100f9918     interop.obj
 0002:00007934       ??_C@_0BK@BMEAFNCN@misuse?5of?5aggregate?3?5?$CFs?$CI?$CJ?$AA@ 100f9934     interop.obj
 0002:00007950       ??_C@_0BH@DOLDNOOG@unknown?5function?3?5?$CFs?$CI?$CJ?$AA@ 100f9950     interop.obj
 0002:00007968       ??_C@_0DC@JGGJAPOJ@RAISE?$CI?$CJ?5may?5only?5be?5used?5within?5@ 100f9968     interop.obj
 0002:0000799c       ??_C@_0L@HDDJIJMP@?$CF?4?$CKs?$CC?$CFw?$CC?$CFs?$AA@ 100f999c     interop.obj
 0002:000079a8       ??_C@_0L@GGMNOGLF@?$CFs?$CF?4?$CKs?$CC?$CFw?$CC?$AA@ 100f99a8     interop.obj
 0002:000079b4       ??_C@_0BE@JHJAJICL@sqlite_rename_table?$AA@ 100f99b4     interop.obj
 0002:000079c8       ??_C@_0BG@DKJJOMDK@sqlite_rename_trigger?$AA@ 100f99c8     interop.obj
 0002:000079e0       ??_C@_0BF@CIKMGNA@sqlite_rename_parent?$AA@ 100f99e0     interop.obj
 0002:000079f8       ??_C@_07IKCPJJF@name?$DN?$CFQ?$AA@ 100f99f8     interop.obj
 0002:00007a00       ??_C@_0O@JAFDLLMD@?$CFs?5OR?5name?$DN?$CFQ?$AA@ 100f9a00     interop.obj
 0002:00007a10       ??_C@_0BI@IBIDABAM@type?$DN?8trigger?8?5AND?5?$CI?$CFs?$CJ?$AA@ 100f9a10     interop.obj
 0002:00007a28       ??_C@_0M@FPJBBPLI@tbl_name?$DN?$CFQ?$AA@ 100f9a28     interop.obj
 0002:00007a34       ??_C@_07IOGLMIPM@sqlite_?$AA@ 100f9a34     interop.obj
 0002:00007a3c       ??_C@_0BM@IAHFHDLE@table?5?$CFs?5may?5not?5be?5altered?$AA@ 100f9a3c     interop.obj
 0002:00007a58       ??_C@_0DL@DAEIJKNC@there?5is?5already?5another?5table?5o@ 100f9a58     interop.obj
 0002:00007a94       ??_C@_0BL@FIDIAKLG@view?5?$CFs?5may?5not?5be?5altered?$AA@ 100f9a94     interop.obj
 0002:00007ab0       ??_C@_0EF@LBDFNLNO@UPDATE?5?$CC?$CFw?$CC?4?$CFs?5SET?5sql?5?$DN?5sqlite_@ 100f9ab0     interop.obj
 0002:00007af8       ??_C@_0BIA@DMFFJHNO@UPDATE?5?$CFQ?4?$CFs?5SET?5sql?5?$DN?5CASE?5WHEN@ 100f9af8     interop.obj
 0002:00007c78       ??_C@_0BA@KDDGKFDH@sqlite_sequence?$AA@ 100f9c78     interop.obj
 0002:00007c88       ??_C@_0DK@NPMGFNPC@UPDATE?5?$CC?$CFw?$CC?4sqlite_sequence?5set?5@ 100f9c88     interop.obj
 0002:00007cc8       ??_C@_0FM@GJOILOPP@UPDATE?5sqlite_temp_master?5SET?5sq@ 100f9cc8     interop.obj
 0002:00007d24       ??_C@_0CA@KEHKHMLG@Cannot?5add?5a?5PRIMARY?5KEY?5column?$AA@ 100f9d24     interop.obj
 0002:00007d44       ??_C@_0BL@NAFLCLKF@Cannot?5add?5a?5UNIQUE?5column?$AA@ 100f9d44     interop.obj
 0002:00007d60       ??_C@_0DL@KNFPANHI@Cannot?5add?5a?5REFERENCES?5column?5w@ 100f9d60     interop.obj
 0002:00007d9c       ??_C@_0DF@JACFJFPO@Cannot?5add?5a?5NOT?5NULL?5column?5wit@ 100f9d9c     interop.obj
 0002:00007dd4       ??_C@_0CO@DPKGGDEF@Cannot?5add?5a?5column?5with?5non?9con@ 100f9dd4     interop.obj
 0002:00007e08       ??_C@_0GN@GPPLIGGM@UPDATE?5?$CC?$CFw?$CC?4?$CFs?5SET?5sql?5?$DN?5substr?$CI@ 100f9e08     interop.obj
 0002:00007e78       ??_C@_0CC@HCCMFAJP@virtual?5tables?5may?5not?5be?5altere@ 100f9e78     interop.obj
 0002:00007e9c       ??_C@_0BO@IKHDEECD@Cannot?5add?5a?5column?5to?5a?5view?$AA@ 100f9e9c     interop.obj
 0002:00007ebc       ??_C@_0BD@PKLNNDD@sqlite_altertab_?$CFs?$AA@ 100f9ebc     interop.obj
 0002:00007ed0       ??_C@_0N@EIGEIEIJ@sqlite_stat1?$AA@ 100f9ed0     interop.obj
 0002:00007ee0       ??_C@_0N@BCOBMINH@tbl?0idx?0stat?$AA@ 100f9ee0     interop.obj
 0002:00007ef0       ??_C@_0N@DFBDHAMM@sqlite_stat4?$AA@ 100f9ef0     interop.obj
 0002:00007f00       ??_C@_0BM@EJONBLKK@tbl?0idx?0neq?0nlt?0ndlt?0sample?$AA@ 100f9f00     interop.obj
 0002:00007f1c       ??_C@_0N@HKFCOGAL@sqlite_stat3?$AA@ 100f9f1c     interop.obj
 0002:00007f2c       ??_C@_0BH@NPNIHFHO@CREATE?5TABLE?5?$CFQ?4?$CFs?$CI?$CFs?$CJ?$AA@ 100f9f2c     interop.obj
 0002:00007f44       ??_C@_0BO@HNIAJBGG@DELETE?5FROM?5?$CFQ?4?$CFs?5WHERE?5?$CFs?$DN?$CFQ?$AA@ 100f9f44     interop.obj
 0002:00007f64       ??_C@_0BC@KBEEOAMM@DELETE?5FROM?5?$CFQ?4?$CFs?$AA@ 100f9f64     interop.obj
 0002:00007f78       ??_C@_09BGHEAMKF@stat_init?$AA@ 100f9f78     interop.obj
 0002:00007f84       ??_C@_09LFKFCDD@stat_push?$AA@ 100f9f84     interop.obj
 0002:00007f90       ??_C@_04FCIJFPNK@?$CFllu?$AA@ 100f9f90     interop.obj
 0002:00007f98       ??_C@_05CCMFAMFC@?5?$CFllu?$AA@ 100f9f98     interop.obj
 0002:00007fa0       ??_C@_05PDNAJGDH@?$CFllu?5?$AA@ 100f9fa0     interop.obj
 0002:00007fa8       ??_C@_08FMENKBDE@stat_get?$AA@ 100f9fa8     interop.obj
 0002:00007fb4       ??_C@_09LABAHMNM@sqlite?2_?$CF?$AA@ 100f9fb4     interop.obj
 0002:00007fc0       ??_C@_03FOPHMEHM@BBB?$AA@  100f9fc0     interop.obj
 0002:00007fc4       ??_C@_03DAKNAIGI@idx?$AA@  100f9fc4     interop.obj
 0002:00007fc8       ??_C@_03LIPNCMMN@tbl?$AA@  100f9fc8     interop.obj
 0002:00007fcc       ??_C@_0L@DBBDLBKM@unordered?$CK?$AA@ 100f9fcc     interop.obj
 0002:00007fd8       ??_C@_09OAJLDBEA@sz?$DN?$FL0?99?$FN?$CK?$AA@ 100f9fd8     interop.obj
 0002:00007fe4       ??_C@_0M@JLHNGGLH@noskipscan?$CK?$AA@ 100f9fe4     interop.obj
 0002:00007ff0       ??_C@_0DE@CFNJMCCH@SELECT?5idx?0neq?0nlt?0ndlt?0sample?5F@ 100f9ff0     interop.obj
 0002:00008024       ??_C@_0DG@DMFOEOLN@SELECT?5idx?0count?$CI?$CK?$CJ?5FROM?5?$CFQ?4sqli@ 100fa024     interop.obj
 0002:00008060       ??_C@_0ED@BDPAKHEL@SELECT?5idx?0neq?0nlt?0ndlt?0sqlite_r@ 100fa060     interop.obj
 0002:000080a4       ??_C@_0DG@KHFPEBKH@SELECT?5idx?0count?$CI?$CK?$CJ?5FROM?5?$CFQ?4sqli@ 100fa0a4     interop.obj
 0002:000080dc       ??_C@_0CJ@CJKDHBGL@SELECT?5tbl?0idx?0stat?5FROM?5?$CFQ?4sqli@ 100fa0dc     interop.obj
 0002:00008108       ??_C@_0CF@FLFLBLIN@too?5many?5attached?5databases?5?9?5ma@ 100fa108     interop.obj
 0002:00008130       ??_C@_0BO@FOBANNIG@database?5?$CFs?5is?5already?5in?5use?$AA@ 100fa130     interop.obj
 0002:00008150       ??_C@_0BN@IAAPNCPC@database?5is?5already?5attached?$AA@ 100fa150     interop.obj
 0002:00008170       ??_C@_0EE@MLIDCBJA@attached?5databases?5must?5use?5the?5@ 100fa170     interop.obj
 0002:000081b4       ??_C@_0BC@BMCHOAML@Invalid?5key?5value?$AA@ 100fa1b4     interop.obj
 0002:000081c8       ??_C@_0BM@JECJFHOP@unable?5to?5open?5database?3?5?$CFs?$AA@ 100fa1c8     interop.obj
 0002:000081e4       ??_C@_0BF@PJFCJDG@no?5such?5database?3?5?$CFs?$AA@ 100fa1e4     interop.obj
 0002:000081fc       ??_C@_0BK@KGABJE@cannot?5detach?5database?5?$CFs?$AA@ 100fa1fc     interop.obj
 0002:00008218       ??_C@_0BG@HKAEEBEM@database?5?$CFs?5is?5locked?$AA@ 100fa218     interop.obj
 0002:00008230       ??_C@_0O@PDAEIIFA@sqlite_detach?$AA@ 100fa230     interop.obj
 0002:00008240       ??_C@_0O@GJLGHGMJ@sqlite_attach?$AA@ 100fa240     interop.obj
 0002:00008250       ??_C@_0CO@IGOBCPDP@?$CFs?5?$CFT?5cannot?5reference?5objects?5i@ 100fa250     interop.obj
 0002:00008280       ??_C@_0BI@NDHFOPCH@?$CFs?5cannot?5use?5variables?$AA@ 100fa280     interop.obj
 0002:00008298       ??_C@_0BH@KNHNEHPN@authorizer?5malfunction?$AA@ 100fa298     interop.obj
 0002:000082b0       ??_C@_05NNFHCGPF@?$CFs?4?$CFs?$AA@ 100fa2b0     interop.obj
 0002:000082b8       ??_C@_05MJFJNLM@?$CFs?4?$CFz?$AA@ 100fa2b8     interop.obj
 0002:000082c0       ??_C@_0BL@EPLLLCGN@access?5to?5?$CFz?5is?5prohibited?$AA@ 100fa2c0     interop.obj
 0002:000082dc       ??_C@_0P@PEBGBLCC@not?5authorized?$AA@ 100fa2dc     interop.obj
 0002:000082ec       ??_C@_0BD@OLGFAFA@sqlite_temp_master?$AA@ 100fa2ec     interop.obj
 0002:00008300       ??_C@_0N@IAMBEAMM@no?5such?5view?$AA@ 100fa300     interop.obj
 0002:00008310       ??_C@_0O@HKMEEONL@no?5such?5table?$AA@ 100fa310     interop.obj
 0002:00008320       ??_C@_07BILKMIPE@pragma_?$AA@ 100fa320     interop.obj
 0002:00008328       ??_C@_04GHJNJNPO@main?$AA@ 100fa328     interop.obj
 0002:00008330       ??_C@_0BB@GODMDNII@corrupt?5database?$AA@ 100fa330     interop.obj
 0002:00008344       ??_C@_0BE@DADMKDCE@unknown?5database?5?$CFT?$AA@ 100fa344     interop.obj
 0002:00008358       ??_C@_0CK@DHAAGEMP@object?5name?5reserved?5for?5interna@ 100fa358     interop.obj
 0002:00008384       ??_C@_0CJ@GGBIBJLH@temporary?5table?5name?5must?5be?5unq@ 100fa384     interop.obj
 0002:000083b0       ??_C@_0BI@NMBJKJHP@table?5?$CFT?5already?5exists?$AA@ 100fa3b0     interop.obj
 0002:000083c8       ??_C@_0CD@FJHICPML@there?5is?5already?5an?5index?5named?5@ 100fa3c8     interop.obj
 0002:000083ec       ??_C@_0BH@KPDMNKOM@too?5many?5columns?5on?5?$CFs?$AA@ 100fa3ec     interop.obj
 0002:00008404       ??_C@_0BK@CJJKBEHE@duplicate?5column?5name?3?5?$CFs?$AA@ 100fa404     interop.obj
 0002:00008420       ??_C@_0CN@MLPCOIJO@default?5value?5of?5column?5?$FL?$CFs?$FN?5is?5@ 100fa420     interop.obj
 0002:00008450       ??_C@_0CJ@LEOOFHMA@table?5?$CC?$CFs?$CC?5has?5more?5than?5one?5pri@ 100fa450     interop.obj
 0002:0000847c       ??_C@_07EHCIHKNF@INTEGER?$AA@ 100fa47c     interop.obj
 0002:00008484       ??_C@_0DI@IAIBDBA@AUTOINCREMENT?5is?5only?5allowed?5on@ 100fa484     interop.obj
 0002:000084bc       ??_C@_01IHBHIGKO@?0?$AA@   100fa4bc     interop.obj
 0002:000084c0       ??_C@_03BMMPKCMF@?6?5?5?$AA@ 100fa4c0     interop.obj
 0002:000084c4       ??_C@_04PPJIEIMB@?0?6?5?5?$AA@ 100fa4c4     interop.obj
 0002:000084cc       ??_C@_02EJGPDMNA@?6?$CJ?$AA@ 100fa4cc     interop.obj
 0002:000084d0       ??_C@_0O@BLHKEBID@CREATE?5TABLE?5?$AA@ 100fa4d0     interop.obj
 0002:000084e0       ??_C@_05JELAHNDG@?5TEXT?$AA@ 100fa4e0     interop.obj
 0002:000084e8       ??_C@_04KMHHNFPL@?5NUM?$AA@ 100fa4e8     interop.obj
 0002:000084f0       ??_C@_04LKNDAIML@?5INT?$AA@ 100fa4f0     interop.obj
 0002:000084f8       ??_C@_05IKBMIIDA@?5REAL?$AA@ 100fa4f8     interop.obj
 0002:00008500       ??_C@_0DC@FOEHBEGD@AUTOINCREMENT?5not?5allowed?5on?5WIT@ 100fa500     interop.obj
 0002:00008534       ??_C@_0CA@OMALJPLC@PRIMARY?5KEY?5missing?5on?5table?5?$CFs?$AA@ 100fa534     interop.obj
 0002:00008554       ??_C@_05LCLENNFI@table?$AA@ 100fa554     interop.obj
 0002:0000855c       ??_C@_05HJCCDKBG@TABLE?$AA@ 100fa55c     interop.obj
 0002:00008564       ??_C@_04CHADEDPO@view?$AA@ 100fa564     interop.obj
 0002:0000856c       ??_C@_04OLDJKBIG@VIEW?$AA@ 100fa56c     interop.obj
 0002:00008574       ??_C@_0P@BPBAOJCC@CREATE?5?$CFs?5?$CF?4?$CKs?$AA@ 100fa574     interop.obj
 0002:00008588       ??_C@_0FH@BLIGLCKI@UPDATE?5?$CFQ?4?$CFs?5SET?5type?$DN?8?$CFs?8?0?5name@ 100fa588     interop.obj
 0002:000085e0       ??_C@_0CK@BLJIJAMD@CREATE?5TABLE?5?$CFQ?4sqlite_sequence?$CI@ 100fa5e0     interop.obj
 0002:0000860c       ??_C@_0CC@CBOBIFGC@tbl_name?$DN?8?$CFq?8?5AND?5type?$CB?$DN?8trigger@ 100fa60c     interop.obj
 0002:00008630       ??_C@_0CE@HIMMFEMD@parameters?5are?5not?5allowed?5in?5vi@ 100fa630     interop.obj
 0002:00008654       ??_C@_0BO@BLAOKNKN@view?5?$CFs?5is?5circularly?5defined?$AA@ 100fa654     interop.obj
 0002:00008674       ??_C@_0DI@GKCMDFKF@UPDATE?5?$CFQ?4?$CFs?5SET?5rootpage?$DN?$CFd?5WHE@ 100fa674     interop.obj
 0002:000086ac       ??_C@_0O@IOJCPKAP@sqlite_stat?$CFd?$AA@ 100fa6ac     interop.obj
 0002:000086bc       ??_C@_0CN@DKDOKGOO@DELETE?5FROM?5?$CFQ?4sqlite_sequence?5W@ 100fa6bc     interop.obj
 0002:000086ec       ??_C@_0DI@FOLLFOLB@DELETE?5FROM?5?$CFQ?4?$CFs?5WHERE?5tbl_name@ 100fa6ec     interop.obj
 0002:00008724       ??_C@_0M@IHGMMCJN@sqlite_stat?$AA@ 100fa724     interop.obj
 0002:00008730       ??_C@_0BM@JEGMLIGC@table?5?$CFs?5may?5not?5be?5dropped?$AA@ 100fa730     interop.obj
 0002:0000874c       ??_C@_0CC@HNNEDPB@use?5DROP?5TABLE?5to?5delete?5table?5?$CF@ 100fa74c     interop.obj
 0002:00008770       ??_C@_0CA@FJIHAAAA@use?5DROP?5VIEW?5to?5delete?5view?5?$CFs?$AA@ 100fa770     interop.obj
 0002:00008790       ??_C@_0DP@HFDIOLMB@foreign?5key?5on?5?$CFs?5should?5referen@ 100fa790     interop.obj
 0002:000087d0       ??_C@_0FO@BDBBNOLJ@number?5of?5columns?5in?5foreign?5key@ 100fa7d0     interop.obj
 0002:00008830       ??_C@_0CO@ECJPGOGF@unknown?5column?5?$CC?$CFs?$CC?5in?5foreign?5k@ 100fa830     interop.obj
 0002:00008860       ??_C@_05FKHKFDID@index?$AA@ 100fa860     interop.obj
 0002:00008868       ??_C@_0DC@MMFBMLFB@cannot?5create?5a?5TEMP?5index?5on?5no@ 100fa868     interop.obj
 0002:0000889c       ??_C@_09NGMBFCCJ@altertab_?$AA@ 100fa89c     interop.obj
 0002:000088a8       ??_C@_0BM@KIGEJLNH@table?5?$CFs?5may?5not?5be?5indexed?$AA@ 100fa8a8     interop.obj
 0002:000088c4       ??_C@_0BJ@CFGNJLOC@views?5may?5not?5be?5indexed?$AA@ 100fa8c4     interop.obj
 0002:000088e0       ??_C@_0CC@FKDNLIPM@virtual?5tables?5may?5not?5be?5indexe@ 100fa8e0     interop.obj
 0002:00008904       ??_C@_0CC@CKJEJGLG@there?5is?5already?5a?5table?5named?5?$CF@ 100fa904     interop.obj
 0002:00008928       ??_C@_0BI@HPCDPJFN@index?5?$CFs?5already?5exists?$AA@ 100fa928     interop.obj
 0002:00008940       ??_C@_0BH@HCCALECK@sqlite_autoindex_?$CFs_?$CFd?$AA@ 100fa940     interop.obj
 0002:00008958       ??_C@_0DN@KANOKGBN@expressions?5prohibited?5in?5PRIMAR@ 100fa958     interop.obj
 0002:00008998       ??_C@_0CK@BPKJMBLB@conflicting?5ON?5CONFLICT?5clauses?5@ 100fa998     interop.obj
 0002:000089c4       ??_C@_07OGDPOKCI@?5UNIQUE?$AA@ 100fa9c4     interop.obj
 0002:000089cc       ??_C@_0BE@NHCJMGDI@CREATE?$CFs?5INDEX?5?$CF?4?$CKs?$AA@ 100fa9cc     interop.obj
 0002:000089e0       ??_C@_0DA@DLDDDEKN@INSERT?5INTO?5?$CFQ?4?$CFs?5VALUES?$CI?8index?8@ 100fa9e0     interop.obj
 0002:00008a10       ??_C@_0BL@CHCJOOMG@name?$DN?8?$CFq?8?5AND?5type?$DN?8index?8?$AA@ 100faa10     interop.obj
 0002:00008a2c       ??_C@_0BC@JBPCAJCH@no?5such?5index?3?5?$CFS?$AA@ 100faa2c     interop.obj
 0002:00008a40       ??_C@_0EJ@MFMNFJHB@index?5associated?5with?5UNIQUE?5or?5@ 100faa40     interop.obj
 0002:00008a8c       ??_C@_0DB@DNHAJCKG@DELETE?5FROM?5?$CFQ?4?$CFs?5WHERE?5name?$DN?$CFQ?5@ 100faa8c     interop.obj
 0002:00008ac0       ??_C@_02BFICIOJL@ON?$AA@   100faac0     interop.obj
 0002:00008ac4       ??_C@_05EOONBMLM@USING?$AA@ 100faac4     interop.obj
 0002:00008acc       ??_C@_0CE@GFPKLECD@a?5JOIN?5clause?5is?5required?5before@ 100faacc     interop.obj
 0002:00008af0       ??_C@_05ILMMJGEC@BEGIN?$AA@ 100faaf0     interop.obj
 0002:00008af8       ??_C@_08COBEBGNM@ROLLBACK?$AA@ 100faaf8     interop.obj
 0002:00008b04       ??_C@_06IBPPMFNL@COMMIT?$AA@ 100fab04     interop.obj
 0002:00008b0c       ??_C@_07LDDIIHCM@RELEASE?$AA@ 100fab0c     interop.obj
 0002:00008b18       ??_C@_0EG@GIEOJFED@unable?5to?5open?5a?5temporary?5datab@ 100fab18     interop.obj
 0002:00008b60       ??_C@_0L@FKJLCLHK@index?5?8?$CFq?8?$AA@ 100fab60     interop.obj
 0002:00008b6c       ??_C@_02KEGNLNML@?0?5?$AA@ 100fab6c     interop.obj
 0002:00008b70       ??_C@_08IBDKHCHA@?$CFs?4rowid?$AA@ 100fab70     interop.obj
 0002:00008b7c       ??_C@_0CO@PMBDNHDC@unable?5to?5identify?5the?5object?5to@ 100fab7c     interop.obj
 0002:00008bac       ??_C@_0BO@HBGGJFCF@duplicate?5WITH?5table?5name?3?5?$CFs?$AA@ 100fabac     interop.obj
 0002:00008bcc       ??_C@_0BP@CGLMEPGG@no?5such?5collation?5sequence?3?5?$CFs?$AA@ 100fabcc     interop.obj
 0002:00008bec       ??_C@_0BN@GLMOOAMK@table?5?$CFs?5may?5not?5be?5modified?$AA@ 100fabec     interop.obj
 0002:00008c0c       ??_C@_0CG@CNPJIJGN@cannot?5modify?5?$CFs?5because?5it?5is?5a@ 100fac0c     interop.obj
 0002:00008c34       ??_C@_0N@DAGIBCDP@rows?5deleted?$AA@ 100fac34     interop.obj
 0002:00008c44       ??_C@_04CIMGMMMG@text?$AA@ 100fac44     interop.obj
 0002:00008c4c       ??_C@_04LPJPOBEM@blob?$AA@ 100fac4c     interop.obj
 0002:00008c54       ??_C@_0BB@KBEKGHFK@integer?5overflow?$AA@ 100fac54     interop.obj
 0002:00008c68       ??_C@_04HGGMHPIM@?$CF?4?$CKf?$AA@ 100fac68     interop.obj
 0002:00008c70       ??_C@_0CB@LFIMBCA@LIKE?5or?5GLOB?5pattern?5too?5complex@ 100fac70     interop.obj
 0002:00008c94       ??_C@_0CN@PAMOLCDH@ESCAPE?5expression?5must?5be?5a?5sing@ 100fac94     interop.obj
 0002:00008cc4       ??_C@_06CLNEDLBE@?$CF?$CB?420e?$AA@ 100facc4     interop.obj
 0002:00008ccc       ??_C@_01CLKCMJKC@?5?$AA@   100faccc     interop.obj
 0002:00008cd0       ??_C@_04BBKKAMHH@?$DP000?$AA@ 100facd0     interop.obj
 0002:00008cd8       ??_C@_05JGHLFIHG@MATCH?$AA@ 100facd8     interop.obj
 0002:00008ce0       ??_C@_04HPDJJBAE@like?$AA@ 100face0     interop.obj
 0002:00008ce8       ??_C@_04HHHPGODM@glob?$AA@ 100face8     interop.obj
 0002:00008cf0       ??_C@_07KFKPEFNG@soundex?$AA@ 100facf0     interop.obj
 0002:00008cf8       ??_C@_0P@BJKPICNH@load_extension?$AA@ 100facf8     interop.obj
 0002:00008d08       ??_C@_0BK@NPIMPNGH@sqlite_compileoption_used?$AA@ 100fad08     interop.obj
 0002:00008d24       ??_C@_0BJ@BHKPGCCL@sqlite_compileoption_get?$AA@ 100fad24     interop.obj
 0002:00008d40       ??_C@_08FIGEBGNH@unlikely?$AA@ 100fad40     interop.obj
 0002:00008d4c       ??_C@_0L@EOIJFFJE@likelihood?$AA@ 100fad4c     interop.obj
 0002:00008d58       ??_C@_06FMFEOJBE@likely?$AA@ 100fad58     interop.obj
 0002:00008d60       ??_C@_05GLDKFKCA@ltrim?$AA@ 100fad60     interop.obj
 0002:00008d68       ??_C@_05FCOGDJML@rtrim?$AA@ 100fad68     interop.obj
 0002:00008d70       ??_C@_04GDOMMDLP@trim?$AA@ 100fad70     interop.obj
 0002:00008d78       ??_C@_03KLIPLJLL@min?$AA@  100fad78     interop.obj
 0002:00008d7c       ??_C@_03LJAEFNNE@max?$AA@  100fad7c     interop.obj
 0002:00008d80       ??_C@_06NDJPCPHC@typeof?$AA@ 100fad80     interop.obj
 0002:00008d88       ??_C@_06IJDLPEM@length?$AA@ 100fad88     interop.obj
 0002:00008d90       ??_C@_05HALPBNGI@instr?$AA@ 100fad90     interop.obj
 0002:00008d98       ??_C@_06OHJFMFMB@printf?$AA@ 100fad98     interop.obj
 0002:00008da0       ??_C@_07GAJMMAJO@unicode?$AA@ 100fada0     interop.obj
 0002:00008da8       ??_C@_04ENMBGAPA@char?$AA@ 100fada8     interop.obj
 0002:00008db0       ??_C@_03BCGAIFPO@abs?$AA@  100fadb0     interop.obj
 0002:00008db4       ??_C@_05MIMAKCN@round?$AA@ 100fadb4     interop.obj
 0002:00008dbc       ??_C@_05NECKJAMC@upper?$AA@ 100fadbc     interop.obj
 0002:00008dc4       ??_C@_05IPJEPLHL@lower?$AA@ 100fadc4     interop.obj
 0002:00008dcc       ??_C@_03IJNDAFDK@hex?$AA@  100fadcc     interop.obj
 0002:00008dd0       ??_C@_06FAHGEKJN@ifnull?$AA@ 100fadd0     interop.obj
 0002:00008dd8       ??_C@_06NLFCANPD@random?$AA@ 100fadd8     interop.obj
 0002:00008de0       ??_C@_0L@IDMFPHDO@randomblob?$AA@ 100fade0     interop.obj
 0002:00008dec       ??_C@_06LLGGGFDC@nullif?$AA@ 100fadec     interop.obj
 0002:00008df4       ??_C@_0P@IPDPEBN@sqlite_version?$AA@ 100fadf4     interop.obj
 0002:00008e04       ??_C@_0BB@HPCCOLJC@sqlite_source_id?$AA@ 100fae04     interop.obj
 0002:00008e18       ??_C@_0L@HNFKFGGK@sqlite_log?$AA@ 100fae18     interop.obj
 0002:00008e24       ??_C@_05JHEGFHLM@quote?$AA@ 100fae24     interop.obj
 0002:00008e2c       ??_C@_0BC@EKKKCJJE@last_insert_rowid?$AA@ 100fae2c     interop.obj
 0002:00008e40       ??_C@_07HFLFHMNL@changes?$AA@ 100fae40     interop.obj
 0002:00008e48       ??_C@_0O@MLEKHAGK@total_changes?$AA@ 100fae48     interop.obj
 0002:00008e58       ??_C@_07CLEHDIEJ@replace?$AA@ 100fae58     interop.obj
 0002:00008e60       ??_C@_08OAGHJJOG@zeroblob?$AA@ 100fae60     interop.obj
 0002:00008e6c       ??_C@_06DAHFIGOC@substr?$AA@ 100fae6c     interop.obj
 0002:00008e74       ??_C@_03CFFIJAMA@sum?$AA@  100fae74     interop.obj
 0002:00008e78       ??_C@_05KBOMEDGA@total?$AA@ 100fae78     interop.obj
 0002:00008e80       ??_C@_03CHOBFJAH@avg?$AA@  100fae80     interop.obj
 0002:00008e84       ??_C@_05IOMEMJEC@count?$AA@ 100fae84     interop.obj
 0002:00008e8c       ??_C@_0N@KKLIBDFO@group_concat?$AA@ 100fae8c     interop.obj
 0002:00008e9c       ??_C@_08FNGHHBID@coalesce?$AA@ 100fae9c     interop.obj
 0002:00008ea8       ??_C@_0CN@NOKHDNFH@foreign?5key?5mismatch?5?9?5?$CC?$CFw?$CC?5refe@ 100faea8     interop.obj
 0002:00008ed8       ??_C@_0CA@HKGLKLIP@table?5?$CFS?5has?5no?5column?5named?5?$CFs?$AA@ 100faed8     interop.obj
 0002:00008ef8       ??_C@_0DE@HLHNLKJ@table?5?$CFS?5has?5?$CFd?5columns?5but?5?$CFd?5v@ 100faef8     interop.obj
 0002:00008f2c       ??_C@_0BJ@IABIHKKK@?$CFd?5values?5for?5?$CFd?5columns?$AA@ 100faf2c     interop.obj
 0002:00008f48       ??_C@_0O@OMFDFDMH@rows?5inserted?$AA@ 100faf48     interop.obj
 0002:00008f58       ??_C@_03OCHKFGFI@dll?$AA@  100faf58     interop.obj
 0002:00008f5c       ??_C@_0BH@NNAEMFED@sqlite3_extension_init?$AA@ 100faf5c     interop.obj
 0002:00008f74       ??_C@_0CD@FENJJFPL@unable?5to?5open?5shared?5library?5?$FL?$CF@ 100faf74     interop.obj
 0002:00008f98       ??_C@_08MIGLKGCA@sqlite3_?$AA@ 100faf98     interop.obj
 0002:00008fa4       ??_C@_03LPIGJBNC@lib?$AA@  100fafa4     interop.obj
 0002:00008fa8       ??_C@_05PAGLDNCP@_init?$AA@ 100fafa8     interop.obj
 0002:00008fb0       ??_C@_0CL@IHPFGADB@no?5entry?5point?5?$FL?$CFs?$FN?5in?5shared?5li@ 100fafb0     interop.obj
 0002:00008fdc       ??_C@_0CA@BPLHPOIJ@error?5during?5initialization?3?5?$CFs?$AA@ 100fafdc     interop.obj
 0002:00008ffc       ??_C@_0CH@EKKEGGML@automatic?5extension?5loading?5fail@ 100faffc     interop.obj
 0002:00009024       ??_C@_0L@JIGNFOJJ@cache_size?$AA@ 100fb024     interop.obj
 0002:00009030       ??_C@_03LBLPCGAC@cid?$AA@  100fb030     interop.obj
 0002:00009034       ??_C@_04MEMAJGDJ@name?$AA@ 100fb034     interop.obj
 0002:0000903c       ??_C@_04GPMDFGEJ@type?$AA@ 100fb03c     interop.obj
 0002:00009044       ??_C@_07EAJHGOKJ@notnull?$AA@ 100fb044     interop.obj
 0002:0000904c       ??_C@_0L@KNDFGGNJ@dflt_value?$AA@ 100fb04c     interop.obj
 0002:00009058       ??_C@_02NCEGPMNB@pk?$AA@   100fb058     interop.obj
 0002:0000905c       ??_C@_04DILHHFEK@wdth?$AA@ 100fb05c     interop.obj
 0002:00009064       ??_C@_04DLPJNNLO@hght?$AA@ 100fb064     interop.obj
 0002:0000906c       ??_C@_04BHNFDFCE@flgs?$AA@ 100fb06c     interop.obj
 0002:00009074       ??_C@_05OBPGIPLF@seqno?$AA@ 100fb074     interop.obj
 0002:0000907c       ??_C@_04EBPADADD@desc?$AA@ 100fb07c     interop.obj
 0002:00009084       ??_C@_04MIPPEMF@coll?$AA@  100fb084     interop.obj
 0002:0000908c       ??_C@_03ICHNJLJF@key?$AA@  100fb08c     interop.obj
 0002:00009090       ??_C@_03NPAJGOON@seq?$AA@  100fb090     interop.obj
 0002:00009094       ??_C@_06ODCMFGLL@unique?$AA@ 100fb094     interop.obj
 0002:0000909c       ??_C@_06NHCMNMEH@origin?$AA@ 100fb09c     interop.obj
 0002:000090a4       ??_C@_07JHIHCBKH@partial?$AA@ 100fb0a4     interop.obj
 0002:000090ac       ??_C@_04DAMGJPCA@file?$AA@ 100fb0ac     interop.obj
 0002:000090b4       ??_C@_07JNFPDNEP@builtin?$AA@ 100fb0b4     interop.obj
 0002:000090bc       ??_C@_02EGCJHIOB@id?$AA@   100fb0bc     interop.obj
 0002:000090c0       ??_C@_04HNEBHLOP@from?$AA@ 100fb0c0     interop.obj
 0002:000090c8       ??_C@_02LBCDJBAJ@to?$AA@   100fb0c8     interop.obj
 0002:000090cc       ??_C@_09DFBGJPOA@on_update?$AA@ 100fb0cc     interop.obj
 0002:000090d8       ??_C@_09BILGEHCE@on_delete?$AA@ 100fb0d8     interop.obj
 0002:000090e4       ??_C@_05FNONLPDI@match?$AA@ 100fb0e4     interop.obj
 0002:000090ec       ??_C@_05KDMKNECD@rowid?$AA@ 100fb0ec     interop.obj
 0002:000090f4       ??_C@_06MLKDMCBD@parent?$AA@ 100fb0f4     interop.obj
 0002:000090fc       ??_C@_04IFBPKEAB@fkid?$AA@ 100fb0fc     interop.obj
 0002:00009104       ??_C@_04COIEGINH@busy?$AA@ 100fb104     interop.obj
 0002:0000910c       ??_C@_03MGHMBJCF@log?$AA@  100fb10c     interop.obj
 0002:00009110       ??_C@_0N@NLAOCFOK@checkpointed?$AA@ 100fb110     interop.obj
 0002:00009120       ??_C@_07DDHNKDGP@timeout?$AA@ 100fb120     interop.obj
 0002:00009128       ??_C@_08PBOCEOLL@database?$AA@ 100fb128     interop.obj
 0002:00009134       ??_C@_06DJIHEMFI@status?$AA@ 100fb134     interop.obj
 0002:0000913c       ??_C@_0BE@GNJIECAI@activate_extensions?$AA@ 100fb13c     interop.obj
 0002:00009150       ??_C@_0P@MIBGKNHF@application_id?$AA@ 100fb150     interop.obj
 0002:00009160       ??_C@_0M@ENMLGDH@auto_vacuum?$AA@ 100fb160     interop.obj
 0002:0000916c       ??_C@_0BA@NMINPKHE@automatic_index?$AA@ 100fb16c     interop.obj
 0002:0000917c       ??_C@_0N@ELBKLHHC@busy_timeout?$AA@ 100fb17c     interop.obj
 0002:0000918c       ??_C@_0M@GAIOFEBI@cache_spill?$AA@ 100fb18c     interop.obj
 0002:00009198       ??_C@_0BE@LKBHCIHN@case_sensitive_like?$AA@ 100fb198     interop.obj
 0002:000091ac       ??_C@_0BA@ILJBCKLF@cell_size_check?$AA@ 100fb1ac     interop.obj
 0002:000091bc       ??_C@_0BF@IOJNJBPA@checkpoint_fullfsync?$AA@ 100fb1bc     interop.obj
 0002:000091d4       ??_C@_0P@KOJNIGCH@collation_list?$AA@ 100fb1d4     interop.obj
 0002:000091e4       ??_C@_0BA@CFJEIIDP@compile_options?$AA@ 100fb1e4     interop.obj
 0002:000091f4       ??_C@_0O@PEBBJPHD@count_changes?$AA@ 100fb1f4     interop.obj
 0002:00009204       ??_C@_0BF@OGPCDMDP@data_store_directory?$AA@ 100fb204     interop.obj
 0002:0000921c       ??_C@_0N@OFPBFGHH@data_version?$AA@ 100fb21c     interop.obj
 0002:0000922c       ??_C@_0O@EBMNDACF@database_list?$AA@ 100fb22c     interop.obj
 0002:0000923c       ??_C@_0BD@EMJOENCP@default_cache_size?$AA@ 100fb23c     interop.obj
 0002:00009250       ??_C@_0BD@DIGJFFIE@defer_foreign_keys?$AA@ 100fb250     interop.obj
 0002:00009264       ??_C@_0BH@CMLDBHJP@empty_result_callbacks?$AA@ 100fb264     interop.obj
 0002:0000927c       ??_C@_08MLPGAEIK@encoding?$AA@ 100fb27c     interop.obj
 0002:00009288       ??_C@_0BC@CIFGNOOA@foreign_key_check?$AA@ 100fb288     interop.obj
 0002:0000929c       ??_C@_0BB@KJMCGNAI@foreign_key_list?$AA@ 100fb29c     interop.obj
 0002:000092b0       ??_C@_0N@CEEMEAMB@foreign_keys?$AA@ 100fb2b0     interop.obj
 0002:000092c0       ??_C@_0P@GDKICNML@freelist_count?$AA@ 100fb2c0     interop.obj
 0002:000092d0       ??_C@_0BC@CBBNFKC@full_column_names?$AA@ 100fb2d0     interop.obj
 0002:000092e4       ??_C@_09MLJLLBEB@fullfsync?$AA@ 100fb2e4     interop.obj
 0002:000092f0       ??_C@_06BHJHKMJC@hexkey?$AA@ 100fb2f0     interop.obj
 0002:000092f8       ??_C@_08PCDPBHPP@hexrekey?$AA@ 100fb2f8     interop.obj
 0002:00009304       ??_C@_0BJ@KLIMENGM@ignore_check_constraints?$AA@ 100fb304     interop.obj
 0002:00009320       ??_C@_0BD@IEMDKFHA@incremental_vacuum?$AA@ 100fb320     interop.obj
 0002:00009334       ??_C@_0L@CKPANNIC@index_info?$AA@ 100fb334     interop.obj
 0002:00009340       ??_C@_0L@MMBMMAEK@index_list?$AA@ 100fb340     interop.obj
 0002:0000934c       ??_C@_0M@FBDGHLPH@index_xinfo?$AA@ 100fb34c     interop.obj
 0002:00009358       ??_C@_0BA@EDNFHOBJ@integrity_check?$AA@ 100fb358     interop.obj
 0002:00009368       ??_C@_0N@IPLFJDHP@journal_mode?$AA@ 100fb368     interop.obj
 0002:00009378       ??_C@_0BD@MCBLCGGI@journal_size_limit?$AA@ 100fb378     interop.obj
 0002:0000938c       ??_C@_0BD@LEFOEGBK@legacy_file_format?$AA@ 100fb38c     interop.obj
 0002:000093a0       ??_C@_0N@NOOMDJH@locking_mode?$AA@ 100fb3a0     interop.obj
 0002:000093b0       ??_C@_0P@FMLMLOHD@max_page_count?$AA@ 100fb3b0     interop.obj
 0002:000093c0       ??_C@_09CBABOEGE@mmap_size?$AA@ 100fb3c0     interop.obj
 0002:000093cc       ??_C@_08GHMAOHAP@optimize?$AA@ 100fb3cc     interop.obj
 0002:000093d8       ??_C@_0L@OBBCDPFM@page_count?$AA@ 100fb3d8     interop.obj
 0002:000093e4       ??_C@_09OGOMKHMG@page_size?$AA@ 100fb3e4     interop.obj
 0002:000093f0       ??_C@_0L@LILGGAHH@query_only?$AA@ 100fb3f0     interop.obj
 0002:000093fc       ??_C@_0M@EDPCDMIO@quick_check?$AA@ 100fb3fc     interop.obj
 0002:00009408       ??_C@_0BB@KLHJNGLH@read_uncommitted?$AA@ 100fb408     interop.obj
 0002:0000941c       ??_C@_0BD@IAMNLMFM@recursive_triggers?$AA@ 100fb41c     interop.obj
 0002:00009430       ??_C@_05FMDLBNN@rekey?$AA@ 100fb430     interop.obj
 0002:00009438       ??_C@_0BK@ECMFJINF@reverse_unordered_selects?$AA@ 100fb438     interop.obj
 0002:00009454       ??_C@_0P@JGMMHBPP@schema_version?$AA@ 100fb454     interop.obj
 0002:00009464       ??_C@_0O@CPOJHNIK@secure_delete?$AA@ 100fb464     interop.obj
 0002:00009474       ??_C@_0BD@BFIEDLEP@short_column_names?$AA@ 100fb474     interop.obj
 0002:00009488       ??_C@_0O@ILHLPNHH@shrink_memory?$AA@ 100fb488     interop.obj
 0002:00009498       ??_C@_0BA@HCOALODB@soft_heap_limit?$AA@ 100fb498     interop.obj
 0002:000094a8       ??_C@_0M@GKGFOGDE@synchronous?$AA@ 100fb4a8     interop.obj
 0002:000094b4       ??_C@_0L@NEMFJAGM@table_info?$AA@ 100fb4b4     interop.obj
 0002:000094c0       ??_C@_0L@JEPCDDIC@temp_store?$AA@ 100fb4c0     interop.obj
 0002:000094cc       ??_C@_0BF@OPALIJKE@temp_store_directory?$AA@ 100fb4cc     interop.obj
 0002:000094e4       ??_C@_07NFPADACG@threads?$AA@ 100fb4e4     interop.obj
 0002:000094ec       ??_C@_0N@MPKCHLKL@user_version?$AA@ 100fb4ec     interop.obj
 0002:000094fc       ??_C@_0BD@JPABJEAI@wal_autocheckpoint?$AA@ 100fb4fc     interop.obj
 0002:00009510       ??_C@_0P@OLFGCBDE@wal_checkpoint?$AA@ 100fb510     interop.obj
 0002:00009520       ??_C@_0BA@OHBCLCAL@writable_schema?$AA@ 100fb520     interop.obj
 0002:00009530       ??_C@_09JJPHINFN@exclusive?$AA@ 100fb530     interop.obj
 0002:0000953c       ??_C@_06IKLLLDHL@normal?$AA@ 100fb53c     interop.obj
 0002:00009544       ??_C@_04CGFJFPFD@none?$AA@ 100fb544     interop.obj
 0002:0000954c       ??_C@_04PLMLMMEO@full?$AA@ 100fb54c     interop.obj
 0002:00009554       ??_C@_0M@LPKHOAFP@incremental?$AA@ 100fb554     interop.obj
 0002:00009560       ??_C@_06HLKELJGF@memory?$AA@ 100fb560     interop.obj
 0002:00009568       ??_C@_0DO@MAKCDDCJ@temporary?5storage?5cannot?5be?5chan@ 100fb568     interop.obj
 0002:000095a8       ??_C@_08NNDOPPOM@SET?5NULL?$AA@ 100fb5a8     interop.obj
 0002:000095b4       ??_C@_0M@GCMLNHF@SET?5DEFAULT?$AA@ 100fb5b4     interop.obj
 0002:000095c0       ??_C@_07JDMPGCJB@CASCADE?$AA@ 100fb5c0     interop.obj
 0002:000095c8       ??_C@_08KJMJNHDG@RESTRICT?$AA@ 100fb5c8     interop.obj
 0002:000095d4       ??_C@_09DBFINONP@NO?5ACTION?$AA@ 100fb5d4     interop.obj
 0002:000095e0       ??_C@_06FOBLBEIN@delete?$AA@ 100fb5e0     interop.obj
 0002:000095e8       ??_C@_07EMFBDGOD@persist?$AA@ 100fb5e8     interop.obj
 0002:000095f0       ??_C@_03MCADLMAF@off?$AA@  100fb5f0     interop.obj
 0002:000095f4       ??_C@_08MABILMFG@truncate?$AA@ 100fb5f4     interop.obj
 0002:00009600       ??_C@_03KIAODNHK@wal?$AA@  100fb600     interop.obj
 0002:00009604       ??_C@_03GMLCELFL@?9?$CFT?$AA@ 100fb604     interop.obj
 0002:00009608       ??_C@_04LBNBHAJC@fast?$AA@ 100fb608     interop.obj
 0002:00009610       ??_C@_0BJ@INLPNACB@not?5a?5writable?5directory?$AA@ 100fb610     interop.obj
 0002:0000962c       ??_C@_0DF@GMDBDCKL@Safety?5level?5may?5not?5be?5changed?5@ 100fb62c     interop.obj
 0002:00009664       ??_C@_06OLNPHCKJ@issisi?$AA@ 100fb664     interop.obj
 0002:0000966c       ??_C@_04MPAEKEAC@iisX?$AA@ 100fb66c     interop.obj
 0002:00009674       ??_C@_04OBBBDFFP@isiX?$AA@ 100fb674     interop.obj
 0002:0000967c       ??_C@_01PAPGNFGE@c?$AA@    100fb67c     interop.obj
 0002:00009680       ??_C@_01OMGOGALD@u?$AA@    100fb680     interop.obj
 0002:00009684       ??_C@_05HLBCCELP@isisi?$AA@ 100fb684     interop.obj
 0002:0000968c       ??_C@_03MKDAGEFG@iss?$AA@  100fb68c     interop.obj
 0002:00009690       ??_C@_02EDKKPMHH@is?$AA@   100fb690     interop.obj
 0002:00009694       ??_C@_04OKGDLNCL@NONE?$AA@ 100fb694     interop.obj
 0002:0000969c       ??_C@_08ODPJLLLG@iissssss?$AA@ 100fb69c     interop.obj
 0002:000096a8       ??_C@_03JCFFAIGC@siX?$AA@  100fb6a8     interop.obj
 0002:000096ac       ??_C@_0BI@FOLPKNAK@?$CK?$CK?$CK?5in?5database?5?$CFs?5?$CK?$CK?$CK?6?$AA@ 100fb6ac     interop.obj
 0002:000096c4       ??_C@_0BE@NPIDKCIA@NULL?5value?5in?5?$CFs?4?$CFs?$AA@ 100fb6c4     interop.obj
 0002:000096d8       ??_C@_0BO@NENBDEJP@CHECK?5constraint?5failed?5in?5?$CFs?$AA@ 100fb6d8     interop.obj
 0002:000096f8       ??_C@_04BNLAAGGP@row?5?$AA@ 100fb6f8     interop.obj
 0002:00009700       ??_C@_0BF@JGBLFHJL@?5missing?5from?5index?5?$AA@ 100fb700     interop.obj
 0002:00009718       ??_C@_0BL@POCBBOHD@non?9unique?5entry?5in?5index?5?$AA@ 100fb718     interop.obj
 0002:00009734       ??_C@_0BN@JKHLHJNK@wrong?5?$CD?5of?5entries?5in?5index?5?$AA@ 100fb734     interop.obj
 0002:00009754       ??_C@_02MFDMBIJM@ok?$AA@   100fb754     interop.obj
 0002:00009758       ??_C@_04OOMJJNCF@UTF8?$AA@ 100fb758     interop.obj
 0002:00009760       ??_C@_05EGJIMALK@UTF?98?$AA@ 100fb760     interop.obj
 0002:00009768       ??_C@_08HMPANPBC@UTF?916le?$AA@ 100fb768     interop.obj
 0002:00009774       ??_C@_08HGGOPCBI@UTF?916be?$AA@ 100fb774     interop.obj
 0002:00009780       ??_C@_07JJMGGCAM@UTF16le?$AA@ 100fb780     interop.obj
 0002:00009788       ??_C@_07JDFIEPAG@UTF16be?$AA@ 100fb788     interop.obj
 0002:00009790       ??_C@_06KNDPGIKI@UTF?916?$AA@ 100fb790     interop.obj
 0002:00009798       ??_C@_05MNCHLHCA@UTF16?$AA@ 100fb798     interop.obj
 0002:000097a0       ??_C@_0BJ@GJBMJNNI@unsupported?5encoding?3?5?$CFs?$AA@ 100fb7a0     interop.obj
 0002:000097bc       ??_C@_07LDHOHMPD@restart?$AA@ 100fb7bc     interop.obj
 0002:000097c4       ??_C@_0BC@NAKLCPPI@ANALYZE?5?$CC?$CFw?$CC?4?$CC?$CFw?$CC?$AA@ 100fb7c4     interop.obj
 0002:000097d8       ??_C@_04OFGBMGOI@see?9?$AA@ 100fb7d8     interop.obj
 0002:000097e0       ??_C@_0P@JDEMFLCF@CREATE?5TABLE?5x?$AA@ 100fb7e0     interop.obj
 0002:000097f0       ??_C@_06KMJOPIAP@?$CFc?$CC?$CFs?$CC?$AA@ 100fb7f0     interop.obj
 0002:000097f8       ??_C@_05HICKGKEG@?$CI?$CC?$CFs?$CC?$AA@ 100fb7f8     interop.obj
 0002:00009800       ??_C@_0M@MFJOEBHG@?0arg?5HIDDEN?$AA@ 100fb800     interop.obj
 0002:0000980c       ??_C@_0P@KHJMGPGI@?0schema?5HIDDEN?$AA@ 100fb80c     interop.obj
 0002:0000981c       ??_C@_07NIMEDFOL@PRAGMA?5?$AA@ 100fb81c     interop.obj
 0002:00009824       ??_C@_03CPCODCEE@?$CFQ?4?$AA@ 100fb824     interop.obj
 0002:00009828       ??_C@_03EBNMOIIB@?$DN?$CFQ?$AA@ 100fb828     interop.obj
 0002:0000982c       ??_C@_01OGPIMHDM@?$DP?$AA@ 100fb82c     interop.obj
 0002:00009830       ??_C@_0BP@EHGGIFII@malformed?5database?5schema?5?$CI?$CFs?$CJ?$AA@ 100fb830     interop.obj
 0002:00009850       ??_C@_07MHAICMEC@?$CFz?5?9?5?$CFs?$AA@ 100fb850     interop.obj
 0002:00009858       ??_C@_07HMOAJMHK@create?5?$AA@ 100fb858     interop.obj
 0002:00009860       ??_C@_0BB@JDJPANJL@invalid?5rootpage?$AA@ 100fb860     interop.obj
 0002:00009878       ??_C@_0EI@PHDEEPEH@CREATE?5TABLE?5x?$CItype?5text?0name?5te@ 100fb878     interop.obj
 0002:000098c0       ??_C@_0BI@FFDCNLCF@unsupported?5file?5format?$AA@ 100fb8c0     interop.obj
 0002:000098d8       ??_C@_0DH@KOGIOIF@SELECT?5name?0?5rootpage?0?5sql?5FROM?5@ 100fb8d8     interop.obj
 0002:00009910       ??_C@_0BO@EBFEALBC@database?5schema?5is?5locked?3?5?$CFs?$AA@ 100fb910     interop.obj
 0002:00009930       ??_C@_0BD@NDJILONF@statement?5too?5long?$AA@ 100fb930     interop.obj
 0002:00009944       ??_C@_04HLBMEOMD@addr?$AA@ 100fb944     interop.obj
 0002:0000994c       ??_C@_06POMMAHJK@opcode?$AA@ 100fb94c     interop.obj
 0002:00009954       ??_C@_02JCBCEJAP@p1?$AA@   100fb954     interop.obj
 0002:00009958       ??_C@_02LJDPBKMM@p2?$AA@   100fb958     interop.obj
 0002:0000995c       ??_C@_02KACECLIN@p3?$AA@   100fb95c     interop.obj
 0002:00009960       ??_C@_02OPGFLNEK@p4?$AA@   100fb960     interop.obj
 0002:00009964       ??_C@_02PGHOIMAL@p5?$AA@   100fb964     interop.obj
 0002:00009968       ??_C@_07GJGNEJFD@comment?$AA@ 100fb968     interop.obj
 0002:00009970       ??_C@_07LFMECGGB@notused?$AA@ 100fb970     interop.obj
 0002:00009978       ??_C@_06EENFNEPD@detail?$AA@ 100fb978     interop.obj
 0002:00009980       ??_C@_0CM@LOMFMKCH@unknown?5or?5unsupported?5join?5type@ 100fb980     interop.obj
 0002:000099ac       ??_C@_0DH@LJEHIDDA@RIGHT?5and?5FULL?5OUTER?5JOINs?5are?5n@ 100fb9ac     interop.obj
 0002:000099e4       ??_C@_0DC@NBGJANJH@a?5NATURAL?5join?5may?5not?5have?5an?5O@ 100fb9e4     interop.obj
 0002:00009a18       ??_C@_0DH@DHMOHNCE@cannot?5have?5both?5ON?5and?5USING?5cl@ 100fba18     interop.obj
 0002:00009a50       ??_C@_0EA@LFCKDDII@cannot?5join?5using?5column?5?$CFs?5?9?5co@ 100fba50     interop.obj
 0002:00009a90       ??_C@_09CDPONBKL@UNION?5ALL?$AA@ 100fba90     interop.obj
 0002:00009a9c       ??_C@_09JBOBNLLF@INTERSECT?$AA@ 100fba9c     interop.obj
 0002:00009aa8       ??_C@_06JFIPMMLD@EXCEPT?$AA@ 100fbaa8     interop.obj
 0002:00009ab0       ??_C@_05GJNJOPB@UNION?$AA@ 100fbab0     interop.obj
 0002:00009ab8       ??_C@_0BH@JCGMDKCI@USE?5TEMP?5B?9TREE?5FOR?5?$CFs?$AA@ 100fbab8     interop.obj
 0002:00009ad0       ??_C@_08OHGGEHKA@column?$CFd?$AA@ 100fbad0     interop.obj
 0002:00009adc       ??_C@_07FCMEMBCG@?$CF?4?$CKz?3?$CFu?$AA@ 100fbadc     interop.obj
 0002:00009ae4       ??_C@_05MAJHNKMG@SETUP?$AA@ 100fbae4     interop.obj
 0002:00009aec       ??_C@_0CK@HHBJKMKL@recursive?5aggregate?5queries?5not?5@ 100fbaec     interop.obj
 0002:00009b18       ??_C@_0P@BKJGJGJE@RECURSIVE?5STEP?$AA@ 100fbb18     interop.obj
 0002:00009b28       ??_C@_01CPLAODJH@S?$AA@    100fbb28     interop.obj
 0002:00009b2c       ??_C@_0BH@EFPFBELE@SCAN?5?$CFd?5CONSTANT?5ROW?$CFs?$AA@ 100fbb2c     interop.obj
 0002:00009b44       ??_C@_08BKIJJFKP@ORDER?5BY?$AA@ 100fbb44     interop.obj
 0002:00009b50       ??_C@_05KLKGAAIM@LIMIT?$AA@ 100fbb50     interop.obj
 0002:00009b58       ??_C@_0CK@PJFEEKBP@?$CFs?5clause?5should?5come?5after?5?$CFs?5n@ 100fbb58     interop.obj
 0002:00009b84       ??_C@_0P@NDEAKHNM@COMPOUND?5QUERY?$AA@ 100fbb84     interop.obj
 0002:00009b94       ??_C@_0BD@PONGOMAP@LEFT?9MOST?5SUBQUERY?$AA@ 100fbb94     interop.obj
 0002:00009ba8       ??_C@_0BF@IPENMMAK@?$CFs?5USING?5TEMP?5B?9TREE?$AA@ 100fbba8     interop.obj
 0002:00009bc0       ??_C@_0CO@DAHFDIDO@all?5VALUES?5must?5have?5the?5same?5nu@ 100fbbc0     interop.obj
 0002:00009bf0       ??_C@_0FC@CMDCIIHA@SELECTs?5to?5the?5left?5and?5right?5of@ 100fbbf0     interop.obj
 0002:00009c44       ??_C@_0L@OLPIFJNI@MERGE?5?$CI?$CFs?$CJ?$AA@ 100fbc44     interop.obj
 0002:00009c50       ??_C@_04KCNEHMIH@LEFT?$AA@ 100fbc50     interop.obj
 0002:00009c58       ??_C@_05PMAFOJDE@RIGHT?$AA@ 100fbc58     interop.obj
 0002:00009c60       ??_C@_0BC@EHGCNIF@no?5such?5index?3?5?$CFs?$AA@ 100fbc60     interop.obj
 0002:00009c74       ??_C@_0BH@COPFJELM@?8?$CFs?8?5is?5not?5a?5function?$AA@ 100fbc74     interop.obj
 0002:00009c8c       ??_C@_0CL@CKHNGNG@multiple?5references?5to?5recursive@ 100fbc8c     interop.obj
 0002:00009cb8       ??_C@_0BH@IJPFMMLM@circular?5reference?3?5?$CFs?$AA@ 100fbcb8     interop.obj
 0002:00009cd0       ??_C@_0CG@GEPIMHHM@table?5?$CFs?5has?5?$CFd?5values?5for?5?$CFd?5co@ 100fbcd0     interop.obj
 0002:00009cf8       ??_C@_0CC@BILCKNBO@multiple?5recursive?5references?3?5?$CF@ 100fbcf8     interop.obj
 0002:00009d1c       ??_C@_0CG@CINNECCN@recursive?5reference?5in?5a?5subquer@ 100fbd1c     interop.obj
 0002:00009d44       ??_C@_0M@GHIAKHDF@subquery_?$CFp?$AA@ 100fbd44     interop.obj
 0002:00009d50       ??_C@_0CH@HMBFCKPN@too?5many?5references?5to?5?$CC?$CFs?$CC?3?5max@ 100fbd50     interop.obj
 0002:00009d78       ??_C@_01NBENCBCI@?$CK?$AA@ 100fbd78     interop.obj
 0002:00009d7c       ??_C@_08PPKHIAKG@?$CFs?4?$CFs?4?$CFs?$AA@ 100fbd7c     interop.obj
 0002:00009d88       ??_C@_0BC@OFCALFBN@no?5such?5table?3?5?$CFs?$AA@ 100fbd88     interop.obj
 0002:00009d9c       ??_C@_0BE@EGLAAHPP@no?5tables?5specified?$AA@ 100fbd9c     interop.obj
 0002:00009db0       ??_C@_0BP@JFMLENOH@too?5many?5columns?5in?5result?5set?$AA@ 100fbdb0     interop.obj
 0002:00009dd0       ??_C@_0DD@MKKFPBAF@DISTINCT?5aggregates?5must?5have?5ex@ 100fbdd0     interop.obj
 0002:00009e04       ??_C@_0BH@EIOOLNKK@?5USING?5COVERING?5INDEX?5?$AA@ 100fbe04     interop.obj
 0002:00009e1c       ??_C@_0BC@NNECCOGJ@SCAN?5TABLE?5?$CFs?$CFs?$CFs?$AA@ 100fbe1c     interop.obj
 0002:00009e30       ??_C@_0CI@GMLFBPGG@expected?5?$CFd?5columns?5for?5?8?$CFs?8?5but@ 100fbe30     interop.obj
 0002:00009e58       ??_C@_0BA@CDICEMEN@CO?9ROUTINE?50x?$CFp?$AA@ 100fbe58     interop.obj
 0002:00009e68       ??_C@_0BB@NGAGFBOK@MATERIALIZE?50x?$CFp?$AA@ 100fbe68     interop.obj
 0002:00009e7c       ??_C@_08KLFLGHKI@DISTINCT?$AA@ 100fbe7c     interop.obj
 0002:00009e88       ??_C@_08NKEADCLG@GROUP?5BY?$AA@ 100fbe88     interop.obj
 0002:00009e94       ??_C@_0BH@IOPKGOOF@RIGHT?5PART?5OF?5ORDER?5BY?$AA@ 100fbe94     interop.obj
 0002:00009eb0       ??_C@_0EB@PHGCKHIG@sqlite3_get_table?$CI?$CJ?5called?5with?5@ 100fbeb0     interop.obj
 0002:00009ef4       ??_C@_0CO@CGGBEMGD@temporary?5trigger?5may?5not?5have?5q@ 100fbef4     interop.obj
 0002:00009f24       ??_C@_07DIDNFGDE@trigger?$AA@ 100fbf24     interop.obj
 0002:00009f2c       ??_C@_0CJ@KLDCMPKB@cannot?5create?5triggers?5on?5virtua@ 100fbf2c     interop.obj
 0002:00009f58       ??_C@_0BK@IACDKJFA@trigger?5?$CFT?5already?5exists?$AA@ 100fbf58     interop.obj
 0002:00009f74       ??_C@_0CG@JAGCNIHD@cannot?5create?5trigger?5on?5system?5@ 100fbf74     interop.obj
 0002:00009f9c       ??_C@_06BIGAHLBC@BEFORE?$AA@ 100fbf9c     interop.obj
 0002:00009fa4       ??_C@_05OHDJMCHE@AFTER?$AA@ 100fbfa4     interop.obj
 0002:00009fac       ??_C@_0CF@CNPIEMED@cannot?5create?5?$CFs?5trigger?5on?5view@ 100fbfac     interop.obj
 0002:00009fd4       ??_C@_0CO@GJNALGCE@cannot?5create?5INSTEAD?5OF?5trigger@ 100fbfd4     interop.obj
 0002:0000a008       ??_C@_0EA@IJNEMIHP@INSERT?5INTO?5?$CFQ?4?$CFs?5VALUES?$CI?8trigge@ 100fc008     interop.obj
 0002:0000a048       ??_C@_0BN@JFPIJHCG@type?$DN?8trigger?8?5AND?5name?$DN?8?$CFq?8?$AA@ 100fc048     interop.obj
 0002:0000a068       ??_C@_0BE@ELCABEID@no?5such?5trigger?3?5?$CFS?$AA@ 100fc068     interop.obj
 0002:0000a07c       ??_C@_0DD@OCMFALEA@DELETE?5FROM?5?$CFQ?4?$CFs?5WHERE?5name?$DN?$CFQ?5@ 100fc07c     interop.obj
 0002:0000a0b0       ??_C@_0O@JKBKLFDA@?9?9?5TRIGGER?5?$CFs?$AA@ 100fc0b0     interop.obj
 0002:0000a0c0       ??_C@_0BD@IEIMFPKF@no?5such?5column?3?5?$CFs?$AA@ 100fc0c0     interop.obj
 0002:0000a0d4       ??_C@_0N@KMEMLEEO@rows?5updated?$AA@ 100fc0d4     interop.obj
 0002:0000a0e8       ??_C@_0EH@DELCAKGM@ON?5CONFLICT?5clause?5does?5not?5matc@ 100fc0e8     interop.obj
 0002:0000a130       ??_C@_03LFCMJGKO@CRE?$AA@  100fc130     interop.obj
 0002:0000a134       ??_C@_03NDDFJJAJ@INS?$AA@  100fc134     interop.obj
 0002:0000a138       ??_C@_0CI@CPMJIPOI@cannot?5VACUUM?5from?5within?5a?5tran@ 100fc138     interop.obj
 0002:0000a160       ??_C@_0CL@HKLPPLKM@cannot?5VACUUM?5?9?5SQL?5statements?5i@ 100fc160     interop.obj
 0002:0000a18c       ??_C@_0BF@IBNJBCD@ATTACH?8?8AS?5vacuum_db?$AA@ 100fc18c     interop.obj
 0002:0000a1a8       ??_C@_0GM@GOHMCDJN@SELECT?5sql?5FROM?5?$CC?$CFw?$CC?4sqlite_mast@ 100fc1a8     interop.obj
 0002:0000a214       ??_C@_0DG@HPCMAOFP@SELECT?5sql?5FROM?5?$CC?$CFw?$CC?4sqlite_mast@ 100fc214     interop.obj
 0002:0000a250       ??_C@_0JH@HEHPCDOG@SELECT?8INSERT?5INTO?5vacuum_db?4?8?$HM?$HM@ 100fc250     interop.obj
 0002:0000a2e8       ??_C@_0IC@HHOGFJCL@INSERT?5INTO?5vacuum_db?4sqlite_mas@ 100fc2e8     interop.obj
 0002:0000a36c       ??_C@_0BI@PDMEEOA@CREATE?5VIRTUAL?5TABLE?5?$CFT?$AA@ 100fc36c     interop.obj
 0002:0000a388       ??_C@_0FI@IFIJAFLJ@UPDATE?5?$CFQ?4?$CFs?5SET?5type?$DN?8table?8?0?5n@ 100fc388     interop.obj
 0002:0000a3e0       ??_C@_0BL@DGMACLBE@name?$DN?8?$CFq?8?5AND?5type?$DN?8table?8?$AA@ 100fc3e0     interop.obj
 0002:0000a3fc       ??_C@_0CK@JFGPKPML@vtable?5constructor?5called?5recurs@ 100fc3fc     interop.obj
 0002:0000a428       ??_C@_0BO@DEKEKMPI@vtable?5constructor?5failed?3?5?$CFs?$AA@ 100fc428     interop.obj
 0002:0000a448       ??_C@_0CO@NAIIFAKI@vtable?5constructor?5did?5not?5decla@ 100fc448     interop.obj
 0002:0000a478       ??_C@_06JIKFICKK@hidden?$AA@ 100fc478     interop.obj
 0002:0000a480       ??_C@_0BD@KBJCCNMM@no?5such?5module?3?5?$CFs?$AA@ 100fc480     interop.obj
 0002:0000a494       ??_C@_06OBEENNJP@?$DMexpr?$DO?$AA@ 100fc494     interop.obj
 0002:0000a49c       ??_C@_05LFNOAECD@?5AND?5?$AA@ 100fc49c     interop.obj
 0002:0000a4a4       ??_C@_01ODHLEDKK@?$CI?$AA@ 100fc4a4     interop.obj
 0002:0000a4a8       ??_C@_02GFKOMOKH@?5?$CI?$AA@ 100fc4a8     interop.obj
 0002:0000a4ac       ??_C@_04DNBLPLBL@?$CFs?$DN?$DP?$AA@ 100fc4ac     interop.obj
 0002:0000a4b4       ??_C@_07DEPDMHNF@ANY?$CI?$CFs?$CJ?$AA@ 100fc4b4     interop.obj
 0002:0000a4bc       ??_C@_01PPODPGHN@?$DO?$AA@ 100fc4bc     interop.obj
 0002:0000a4c0       ??_C@_01MNNFJEPP@?$DM?$AA@ 100fc4c0     interop.obj
 0002:0000a4c4       ??_C@_06GBNAAIDA@SEARCH?$AA@ 100fc4c4     interop.obj
 0002:0000a4cc       ??_C@_04NAGNMPFG@SCAN?$AA@ 100fc4cc     interop.obj
 0002:0000a4d4       ??_C@_0P@PJIHBIIM@?5SUBQUERY?50x?$CFp?$AA@ 100fc4d4     interop.obj
 0002:0000a4e4       ??_C@_09DIBKDOCO@?5TABLE?5?$CFs?$AA@ 100fc4e4     interop.obj
 0002:0000a4f0       ??_C@_06IMDPHEMP@?5AS?5?$CFs?$AA@ 100fc4f0     interop.obj
 0002:0000a4f8       ??_C@_0M@DPPBPFJP@PRIMARY?5KEY?$AA@ 100fc4f8     interop.obj
 0002:0000a504       ??_C@_0CB@HEDLDBJB@AUTOMATIC?5PARTIAL?5COVERING?5INDEX@ 100fc504     interop.obj
 0002:0000a528       ??_C@_0BJ@OBMPNMAB@AUTOMATIC?5COVERING?5INDEX?$AA@ 100fc528     interop.obj
 0002:0000a544       ??_C@_0BC@JHKMHKPK@COVERING?5INDEX?5?$CFs?$AA@ 100fc544     interop.obj
 0002:0000a558       ??_C@_08CKMEMBGN@INDEX?5?$CFs?$AA@ 100fc558     interop.obj
 0002:0000a564       ??_C@_07FGCFFEFI@?5USING?5?$AA@ 100fc564     interop.obj
 0002:0000a56c       ??_C@_01NEMOKFLO@?$DN?$AA@ 100fc56c     interop.obj
 0002:0000a570       ??_C@_0O@CICIFHFH@?$DO?$DP?5AND?5rowid?$DM?$AA@ 100fc570     interop.obj
 0002:0000a580       ??_C@_0CG@OJDGGIHC@?5USING?5INTEGER?5PRIMARY?5KEY?5?$CIrowi@ 100fc580     interop.obj
 0002:0000a5a8       ??_C@_0BL@NFGDLEEC@?5VIRTUAL?5TABLE?5INDEX?5?$CFd?3?$CFs?$AA@ 100fc5a8     interop.obj
 0002:0000a5c4       ??_C@_0P@EIHAMHJJ@MULTI?9INDEX?5OR?$AA@ 100fc5c4     interop.obj
 0002:0000a5d4       ??_C@_06BDGKJDBI@regexp?$AA@ 100fc5d4     interop.obj
 0002:0000a5dc       ??_C@_0CJ@DOAPMDLM@ON?5clause?5references?5tables?5to?5i@ 100fc5dc     interop.obj
 0002:0000a608       ??_C@_06FHKGKAHE@NOCASE?$AA@ 100fc608     interop.obj
 0002:0000a610       ??_C@_0CE@MBDKDMPE@too?5many?5arguments?5on?5?$CFs?$CI?$CJ?5?9?5max@ 100fc610     interop.obj
 0002:0000a634       ??_C@_0BK@FFCJJLEP@automatic?5index?5on?5?$CFs?$CI?$CFs?$CJ?$AA@ 100fc634     interop.obj
 0002:0000a650       ??_C@_0L@LOLDMHK@auto?9index?$AA@ 100fc650     interop.obj
 0002:0000a65c       ??_C@_0BK@BDHGLICJ@?$CFs?4xBestIndex?5malfunction?$AA@ 100fc65c     interop.obj
 0002:0000a678       ??_C@_0BC@CBDLPDHH@no?5query?5solution?$AA@ 100fc678     interop.obj
 0002:0000a68c       ??_C@_0BM@BLDEAGOK@at?5most?5?$CFd?5tables?5in?5a?5join?$AA@ 100fc68c     interop.obj
 0002:0000a6a8       ??_C@_0BC@HBJMCGKK@SCAN?5CONSTANT?5ROW?$AA@ 100fc6a8     interop.obj
 0002:0000a6bc       ??_C@_0CC@DHLFNDIF@too?5many?5terms?5in?5compound?5SELEC@ 100fc6bc     interop.obj
 0002:0000a6e0       ??_C@_0CG@KKIPIFCN@syntax?5error?5after?5column?5name?5?$CC@ 100fc6e0     interop.obj
 0002:0000a708       ??_C@_0BG@FMAEELCM@parser?5stack?5overflow?$AA@ 100fc708     interop.obj
 0002:0000a720       ??_C@_0BL@DBADNDMB@unknown?5table?5option?3?5?$CF?4?$CKs?$AA@ 100fc720     interop.obj
 0002:0000a73c       ??_C@_08FAFAADKO@set?5list?$AA@ 100fc73c     interop.obj
 0002:0000a748       ??_C@_0BI@CBJKLAIG@near?5?$CC?$CFT?$CC?3?5syntax?5error?$AA@ 100fc748     interop.obj
 0002:0000a760       ??_C@_0CC@BHLMPGNH@too?5many?5arguments?5on?5function?5?$CF@ 100fc760     interop.obj
 0002:0000a788       ??_C@_0FP@BDHEAEAL@qualified?5table?5names?5are?5not?5al@ 100fc788     interop.obj
 0002:0000a7e8       ??_C@_0FE@ONDNFGPP@the?5INDEXED?5BY?5clause?5is?5not?5all@ 100fc7e8     interop.obj
 0002:0000a840       ??_C@_0FF@IPEGLKPG@the?5NOT?5INDEXED?5clause?5is?5not?5al@ 100fc840     interop.obj
 0002:0000a898       ??_C@_0BB@DFEJGGBG@incomplete?5input?$AA@ 100fc898     interop.obj
 0002:0000a8ac       ??_C@_0BL@EHMGGKMK@unrecognized?5token?3?5?$CC?$CF?4?$CKs?$CC?$AA@ 100fc8ac     interop.obj
 0002:0000a8c8       ??_C@_06HBNONAG@create?$AA@ 100fc8c8     interop.obj
 0002:0000a8d0       ??_C@_04FGEHGIFJ@temp?$AA@ 100fc8d0     interop.obj
 0002:0000a8d8       ??_C@_09CAHPDAG@temporary?$AA@ 100fc8d8     interop.obj
 0002:0000a8e4       ??_C@_03JBJLGPFL@end?$AA@  100fc8e4     interop.obj
 0002:0000a8e8       ??_C@_07LFFDKBGI@explain?$AA@ 100fc8e8     interop.obj
 0002:0000a8f0       ??_C@_0EE@DHFGJPIC@unable?5to?5close?5due?5to?5unfinaliz@ 100fc8f0     interop.obj
 0002:0000a934       ??_C@_0N@FKKFHCIB@not?5an?5error?$AA@ 100fc934     interop.obj
 0002:0000a944       ??_C@_0BA@OFEMPNLC@SQL?5logic?5error?$AA@ 100fc944     interop.obj
 0002:0000a954       ??_C@_0BJ@OFHFLJKH@access?5permission?5denied?$AA@ 100fc954     interop.obj
 0002:0000a970       ??_C@_0O@LBOFKECN@query?5aborted?$AA@ 100fc970     interop.obj
 0002:0000a980       ??_C@_0BD@DAAAMHOI@database?5is?5locked?$AA@ 100fc980     interop.obj
 0002:0000a994       ??_C@_0BJ@DNPONIEG@database?5table?5is?5locked?$AA@ 100fc994     interop.obj
 0002:0000a9b0       ??_C@_0CF@JBLJEMGC@attempt?5to?5write?5a?5readonly?5data@ 100fc9b0     interop.obj
 0002:0000a9d8       ??_C@_0M@EGEKIIMP@interrupted?$AA@ 100fc9d8     interop.obj
 0002:0000a9e4       ??_C@_0P@FOPPKBJH@disk?5I?1O?5error?$AA@ 100fc9e4     interop.obj
 0002:0000a9f4       ??_C@_0CB@ONDDCPGK@database?5disk?5image?5is?5malformed@ 100fc9f4     interop.obj
 0002:0000aa18       ??_C@_0BC@BDMDPLFD@unknown?5operation?$AA@ 100fca18     interop.obj
 0002:0000aa2c       ??_C@_0BJ@GDNBBAEL@database?5or?5disk?5is?5full?$AA@ 100fca2c     interop.obj
 0002:0000aa48       ??_C@_0BN@JLONMGIA@unable?5to?5open?5database?5file?$AA@ 100fca48     interop.obj
 0002:0000aa68       ??_C@_0BB@MCPOJJBB@locking?5protocol?$AA@ 100fca68     interop.obj
 0002:0000aa7c       ??_C@_0BC@IFKPGMGK@constraint?5failed?$AA@ 100fca7c     interop.obj
 0002:0000aa90       ??_C@_0BC@FILINGOB@datatype?5mismatch?$AA@ 100fca90     interop.obj
 0002:0000aaa4       ??_C@_0CC@NEIAIHCA@bad?5parameter?5or?5other?5API?5misus@ 100fcaa4     interop.obj
 0002:0000aac8       ??_C@_0BF@LMCDAPDN@authorization?5denied?$AA@ 100fcac8     interop.obj
 0002:0000aae0       ??_C@_0BK@EKHAENGG@column?5index?5out?5of?5range?$AA@ 100fcae0     interop.obj
 0002:0000aafc       ??_C@_0BH@ODJKAGAJ@file?5is?5not?5a?5database?$AA@ 100fcafc     interop.obj
 0002:0000ab14       ??_C@_0BF@JHPLPFEO@notification?5message?$AA@ 100fcb14     interop.obj
 0002:0000ab2c       ??_C@_0BA@EELFFHLP@warning?5message?$AA@ 100fcb2c     interop.obj
 0002:0000ab3c       ??_C@_0O@BFJCFAAK@unknown?5error?$AA@ 100fcb3c     interop.obj
 0002:0000ab4c       ??_C@_0BG@MJDEINHO@abort?5due?5to?5ROLLBACK?$AA@ 100fcb4c     interop.obj
 0002:0000ab64       ??_C@_0BG@IPBFEGEP@another?5row?5available?$AA@ 100fcb64     interop.obj
 0002:0000ab7c       ??_C@_0BH@EJKNDPLI@no?5more?5rows?5available?$AA@ 100fcb7c     interop.obj
 0002:0000ab94       ??_C@_0DP@BDIELDAF@unable?5to?5delete?1modify?5user?9fun@ 100fcb94     interop.obj
 0002:0000abd4       ??_C@_0DD@BOPMNMAO@unable?5to?5use?5function?5?$CFs?5in?5the@ 100fcbd4     interop.obj
 0002:0000ac08       ??_C@_0BF@HAJMIPDB@unknown?5database?3?5?$CFs?$AA@ 100fcc08     interop.obj
 0002:0000ac20       ??_C@_0EE@IKACNBHK@unable?5to?5delete?1modify?5collatio@ 100fcc20     interop.obj
 0002:0000ac64       ??_C@_0BM@COJKMEBB@invalid?5uri?5authority?3?5?$CF?4?$CKs?$AA@ 100fcc64     interop.obj
 0002:0000ac80       ??_C@_05BDNCCAMC@cache?$AA@ 100fcc80     interop.obj
 0002:0000ac88       ??_C@_06HBFNPGIC@shared?$AA@ 100fcc88     interop.obj
 0002:0000ac90       ??_C@_07NMPLPEPB@private?$AA@ 100fcc90     interop.obj
 0002:0000ac98       ??_C@_04GMGOKAFF@mode?$AA@ 100fcc98     interop.obj
 0002:0000aca0       ??_C@_02LFKOONLL@ro?$AA@   100fcca0     interop.obj
 0002:0000aca4       ??_C@_02DHLFHFOC@rw?$AA@   100fcca4     interop.obj
 0002:0000aca8       ??_C@_03ODAOEF@rwc?$AA@    100fcca8     interop.obj
 0002:0000acac       ??_C@_06EBPNOMLE@access?$AA@ 100fccac     interop.obj
 0002:0000acb4       ??_C@_0BE@CEDEHNFE@no?5such?5?$CFs?5mode?3?5?$CFs?$AA@ 100fccb4     interop.obj
 0002:0000acc8       ??_C@_0BI@PGEAHBFI@?$CFs?5mode?5not?5allowed?3?5?$CFs?$AA@ 100fccc8     interop.obj
 0002:0000ace0       ??_C@_0BA@JNKNNOBA@no?5such?5vfs?3?5?$CFs?$AA@ 100fcce0     interop.obj
 0002:0000acf0       ??_C@_05JJHANOIF@RTRIM?$AA@ 100fccf0     interop.obj
 0002:0000acf8       ??_C@_02LOCGON@?$AA?$AA?$AA@ 100fccf8     interop.obj
 0002:0000acfc       ??_C@_0BJ@ICCNDDFO@?$CFs?5at?5line?5?$CFd?5of?5?$FL?$CF?410s?$FN?$AA@ 100fccfc     interop.obj
 0002:0000ad18       ??_C@_0BE@FNOILMBA@database?5corruption?$AA@ 100fcd18     interop.obj
 0002:0000ad2c       ??_C@_06LKHNAGM@misuse?$AA@ 100fcd2c     interop.obj
 0002:0000ad34       ??_C@_0BB@HMGEDEGN@cannot?5open?5file?$AA@ 100fcd34     interop.obj
 0002:0000ad48       ??_C@_0BM@OILBPENI@no?5such?5table?5column?3?5?$CFs?4?$CFs?$AA@ 100fcd48     interop.obj
 0002:0000ad64       ??_C@_07OGLCFANK@SQLITE_?$AA@ 100fcd64     interop.obj
 0002:0000ad6c       ??_C@_0CF@JMBAPJDM@DROP?5TABLE?5IF?5EXISTS?5?$CFQ?4?8?$CFq_cont@ 100fcd6c     interop.obj
 0002:0000ad94       ??_C@_0CG@MBAKJBDH@DROP?5TABLE?5IF?5EXISTS?5?$CFQ?4?8?$CFq_segm@ 100fcd94     interop.obj
 0002:0000adbc       ??_C@_0CE@ONKNGDLL@DROP?5TABLE?5IF?5EXISTS?5?$CFQ?4?8?$CFq_segd@ 100fcdbc     interop.obj
 0002:0000ade0       ??_C@_0CF@IDMMCBAD@DROP?5TABLE?5IF?5EXISTS?5?$CFQ?4?8?$CFq_docs@ 100fcde0     interop.obj
 0002:0000ae08       ??_C@_0CC@IOIKPJHP@DROP?5TABLE?5IF?5EXISTS?5?$CFQ?4?8?$CFq_stat@ 100fce08     interop.obj
 0002:0000ae2c       ??_C@_08HBMBCGGI@__langid?$AA@ 100fce2c     interop.obj
 0002:0000ae38       ??_C@_04OHJOFLHH@?$CFQ?0?5?$AA@ 100fce38     interop.obj
 0002:0000ae40       ??_C@_06ILOMELII@?$CFz?$CFQ?0?5?$AA@ 100fce40     interop.obj
 0002:0000ae48       ??_C@_0DG@KNNCMIAK@CREATE?5TABLE?5x?$CI?$CFs?5?$CFQ?5HIDDEN?0?5doc@ 100fce48     interop.obj
 0002:0000ae80       ??_C@_0EN@BNJDGKOP@CREATE?5TABLE?5IF?5NOT?5EXISTS?5?$CFQ?4?8?$CF@ 100fce80     interop.obj
 0002:0000aed0       ??_C@_0BK@ILPNCKDD@docid?5INTEGER?5PRIMARY?5KEY?$AA@ 100fced0     interop.obj
 0002:0000aeec       ??_C@_0M@KFIBGJMD@?$CFz?0?5?8c?$CFd?$CFq?8?$AA@ 100fceec     interop.obj
 0002:0000aef8       ??_C@_0L@FGLBMJMC@?$CFz?0?5langid?$AA@ 100fcef8     interop.obj
 0002:0000af04       ??_C@_0CB@GGGOGPJJ@CREATE?5TABLE?5?$CFQ?4?8?$CFq_content?8?$CI?$CFs?$CJ@ 100fcf04     interop.obj
 0002:0000af28       ??_C@_0EI@JJJNEMPK@CREATE?5TABLE?5?$CFQ?4?8?$CFq_segments?8?$CIbl@ 100fcf28     interop.obj
 0002:0000af70       ??_C@_0JJ@EINNGPFL@CREATE?5TABLE?5?$CFQ?4?8?$CFq_segdir?8?$CIleve@ 100fcf70     interop.obj
 0002:0000b010       ??_C@_0EE@MDIIHKIJ@CREATE?5TABLE?5?$CFQ?4?8?$CFq_docsize?8?$CIdoc@ 100fd010     interop.obj
 0002:0000b054       ??_C@_0BE@JJENHHFJ@PRAGMA?5?$CFQ?4page_size?$AA@ 100fd054     interop.obj
 0002:0000b068       ??_C@_05KJDOPFGN@docid?$AA@ 100fd068     interop.obj
 0002:0000b070       ??_C@_0P@LFFPPLAI@?0?$CFs?$CIx?4?8c?$CFd?$CFq?8?$CJ?$AA@ 100fd070     interop.obj
 0002:0000b080       ??_C@_06CLEJICHF@langid?$AA@ 100fd080     interop.obj
 0002:0000b088       ??_C@_06HJELONEC@?0?5x?4?$CFQ?$AA@ 100fd088     interop.obj
 0002:0000b090       ??_C@_08NJPBOKA@?0?5x?4?8?$CFq?8?$AA@ 100fd090     interop.obj
 0002:0000b09c       ??_C@_08KMMJILGO@_content?$AA@ 100fd09c     interop.obj
 0002:0000b0a8       ??_C@_0BH@DJGBFAID@?5FROM?5?8?$CFq?8?4?8?$CFq?$CFs?8?5AS?5x?$AA@ 100fd0a8     interop.obj
 0002:0000b0c0       ??_C@_06INGKMHGE@?0?$CFs?$CI?$DP?$CJ?$AA@ 100fd0c0     interop.obj
 0002:0000b0c8       ??_C@_03FEMMFMLJ@?0?5?$DP?$AA@ 100fd0c8     interop.obj
 0002:0000b0cc       ??_C@_0BE@NJEPGLOD@SELECT?5?$CK?5FROM?5?$CFQ?4?$CFQ?$AA@ 100fd0cc     interop.obj
 0002:0000b0e0       ??_C@_08ENDKEOKI@tokenize?$AA@ 100fd0e0     interop.obj
 0002:0000b0ec       ??_C@_09OEHDJMHN@matchinfo?$AA@ 100fd0ec     interop.obj
 0002:0000b0f8       ??_C@_06CHGOAPND@prefix?$AA@ 100fd0f8     interop.obj
 0002:0000b100       ??_C@_08EJNPIMGB@compress?$AA@ 100fd100     interop.obj
 0002:0000b10c       ??_C@_0L@IEAKODFB@uncompress?$AA@ 100fd10c     interop.obj
 0002:0000b118       ??_C@_05NDNMCCJH@order?$AA@ 100fd118     interop.obj
 0002:0000b120       ??_C@_07ICAJMOAO@content?$AA@ 100fd120     interop.obj
 0002:0000b128       ??_C@_0L@KCJJAHCF@languageid?$AA@ 100fd128     interop.obj
 0002:0000b134       ??_C@_0L@CMOFCIEL@notindexed?$AA@ 100fd134     interop.obj
 0002:0000b140       ??_C@_04GJCOAOPN@fts3?$AA@ 100fd140     interop.obj
 0002:0000b148       ??_C@_0BL@LGOAFHOC@unrecognized?5matchinfo?3?5?$CFs?$AA@ 100fd148     interop.obj
 0002:0000b164       ??_C@_03EFEGFOOI@asc?$AA@  100fd164     interop.obj
 0002:0000b168       ??_C@_0BH@DEFIELBN@unrecognized?5order?3?5?$CFs?$AA@ 100fd168     interop.obj
 0002:0000b180       ??_C@_0BL@LDDPBJJP@unrecognized?5parameter?3?5?$CFs?$AA@ 100fd180     interop.obj
 0002:0000b19c       ??_C@_06MDDCAKGD@simple?$AA@ 100fd19c     interop.obj
 0002:0000b1a4       ??_C@_0CD@HIKDEBHJ@error?5parsing?5prefix?5parameter?3?5@ 100fd1a4     interop.obj
 0002:0000b1c8       ??_C@_0CJ@LIAMDBLK@missing?5?$CFs?5parameter?5in?5fts4?5con@ 100fd1c8     interop.obj
 0002:0000b1f4       ??_C@_04INMKNCEL@DESC?$AA@ 100fd1f4     interop.obj
 0002:0000b1fc       ??_C@_03EILNJDJE@ASC?$AA@  100fd1fc     interop.obj
 0002:0000b200       ??_C@_0BK@DAHJKJOI@SELECT?5?$CFs?5WHERE?5rowid?5?$DN?5?$DP?$AA@ 100fd200     interop.obj
 0002:0000b21c       ??_C@_0DO@PMGJMNHJ@SELECT?5?$CFs?5WHERE?5rowid?5BETWEEN?5?$CFl@ 100fd21c     interop.obj
 0002:0000b25c       ??_C@_0BM@EFGHBBLP@SELECT?5?$CFs?5ORDER?5BY?5rowid?5?$CFs?$AA@ 100fd25c     interop.obj
 0002:0000b278       ??_C@_0L@FEHMHNLK@fts3cursor?$AA@ 100fd278     interop.obj
 0002:0000b284       ??_C@_07FDHKIMAB@?$CFs_stat?$AA@ 100fd284     interop.obj
 0002:0000b28c       ??_C@_0BN@HNFGPPAE@illegal?5first?5argument?5to?5?$CFs?$AA@ 100fd28c     interop.obj
 0002:0000b2ac       ??_C@_03GONAGDMJ@?$DMb?$DO?$AA@ 100fd2ac     interop.obj
 0002:0000b2b0       ??_C@_04KPMLOGDO@?$DM?1b?$DO?$AA@ 100fd2b0     interop.obj
 0002:0000b2b8       ??_C@_0L@FNCHOAPK@?$DMb?$DO?4?4?4?$DM?1b?$DO?$AA@ 100fd2b8     interop.obj
 0002:0000b2c4       ??_C@_0DA@BPKHEBAA@wrong?5number?5of?5arguments?5to?5fun@ 100fd2c4     interop.obj
 0002:0000b2f4       ??_C@_07NLNCCKKF@snippet?$AA@ 100fd2f4     interop.obj
 0002:0000b2fc       ??_C@_07EALNHAIO@offsets?$AA@ 100fd2fc     interop.obj
 0002:0000b304       ??_C@_0BA@OAEHOEOG@Index?5optimized?$AA@ 100fd304     interop.obj
 0002:0000b314       ??_C@_0BG@LMCLNKNA@Index?5already?5optimal?$AA@ 100fd314     interop.obj
 0002:0000b32c       ??_C@_0DF@DCFHAMLC@ALTER?5TABLE?5?$CFQ?4?8?$CFq_content?8?5?5REN@ 100fd32c     interop.obj
 0002:0000b364       ??_C@_0DF@DCOLKKAO@ALTER?5TABLE?5?$CFQ?4?8?$CFq_docsize?8?5?5REN@ 100fd364     interop.obj
 0002:0000b39c       ??_C@_0CP@CGFDJKNC@ALTER?5TABLE?5?$CFQ?4?8?$CFq_stat?8?5?5RENAME@ 100fd39c     interop.obj
 0002:0000b3cc       ??_C@_0DG@DAAAGDKF@ALTER?5TABLE?5?$CFQ?4?8?$CFq_segments?8?5REN@ 100fd3cc     interop.obj
 0002:0000b404       ??_C@_0DE@LHKMPNFJ@ALTER?5TABLE?5?$CFQ?4?8?$CFq_segdir?8?5?5?5REN@ 100fd404     interop.obj
 0002:0000b438       ??_C@_06EDADNLPO@porter?$AA@ 100fd438     interop.obj
 0002:0000b440       ??_C@_09JCBNJLCI@unicode61?$AA@ 100fd440     interop.obj
 0002:0000b44c       ??_C@_0P@ONNIBBGC@fts3_tokenizer?$AA@ 100fd44c     interop.obj
 0002:0000b45c       ??_C@_04CGGPJIDK@fts4?$AA@ 100fd45c     interop.obj
 0002:0000b468       ??_C@_0EF@OOGFNENA@CREATE?5TABLE?5x?$CIterm?0?5col?0?5docume@ 100fd468     interop.obj
 0002:0000b4b0       ??_C@_0CJ@KNMGIKGK@invalid?5arguments?5to?5fts4aux?5con@ 100fd4b0     interop.obj
 0002:0000b4dc       ??_C@_07HLCPNFJI@fts4aux?$AA@ 100fd4dc     interop.obj
 0002:0000b4e4       ??_C@_02PDPFNDMG@OR?$AA@   100fd4e4     interop.obj
 0002:0000b4e8       ??_C@_03BDACDFHA@AND?$AA@  100fd4e8     interop.obj
 0002:0000b4ec       ??_C@_03GBFNEA@NOT?$AA@    100fd4ec     interop.obj
 0002:0000b4f0       ??_C@_04ILABJOOE@NEAR?$AA@ 100fd4f0     interop.obj
 0002:0000b4f8       ??_C@_0DE@GLAEHGBM@FTS?5expression?5tree?5is?5too?5large@ 100fd4f8     interop.obj
 0002:0000b52c       ??_C@_0CB@FOEJOLMC@malformed?5MATCH?5expression?3?5?$FL?$CFs?$FN@ 100fd52c     interop.obj
 0002:0000b550       ??_C@_02FCBLNKNB@ss?$AA@   100fd550     interop.obj
 0002:0000b554       ??_C@_04NJPCGJPA@sess?$AA@ 100fd554     interop.obj
 0002:0000b55c       ??_C@_01KBJDNOO@i?$AA@     100fd55c     interop.obj
 0002:0000b560       ??_C@_03FNBCPGLE@sei?$AA@  100fd560     interop.obj
 0002:0000b564       ??_C@_02FGCILAME@ee?$AA@   100fd564     interop.obj
 0002:0000b568       ??_C@_03DMGJNGJO@dee?$AA@  100fd568     interop.obj
 0002:0000b56c       ??_C@_03IODMNJJN@gni?$AA@  100fd56c     interop.obj
 0002:0000b570       ??_C@_02FHOKNKPD@de?$AA@   100fd570     interop.obj
 0002:0000b574       ??_C@_03BGFDOPOL@ate?$AA@  100fd574     interop.obj
 0002:0000b578       ??_C@_02CPKALMIH@ta?$AA@   100fd578     interop.obj
 0002:0000b57c       ??_C@_03BGNDLCMN@ble?$AA@  100fd57c     interop.obj
 0002:0000b580       ??_C@_02BGLIBNIM@lb?$AA@   100fd580     interop.obj
 0002:0000b584       ??_C@_03NJHJOKAO@ize?$AA@  100fd584     interop.obj
 0002:0000b588       ??_C@_02ONOHBLIF@zi?$AA@   100fd588     interop.obj
 0002:0000b58c       ??_C@_07HAPEHOGG@lanoita?$AA@ 100fd58c     interop.obj
 0002:0000b594       ??_C@_04MLFEDMFA@tion?$AA@ 100fd594     interop.obj
 0002:0000b59c       ??_C@_06KEDPLIML@lanoit?$AA@ 100fd59c     interop.obj
 0002:0000b5a4       ??_C@_04OBONJKHE@ence?$AA@ 100fd5a4     interop.obj
 0002:0000b5ac       ??_C@_04NOKPDMPL@icne?$AA@ 100fd5ac     interop.obj
 0002:0000b5b4       ??_C@_04BEGNDMLE@ance?$AA@ 100fd5b4     interop.obj
 0002:0000b5bc       ??_C@_04LKMDPJPP@icna?$AA@ 100fd5bc     interop.obj
 0002:0000b5c4       ??_C@_04FLGOIBBE@rezi?$AA@ 100fd5c4     interop.obj
 0002:0000b5cc       ??_C@_04IBMNHKNC@igol?$AA@ 100fd5cc     interop.obj
 0002:0000b5d4       ??_C@_03IOJDKDAL@ilb?$AA@  100fd5d4     interop.obj
 0002:0000b5d8       ??_C@_02IAODKDFB@al?$AA@   100fd5d8     interop.obj
 0002:0000b5dc       ??_C@_04OBCEDNMH@illa?$AA@ 100fd5dc     interop.obj
 0002:0000b5e4       ??_C@_03NLFJHNAK@ent?$AA@  100fd5e4     interop.obj
 0002:0000b5e8       ??_C@_05IDJKNEIB@iltne?$AA@ 100fd5e8     interop.obj
 0002:0000b5f0       ??_C@_01KGKMHCOC@e?$AA@    100fd5f0     interop.obj
 0002:0000b5f4       ??_C@_03MBNCDFMM@ile?$AA@  100fd5f4     interop.obj
 0002:0000b5f8       ??_C@_03OLNGEHDI@ous?$AA@  100fd5f8     interop.obj
 0002:0000b5fc       ??_C@_05PENBEICD@ilsuo?$AA@ 100fd5fc     interop.obj
 0002:0000b604       ??_C@_07GPCIBLIA@noitazi?$AA@ 100fd604     interop.obj
 0002:0000b60c       ??_C@_05OJBPCAJ@noita?$AA@ 100fd60c     interop.obj
 0002:0000b614       ??_C@_04PGJEMGHC@rota?$AA@ 100fd614     interop.obj
 0002:0000b61c       ??_C@_05DPCAAIOM@msila?$AA@ 100fd61c     interop.obj
 0002:0000b624       ??_C@_03NAGDBDGK@ive?$AA@  100fd624     interop.obj
 0002:0000b628       ??_C@_07PDACOIKL@ssenevi?$AA@ 100fd628     interop.obj
 0002:0000b630       ??_C@_03FLIEAGCM@ful?$AA@  100fd630     interop.obj
 0002:0000b634       ??_C@_07LNEAFLH@ssenluf?$AA@ 100fd634     interop.obj
 0002:0000b63c       ??_C@_07NCGMPJDH@ssensuo?$AA@ 100fd63c     interop.obj
 0002:0000b644       ??_C@_05BGJBJGOK@itila?$AA@ 100fd644     interop.obj
 0002:0000b64c       ??_C@_05MPPJDKEE@itivi?$AA@ 100fd64c     interop.obj
 0002:0000b654       ??_C@_06BJBBMCGN@itilib?$AA@ 100fd654     interop.obj
 0002:0000b65c       ??_C@_02JGIOOCG@ic?$AA@    100fd65c     interop.obj
 0002:0000b660       ??_C@_05GHGCLDEL@etaci?$AA@ 100fd660     interop.obj
 0002:0000b668       ??_C@_05JKGPHDJ@evita?$AA@ 100fd668     interop.obj
 0002:0000b670       ??_C@_05NOGDOIPA@ezila?$AA@ 100fd670     interop.obj
 0002:0000b678       ??_C@_05NFBEFLNP@itici?$AA@ 100fd678     interop.obj
 0002:0000b680       ??_C@_04BICLKHFP@laci?$AA@ 100fd680     interop.obj
 0002:0000b688       ??_C@_03MONGAOMC@luf?$AA@  100fd688     interop.obj
 0002:0000b68c       ??_C@_04ELEHNCGN@ssen?$AA@ 100fd68c     interop.obj
 0002:0000b694       ??_C@_05KMPBBIAH@tneme?$AA@ 100fd694     interop.obj
 0002:0000b69c       ??_C@_04HADJNCPM@tnem?$AA@ 100fd69c     interop.obj
 0002:0000b6a4       ??_C@_03GACFGOOA@tne?$AA@  100fd6a4     interop.obj
 0002:0000b6a8       ??_C@_03PCPGPMCA@noi?$AA@  100fd6a8     interop.obj
 0002:0000b6ac       ??_C@_03PNFNLNLI@eta?$AA@  100fd6ac     interop.obj
 0002:0000b6b0       ??_C@_03HPFCIIAI@iti?$AA@  100fd6b0     interop.obj
 0002:0000b6b4       ??_C@_0BH@PMNILKKF@argument?5type?5mismatch?$AA@ 100fd6b4     interop.obj
 0002:0000b6cc       ??_C@_0BG@KNLCJAMI@fts3tokenize?5disabled?$AA@ 100fd6cc     interop.obj
 0002:0000b6e4       ??_C@_0BG@CPKCHLPM@unknown?5tokenizer?3?5?$CFs?$AA@ 100fd6e4     interop.obj
 0002:0000b6fc       ??_C@_0BC@MIGNHNIC@unknown?5tokenizer?$AA@ 100fd6fc     interop.obj
 0002:0000b710       ??_C@_0DD@EDFEHGLO@CREATE?5TABLE?5x?$CIinput?0?5token?0?5sta@ 100fd710     interop.obj
 0002:0000b744       ??_C@_0N@MJBJKOEF@fts3tokenize?$AA@ 100fd744     interop.obj
 0002:0000b754       ??_C@_0CM@CCEIGCNK@DELETE?5FROM?5?$CFQ?4?8?$CFq_content?8?5WHER@ 100fd754     interop.obj
 0002:0000b780       ??_C@_0EE@NIHFGMMI@SELECT?5NOT?5EXISTS?$CISELECT?5docid?5F@ 100fd780     interop.obj
 0002:0000b7c4       ??_C@_0BM@PEBOBMKF@DELETE?5FROM?5?$CFQ?4?8?$CFq_content?8?$AA@ 100fd7c4     interop.obj
 0002:0000b7e0       ??_C@_0BN@EILBLEDC@DELETE?5FROM?5?$CFQ?4?8?$CFq_segments?8?$AA@ 100fd7e0     interop.obj
 0002:0000b800       ??_C@_0BL@DOPLACGJ@DELETE?5FROM?5?$CFQ?4?8?$CFq_segdir?8?$AA@ 100fd800     interop.obj
 0002:0000b81c       ??_C@_0BM@OLMCMEJK@DELETE?5FROM?5?$CFQ?4?8?$CFq_docsize?8?$AA@ 100fd81c     interop.obj
 0002:0000b838       ??_C@_0BJ@HOMEFFOK@DELETE?5FROM?5?$CFQ?4?8?$CFq_stat?8?$AA@ 100fd838     interop.obj
 0002:0000b854       ??_C@_0BI@EHNAAIOC@SELECT?5?$CFs?5WHERE?5rowid?$DN?$DP?$AA@ 100fd854     interop.obj
 0002:0000b870       ??_C@_0EB@JLFIAJAO@SELECT?5?$CISELECT?5max?$CIidx?$CJ?5FROM?5?$CFQ?4@ 100fd870     interop.obj
 0002:0000b8b4       ??_C@_0DL@MFGEIOD@REPLACE?5INTO?5?$CFQ?4?8?$CFq_segments?8?$CIbl@ 100fd8b4     interop.obj
 0002:0000b8f0       ??_C@_0EE@PDNODLPC@SELECT?5coalesce?$CI?$CISELECT?5max?$CIbloc@ 100fd8f0     interop.obj
 0002:0000b934       ??_C@_0DA@CMKKFBOL@REPLACE?5INTO?5?$CFQ?4?8?$CFq_segdir?8?5VALU@ 100fd934     interop.obj
 0002:0000b968       ??_C@_0HA@JJLMMHPL@SELECT?5idx?0?5start_block?0?5leaves_@ 100fd968     interop.obj
 0002:0000b9d8       ??_C@_0IH@CHFFJLEM@SELECT?5idx?0?5start_block?0?5leaves_@ 100fd9d8     interop.obj
 0002:0000ba60       ??_C@_0DE@JFBNLGCM@SELECT?5count?$CI?$CK?$CJ?5FROM?5?$CFQ?4?8?$CFq_segd@ 100fda60     interop.obj
 0002:0000ba98       ??_C@_0EC@NJOFEFNB@SELECT?5max?$CIlevel?$CJ?5FROM?5?$CFQ?4?8?$CFq_se@ 100fda98     interop.obj
 0002:0000badc       ??_C@_0CL@LJFNCCFI@DELETE?5FROM?5?$CFQ?4?8?$CFq_segdir?8?5WHERE@ 100fdadc     interop.obj
 0002:0000bb08       ??_C@_0DL@FMDHOPDD@DELETE?5FROM?5?$CFQ?4?8?$CFq_segments?8?5WHE@ 100fdb08     interop.obj
 0002:0000bb44       ??_C@_0CH@KOJCNEKB@INSERT?5INTO?5?$CFQ?4?8?$CFq_content?8?5VALU@ 100fdb44     interop.obj
 0002:0000bb6c       ??_C@_0CM@JNJGJAMO@DELETE?5FROM?5?$CFQ?4?8?$CFq_docsize?8?5WHER@ 100fdb6c     interop.obj
 0002:0000bb98       ??_C@_0CJ@LFPHJFLB@REPLACE?5INTO?5?$CFQ?4?8?$CFq_docsize?8?5VAL@ 100fdb98     interop.obj
 0002:0000bbc4       ??_C@_0CP@OHAINFIB@SELECT?5size?5FROM?5?$CFQ?4?8?$CFq_docsize?8@ 100fdbc4     interop.obj
 0002:0000bbf4       ??_C@_0CK@NBNCGFLN@SELECT?5value?5FROM?5?$CFQ?4?8?$CFq_stat?8?5W@ 100fdbf4     interop.obj
 0002:0000bc20       ??_C@_0CG@FNKMPDFF@REPLACE?5INTO?5?$CFQ?4?8?$CFq_stat?8?5VALUES@ 100fdc20     interop.obj
 0002:0000bc48       ??_C@_0DH@BCKMOPJL@DELETE?5FROM?5?$CFQ?4?8?$CFq_segdir?8?5WHERE@ 100fdc48     interop.obj
 0002:0000bc80       ??_C@_0DN@PICGLGBK@SELECT?5?$DP?5UNION?5SELECT?5level?5?1?5?$CI1@ 100fdc80     interop.obj
 0002:0000bcc0       ??_C@_0HH@DHCPLDPH@SELECT?5level?0?5count?$CI?$CK?$CJ?5AS?5cnt?5FR@ 100fdcc0     interop.obj
 0002:0000bd38       ??_C@_0GH@DPJIHEGC@SELECT?52?5?$CK?5total?$CI1?5?$CL?5leaves_end_@ 100fdd38     interop.obj
 0002:0000bda0       ??_C@_0DH@DBLDPJEO@DELETE?5FROM?5?$CFQ?4?8?$CFq_segdir?8?5WHERE@ 100fdda0     interop.obj
 0002:0000bdd8       ??_C@_0DK@IIIPEDBM@UPDATE?5?$CFQ?4?8?$CFq_segdir?8?5SET?5idx?5?$DN?5@ 100fddd8     interop.obj
 0002:0000be18       ??_C@_0GL@HMGCAOBI@SELECT?5idx?0?5start_block?0?5leaves_@ 100fde18     interop.obj
 0002:0000be88       ??_C@_0EP@DBFLEABP@UPDATE?5?$CFQ?4?8?$CFq_segdir?8?5SET?5start_@ 100fde88     interop.obj
 0002:0000bed8       ??_C@_0EB@INOOLLID@SELECT?51?5FROM?5?$CFQ?4?8?$CFq_segments?8?5W@ 100fded8     interop.obj
 0002:0000bf1c       ??_C@_0DM@EICDJEDC@SELECT?5idx?5FROM?5?$CFQ?4?8?$CFq_segdir?8?5W@ 100fdf1c     interop.obj
 0002:0000bf58       ??_C@_0DA@ONAEGFD@SELECT?5max?$CI?5level?5?$CF?$CF?51024?5?$CJ?5FROM@ 100fdf58     interop.obj
 0002:0000bf88       ??_C@_0GK@GKICLGAF@SELECT?5level?0?5idx?0?5end_block?5FRO@ 100fdf88     interop.obj
 0002:0000bff8       ??_C@_0EJ@EJCODMCO@UPDATE?5OR?5FAIL?5?$CFQ?4?8?$CFq_segdir?8?5SE@ 100fdff8     interop.obj
 0002:0000c044       ??_C@_0DJ@JFKMPJPN@UPDATE?5OR?5FAIL?5?$CFQ?4?8?$CFq_segdir?8?5SE@ 100fe044     interop.obj
 0002:0000c080       ??_C@_0M@FNPINBNL@?$CFs_segments?$AA@ 100fe080     interop.obj
 0002:0000c08c       ??_C@_05PIBOEKAB@block?$AA@ 100fe08c     interop.obj
 0002:0000c094       ??_C@_09MIMKIBLB@?$CFlld?5?$CFlld?$AA@ 100fe094     interop.obj
 0002:0000c0a0       ??_C@_09GMKLHBDP@SELECT?5?$CFs?$AA@ 100fe0a0     interop.obj
 0002:0000c0ac       ??_C@_07NPFKDALJ@rebuild?$AA@ 100fe0ac     interop.obj
 0002:0000c0b4       ??_C@_0BA@DICCLPBL@integrity?9check?$AA@ 100fe0b4     interop.obj
 0002:0000c0c4       ??_C@_06NBNMKOCN@merge?$DN?$AA@ 100fe0c4     interop.obj
 0002:0000c0cc       ??_C@_0L@CIJOHFF@automerge?$DN?$AA@ 100fe0cc     interop.obj
 0002:0000c0d8       ??_C@_0P@LDDNGGJP@SAVEPOINT?5fts3?$AA@ 100fe0d8     interop.obj
 0002:0000c0e8       ??_C@_0N@MGHAAGPN@RELEASE?5fts3?$AA@ 100fe0e8     interop.obj
 0002:0000c0f8       ??_C@_0BB@FILGCGJ@ROLLBACK?5TO?5fts3?$AA@ 100fe0f8     interop.obj
 0002:0000c10c       ??_C@_0CD@HGBIMAPM@unrecognized?5matchinfo?5request?3?5@ 100fe10c     interop.obj
 0002:0000c130       ??_C@_0N@CAAIIPHA@?$CFd?5?$CFd?5?$CFd?5?$CFd?5?$AA@ 100fe130     interop.obj
 0002:0000c140       ??_C@_03BIPDAGPI@pcx?$AA@  100fe140     interop.obj
 0002:0000c144       ??_C@_0BE@DGBGPKPD@remove_diacritics?$DN1?$AA@ 100fe144     interop.obj
 0002:0000c158       ??_C@_0BE@CPANMLLC@remove_diacritics?$DN0?$AA@ 100fe158     interop.obj
 0002:0000c16c       ??_C@_0M@JNBKBLBC@tokenchars?$DN?$AA@ 100fe16c     interop.obj
 0002:0000c178       ??_C@_0M@POCAMIMG@separators?$DN?$AA@ 100fe178     interop.obj
 0002:0000c184       ??_C@_07BJAAOOFH@?$CFs_node?$AA@ 100fe184     interop.obj
 0002:0000c18c       ??_C@_04PJOLNDGD@data?$AA@ 100fe18c     interop.obj
 0002:0000c198       ??_C@_0FC@PCOGINLL@DROP?5TABLE?5?8?$CFq?8?4?8?$CFq_node?8?$DLDROP?5T@ 100fe198     interop.obj
 0002:0000c1ec       ??_C@_0O@BOKIPKAM@RtreeMatchArg?$AA@ 100fe1ec     interop.obj
 0002:0000c1fc       ??_C@_0CA@KKFEJEOI@UNIQUE?5constraint?5failed?3?5?$CFs?4?$CFs?$AA@ 100fe1fc     interop.obj
 0002:0000c21c       ??_C@_0CF@BJOAOMHH@rtree?5constraint?5failed?3?5?$CFs?4?$CI?$CFs?$DM@ 100fe21c     interop.obj
 0002:0000c248       ??_C@_0JB@OPIDJEFG@ALTER?5TABLE?5?$CFQ?4?8?$CFq_node?8?5?5?5RENAM@ 100fe248     interop.obj
 0002:0000c2dc       ??_C@_0DI@KGIILJME@SELECT?5stat?5FROM?5?$CFQ?4sqlite_stat1@ 100fe2dc     interop.obj
 0002:0000c314       ??_C@_0DF@JCJBGEI@INSERT?5OR?5REPLACE?5INTO?5?8?$CFq?8?4?8?$CFq_@ 100fe314     interop.obj
 0002:0000c34c       ??_C@_0CN@NPMDDBGL@DELETE?5FROM?5?8?$CFq?8?4?8?$CFq_node?8?5WHERE@ 100fe34c     interop.obj
 0002:0000c37c       ??_C@_0DE@NKOLLOMB@SELECT?5nodeno?5FROM?5?8?$CFq?8?4?8?$CFq_rowi@ 100fe37c     interop.obj
 0002:0000c3b0       ??_C@_0DG@JACFDIOF@INSERT?5OR?5REPLACE?5INTO?5?8?$CFq?8?4?8?$CFq_@ 100fe3b0     interop.obj
 0002:0000c3e8       ??_C@_0CN@JNHDFIEE@DELETE?5FROM?5?8?$CFq?8?4?8?$CFq_rowid?8?5WHER@ 100fe3e8     interop.obj
 0002:0000c418       ??_C@_0DK@LHGNLAFD@SELECT?5parentnode?5FROM?5?8?$CFq?8?4?8?$CFq_@ 100fe418     interop.obj
 0002:0000c454       ??_C@_0DH@PAOPLAJM@INSERT?5OR?5REPLACE?5INTO?5?8?$CFq?8?4?8?$CFq_@ 100fe454     interop.obj
 0002:0000c48c       ??_C@_0CP@DKHFKLOD@DELETE?5FROM?5?8?$CFq?8?4?8?$CFq_parent?8?5WHE@ 100fe48c     interop.obj
 0002:0000c4bc       ??_C@_0DO@GMDPCBIG@CREATE?5TABLE?5?$CC?$CFw?$CC?4?$CC?$CFw_rowid?$CC?$CIrow@ 100fe4bc     interop.obj
 0002:0000c4fc       ??_C@_04IBGBHACJ@?0a?$CFd?$AA@ 100fe4fc     interop.obj
 0002:0000c508       ??_C@_0EA@CFNMGKN@?$CJ?$DLCREATE?5TABLE?5?$CC?$CFw?$CC?4?$CC?$CFw_node?$CC?$CIno@ 100fe508     interop.obj
 0002:0000c548       ??_C@_0EG@DIHCDOHJ@CREATE?5TABLE?5?$CC?$CFw?$CC?4?$CC?$CFw_parent?$CC?$CIno@ 100fe548     interop.obj
 0002:0000c590       ??_C@_0DB@IEFCOAOG@INSERT?5INTO?5?$CC?$CFw?$CC?4?$CC?$CFw_node?$CCVALUES@ 100fe590     interop.obj
 0002:0000c5c8       ??_C@_0GM@HOKAGINB@INSERT?5INTO?$CC?$CFw?$CC?4?$CC?$CFw_rowid?$CC?$CIrowid@ 100fe5c8     interop.obj
 0002:0000c634       ??_C@_0CN@EAEGDECI@SELECT?5?$CK?5FROM?5?$CC?$CFw?$CC?4?$CC?$CFw_rowid?$CC?5WH@ 100fe634     interop.obj
 0002:0000c664       ??_C@_0BL@IFDAPIFE@UPDATE?5?$CC?$CFw?$CC?4?$CC?$CFw_rowid?$CCSET?5?$AA@ 100fe664     interop.obj
 0002:0000c680       ??_C@_07EGJCGFKM@a?$CFd?$DN?$DP?$CFd?$AA@ 100fe680     interop.obj
 0002:0000c688       ??_C@_0BA@KNJACAPD@?5WHERE?5rowid?$DN?$DP1?$AA@ 100fe688     interop.obj
 0002:0000c698       ??_C@_0DJ@FJHIAAMI@SELECT?5length?$CIdata?$CJ?5FROM?5?8?$CFq?8?4?8?$CF@ 100fe698     interop.obj
 0002:0000c6d4       ??_C@_0CD@LGNOLFCF@undersize?5RTree?5blobs?5in?5?$CC?$CFq_nod@ 100fe6d4     interop.obj
 0002:0000c6f8       ??_C@_0CL@JLGEGOKF@Wrong?5number?5of?5columns?5for?5an?5r@ 100fe6f8     interop.obj
 0002:0000c724       ??_C@_0CD@LNBABDIB@Too?5few?5columns?5for?5an?5rtree?5tab@ 100fe724     interop.obj
 0002:0000c748       ??_C@_0CE@OFDKEPLE@Too?5many?5columns?5for?5an?5rtree?5ta@ 100fe748     interop.obj
 0002:0000c76c       ??_C@_0CF@HAHADEEG@Auxiliary?5rtree?5columns?5must?5be?5@ 100fe76c     interop.obj
 0002:0000c794       ??_C@_0BC@EHLBCEFD@CREATE?5TABLE?5x?$CI?$CFs?$AA@ 100fe794     interop.obj
 0002:0000c7a8       ??_C@_03OMLJOFL@?0?$CFs?$AA@ 100fe7a8     interop.obj
 0002:0000c7ac       ??_C@_02LJALELK@?$CJ?$DL?$AA@ 100fe7ac     interop.obj
 0002:0000c7b0       ??_C@_03GKLDPGLG@?5?$CFg?$AA@ 100fe7b0     interop.obj
 0002:0000c7b4       ??_C@_07CEKPNMEE@?$CFs?5?$HL?$CFs?$HN?$AA@ 100fe7b4     interop.obj
 0002:0000c7bc       ??_C@_04OMBFFHIC@?$HL?$CFs?$HN?$AA@ 100fe7bc     interop.obj
 0002:0000c7c4       ??_C@_0CB@GBDNHMJO@Invalid?5argument?5to?5rtreedepth?$CI?$CJ@ 100fe7c4     interop.obj
 0002:0000c7e8       ??_C@_06MOFCKCGM@?$CFz?$CFs?$CFz?$AA@ 100fe7e8     interop.obj
 0002:0000c7f0       ??_C@_0CN@OCDFLGHB@SELECT?5data?5FROM?5?$CFQ?4?8?$CFq_node?8?5WH@ 100fe7f0     interop.obj
 0002:0000c820       ??_C@_0CA@FHOFCGBH@Node?5?$CFlld?5missing?5from?5database?$AA@ 100fe820     interop.obj
 0002:0000c840       ??_C@_0DG@GAOGCDLE@SELECT?5parentnode?5FROM?5?$CFQ?4?8?$CFq_pa@ 100fe840     interop.obj
 0002:0000c878       ??_C@_0DA@GMAANAHL@SELECT?5nodeno?5FROM?5?$CFQ?4?8?$CFq_rowid?8@ 100fe878     interop.obj
 0002:0000c8a8       ??_C@_07BDCBFPIF@?$CF_rowid?$AA@ 100fe8a8     interop.obj
 0002:0000c8b0       ??_C@_08PEKGCPEF@?$CF_parent?$AA@ 100fe8b0     interop.obj
 0002:0000c8bc       ??_C@_0CN@OLKMEMC@Mapping?5?$CI?$CFlld?5?9?$DO?5?$CFlld?$CJ?5missing?5f@ 100fe8bc     interop.obj
 0002:0000c8ec       ??_C@_0DK@NFLHLMPK@Found?5?$CI?$CFlld?5?9?$DO?5?$CFlld?$CJ?5in?5?$CFs?5table@ 100fe8ec     interop.obj
 0002:0000c928       ??_C@_0DA@IBMHEMPO@Dimension?5?$CFd?5of?5cell?5?$CFd?5on?5node?5@ 100fe928     interop.obj
 0002:0000c958       ??_C@_0ED@CPJBKGPJ@Dimension?5?$CFd?5of?5cell?5?$CFd?5on?5node?5@ 100fe958     interop.obj
 0002:0000c99c       ??_C@_0CC@JDIPMHGJ@Node?5?$CFlld?5is?5too?5small?5?$CI?$CFd?5bytes@ 100fe99c     interop.obj
 0002:0000c9c0       ??_C@_0BO@JJCPEGDB@Rtree?5depth?5out?5of?5range?5?$CI?$CFd?$CJ?$AA@ 100fe9c0     interop.obj
 0002:0000c9e0       ??_C@_0DH@LDLLNCMF@Node?5?$CFlld?5is?5too?5small?5for?5cell?5@ 100fe9e0     interop.obj
 0002:0000ca18       ??_C@_0BP@NHCPMCOG@SELECT?5count?$CI?$CK?$CJ?5FROM?5?$CFQ?4?8?$CFq?$CFs?8?$AA@ 100fea18     interop.obj
 0002:0000ca38       ??_C@_0ED@KHDJEPLH@Wrong?5number?5of?5entries?5in?5?$CF?$CF?$CFs?5@ 100fea38     interop.obj
 0002:0000ca7c       ??_C@_0BM@CIIHBMJB@SELECT?5?$CK?5FROM?5?$CFQ?4?8?$CFq_rowid?8?$AA@ 100fea7c     interop.obj
 0002:0000ca98       ??_C@_0BP@CLALJPJM@Schema?5corrupt?5or?5not?5an?5rtree?$AA@ 100fea98     interop.obj
 0002:0000cab8       ??_C@_06FKPJDDKA@_rowid?$AA@ 100feab8     interop.obj
 0002:0000cac0       ??_C@_07LPOLCDGO@_parent?$AA@ 100feac0     interop.obj
 0002:0000cac8       ??_C@_03JMGAKCCH@END?$AA@  100feac8     interop.obj
 0002:0000cacc       ??_C@_0DD@GJMFMEMD@wrong?5number?5of?5arguments?5to?5fun@ 100feacc     interop.obj
 0002:0000cb00       ??_C@_09DOFHOJNE@rtreenode?$AA@ 100feb00     interop.obj
 0002:0000cb0c       ??_C@_0L@FBAJCMD@rtreedepth?$AA@ 100feb0c     interop.obj
 0002:0000cb18       ??_C@_0L@LFAGCHFB@rtreecheck?$AA@ 100feb18     interop.obj
 0002:0000cb24       ??_C@_05JDCFEKKH@rtree?$AA@ 100feb24     interop.obj
 0002:0000cb2c       ??_C@_09BLHENEJI@rtree_i32?$AA@ 100feb2c     interop.obj
 0002:0000cb38       ??_C@_0CME@HBOLCCP@CREATE?5TABLE?5xx?$CI?5?5?5name?5?5?5?5?5?5?5TE@ 100feb38     interop.obj
 0002:0000cdfc       ??_C@_01KMDKNFGN@?1?$AA@   100fedfc     interop.obj
 0002:0000ce00       ??_C@_08CLAAFLMB@overflow?$AA@ 100fee00     interop.obj
 0002:0000ce0c       ??_C@_0M@LHFNBNKN@?$CFs?$CF?43x?$CL?$CF?46x?$AA@ 100fee0c     interop.obj
 0002:0000ce18       ??_C@_07HFDLNFDI@?$CFs?$CF?43x?1?$AA@ 100fee18     interop.obj
 0002:0000ce20       ??_C@_08LEPPLCNF@internal?$AA@ 100fee20     interop.obj
 0002:0000ce2c       ??_C@_04BDFFPIKJ@leaf?$AA@ 100fee2c     interop.obj
 0002:0000ce34       ??_C@_09DJBANNHO@corrupted?$AA@ 100fee34     interop.obj
 0002:0000ce40       ??_C@_0BD@OAEHKJBC@no?5such?5schema?3?5?$CFs?$AA@ 100fee40     interop.obj
 0002:0000ce58       ??_C@_0JG@LLGEKHGM@SELECT?5?8sqlite_master?8?5AS?5name?0?5@ 100fee58     interop.obj
 0002:0000cef0       ??_C@_06DPFGBH@dbstat?$AA@ 100feef0     interop.obj
 0002:0000cef8       ??_C@_0HJ@KIBIFBJK@SELECT?50?0?5?8tbl?8?0?5?5?8?8?0?50?0?5?8?8?0?51?5?5@ 100feef8     interop.obj
 0002:0000cf74       ??_C@_0BN@KOFELOHK@PRAGMA?5?8?$CFq?8?4table_info?$CI?8?$CFq?8?$CJ?$AA@ 100fef74     interop.obj
 0002:0000cf94       ??_C@_0CC@IEIFJDAG@?$CFz?$CFs?$CC?$CFw?$CC?4?$CC?$CFw?$CC?4?$CC?$CFw?$CC?$DN?$CC?$CFw?$CC?4?$CC?$CFw?$CC?4?$CC?$CFw@ 100fef94     interop.obj
 0002:0000cfb8       ??_C@_0CJ@DMNPNMJC@?$CFz?$CFs?$CC?$CFw?$CC?4?$CC?$CFw?$CC?4?$CC?$CFw?$CC?5IS?5NOT?5?$CC?$CFw?$CC?4?$CC@ 100fefb8     interop.obj
 0002:0000cfe4       ??_C@_04MBNHLBPB@?5OR?5?$AA@ 100fefe4     interop.obj
 0002:0000cff0       ??_C@_0EO@OIBOMJGL@SELECT?5?$CK?5FROM?5?$CC?$CFw?$CC?4?$CC?$CFw?$CC?5WHERE?5NO@ 100feff0     interop.obj
 0002:0000d040       ??_C@_0DF@KDBCILLK@SELECT?5?$CK?5FROM?5?$CC?$CFw?$CC?4?$CC?$CFw?$CC?0?5?$CC?$CFw?$CC?4?$CC?$CF@ 100ff040     interop.obj
 0002:0000d078       ??_C@_0BL@LANFMCCG@table?5schemas?5do?5not?5match?$AA@ 100ff078     interop.obj
 0002:0000d098       ??_C@_0GO@OMBAINMJ@SELECT?5tbl?0?5?$DP2?0?5stat?5FROM?5?$CFQ?4sql@ 100ff098     interop.obj
 0002:0000d108       ??_C@_0P@JCOJJIIC@SELECT?5?$CK?5FROM?5?$AA@ 100ff108     interop.obj
 0002:0000d118       ??_C@_07HEBAGGGB@?5WHERE?5?$AA@ 100ff118     interop.obj
 0002:0000d120       ??_C@_05KFFJKNMC@?5IS?5?$DP?$AA@ 100ff120     interop.obj
 0002:0000d128       ??_C@_0BE@EGOHCKDC@SAVEPOINT?5changeset?$AA@ 100ff128     interop.obj
 0002:0000d13c       ??_C@_0BC@LEDJGKDM@RELEASE?5changeset?$AA@ 100ff13c     interop.obj
 0002:0000d150       ??_C@_0N@LFKDCHID@DELETE?5FROM?5?$AA@ 100ff150     interop.obj
 0002:0000d160       ??_C@_04JKMOGLEG@?5?$DN?5?$DP?$AA@ 100ff160     interop.obj
 0002:0000d168       ??_C@_07NHEEDLMC@?5AND?5?$CI?$DP?$AA@ 100ff168     interop.obj
 0002:0000d170       ??_C@_04MFJCFHKL@AND?5?$AA@ 100ff170     interop.obj
 0002:0000d178       ??_C@_07PCCOPOHM@UPDATE?5?$AA@ 100ff178     interop.obj
 0002:0000d180       ??_C@_05GENJOELA@?5SET?5?$AA@ 100ff180     interop.obj
 0002:0000d188       ??_C@_0P@OOOCMMDF@?5?$DN?5CASE?5WHEN?5?$DP?$AA@ 100ff188     interop.obj
 0002:0000d198       ??_C@_07NMHBJDIO@?5THEN?5?$DP?$AA@ 100ff198     interop.obj
 0002:0000d1a0       ??_C@_06FFNFPMEP@?5ELSE?5?$AA@ 100ff1a0     interop.obj
 0002:0000d1a8       ??_C@_04LKMHKFCC@?5END?$AA@ 100ff1a8     interop.obj
 0002:0000d1b0       ??_C@_03BAAJLCLJ@?5?$CI?$DP?$AA@ 100ff1b0     interop.obj
 0002:0000d1b4       ??_C@_05MCGBCIJ@?5OR?51?$AA@ 100ff1b4     interop.obj
 0002:0000d1bc       ??_C@_06FHFHFKKN@?$DN0?5OR?5?$AA@ 100ff1bc     interop.obj
 0002:0000d1c4       ??_C@_0BC@OLBCAJDK@INSERT?5INTO?5main?4?$AA@ 100ff1c4     interop.obj
 0002:0000d1d8       ??_C@_0L@DKEIMKEG@?$CJ?5VALUES?$CI?$DP?$AA@ 100ff1d8     interop.obj
 0002:0000d1e8       ??_C@_0HB@NIOGPAF@INSERT?5INTO?5main?4sqlite_stat1?5VA@ 100ff1e8     interop.obj
 0002:0000d260       ??_C@_0BBF@IKOPNCEF@UPDATE?5main?4sqlite_stat1?5SET?5tbl@ 100ff260     interop.obj
 0002:0000d378       ??_C@_0JA@OFLKHAPG@DELETE?5FROM?5main?4sqlite_stat1?5WH@ 100ff378     interop.obj
 0002:0000d408       ??_C@_0BF@FBHKOOPJ@SAVEPOINT?5replace_op?$AA@ 100ff408     interop.obj
 0002:0000d420       ??_C@_0BD@LGDABNLO@RELEASE?5replace_op?$AA@ 100ff420     interop.obj
 0002:0000d434       ??_C@_0BK@MGJEOMPJ@SAVEPOINT?5changeset_apply?$AA@ 100ff434     interop.obj
 0002:0000d450       ??_C@_0BO@CFKIOCNI@PRAGMA?5defer_foreign_keys?5?$DN?51?$AA@ 100ff450     interop.obj
 0002:0000d470       ??_C@_0CM@OHGIAPAA@sqlite3changeset_apply?$CI?$CJ?3?5no?5suc@ 100ff470     interop.obj
 0002:0000d4a0       ??_C@_0EH@BIPGJDCD@sqlite3changeset_apply?$CI?$CJ?3?5table?5@ 100ff4a0     interop.obj
 0002:0000d4e8       ??_C@_0DM@MANLDKIM@sqlite3changeset_apply?$CI?$CJ?3?5primar@ 100ff4e8     interop.obj
 0002:0000d524       ??_C@_0BO@DMLDNDJJ@PRAGMA?5defer_foreign_keys?5?$DN?50?$AA@ 100ff524     interop.obj
 0002:0000d544       ??_C@_0BI@NEKGLMNE@RELEASE?5changeset_apply?$AA@ 100ff544     interop.obj
 0002:0000d55c       ??_C@_0BM@IFOOIHJL@ROLLBACK?5TO?5changeset_apply?$AA@ 100ff55c     interop.obj
 0002:0000d578       ??_C@_0EI@NKEGEHLN@CREATE?5TABLE?5x?$CIsql?0ncol?0ro?0busy?0@ 100ff578     interop.obj
 0002:0000d5c0       ??_C@_0M@IOHGDLPJ@sqlite_stmt?$AA@ 100ff5c0     interop.obj
 0002:0000d5d0       ??_C@_0FF@PLNLIDN@2018?906?904?519?324?341?5c7ee0833225b@ 100ff5d0     interop.obj
 0002:0000d628       ??_C@_0N@HPOBCAGP@domain?5error?$AA@ 100ff628     interop.obj
 0002:0000d638       ??_C@_04PDIFKINK@acos?$AA@ 100ff638     interop.obj
 0002:0000d640       ??_C@_04FIHNOPOL@asin?$AA@ 100ff640     interop.obj
 0002:0000d648       ??_C@_04MLLJIGOK@atan?$AA@ 100ff648     interop.obj
 0002:0000d650       ??_C@_04NGOLNDIP@atn2?$AA@ 100ff650     interop.obj
 0002:0000d658       ??_C@_05KNGEOGJB@atan2?$AA@ 100ff658     interop.obj
 0002:0000d660       ??_C@_05MLNBFPMN@acosh?$AA@ 100ff660     interop.obj
 0002:0000d668       ??_C@_05JKKEKHLA@asinh?$AA@ 100ff668     interop.obj
 0002:0000d670       ??_C@_05ONDAFDEP@atanh?$AA@ 100ff670     interop.obj
 0002:0000d678       ??_C@_0L@CHCOIIBP@difference?$AA@ 100ff678     interop.obj
 0002:0000d684       ??_C@_07MHOHEFBH@degrees?$AA@ 100ff684     interop.obj
 0002:0000d68c       ??_C@_07JLOPPFCD@radians?$AA@ 100ff68c     interop.obj
 0002:0000d694       ??_C@_03LALBNOCG@cos?$AA@  100ff694     interop.obj
 0002:0000d698       ??_C@_03BLEJJJBH@sin?$AA@  100ff698     interop.obj
 0002:0000d69c       ??_C@_03IIINPABG@tan?$AA@  100ff69c     interop.obj
 0002:0000d6a0       ??_C@_03PPPAEIOB@cot?$AA@  100ff6a0     interop.obj
 0002:0000d6a4       ??_C@_04HPJJNFIM@cosh?$AA@ 100ff6a4     interop.obj
 0002:0000d6ac       ??_C@_04COOMCNPB@sinh?$AA@ 100ff6ac     interop.obj
 0002:0000d6b4       ??_C@_04FJHINJAO@tanh?$AA@ 100ff6b4     interop.obj
 0002:0000d6bc       ??_C@_04HKNGMDAJ@coth?$AA@ 100ff6bc     interop.obj
 0002:0000d6c4       ??_C@_03KHJOGHMM@exp?$AA@  100ff6c4     interop.obj
 0002:0000d6c8       ??_C@_05HGHHAHAP@log10?$AA@ 100ff6c8     interop.obj
 0002:0000d6d0       ??_C@_05PLIADJJL@power?$AA@ 100ff6d0     interop.obj
 0002:0000d6d8       ??_C@_04HHGHLBPI@sign?$AA@ 100ff6d8     interop.obj
 0002:0000d6e0       ??_C@_04EIAKFFMI@sqrt?$AA@ 100ff6e0     interop.obj
 0002:0000d6e8       ??_C@_06ICDKOIFG@square?$AA@ 100ff6e8     interop.obj
 0002:0000d6f0       ??_C@_04GFPJNGEK@ceil?$AA@ 100ff6f0     interop.obj
 0002:0000d6f8       ??_C@_07EANFIDJB@ceiling?$AA@ 100ff6f8     interop.obj
 0002:0000d700       ??_C@_05PBJFFIGL@floor?$AA@ 100ff700     interop.obj
 0002:0000d708       ??_C@_02OAHAJOFD@pi?$AA@   100ff708     interop.obj
 0002:0000d70c       ??_C@_0BD@IFENDAKA@last_rows_affected?$AA@ 100ff70c     interop.obj
 0002:0000d720       ??_C@_09CBPKCNMB@replicate?$AA@ 100ff720     interop.obj
 0002:0000d72c       ??_C@_09LCOPGHLO@charindex?$AA@ 100ff72c     interop.obj
 0002:0000d738       ??_C@_07CBJDIIOC@leftstr?$AA@ 100ff738     interop.obj
 0002:0000d740       ??_C@_08JJJINGEL@rightstr?$AA@ 100ff740     interop.obj
 0002:0000d74c       ??_C@_07KOIEOCCE@reverse?$AA@ 100ff74c     interop.obj
 0002:0000d754       ??_C@_06OLFJAONP@proper?$AA@ 100ff754     interop.obj
 0002:0000d75c       ??_C@_04MFADDPBM@padl?$AA@ 100ff75c     interop.obj
 0002:0000d764       ??_C@_04BBECAAMD@padr?$AA@ 100ff764     interop.obj
 0002:0000d76c       ??_C@_04ECJLCDND@padc?$AA@ 100ff76c     interop.obj
 0002:0000d774       ??_C@_09GOCGDFFD@strfilter?$AA@ 100ff774     interop.obj
 0002:0000d780       ??_C@_05EMOENAND@stdev?$AA@ 100ff780     interop.obj
 0002:0000d788       ??_C@_08PPLCFKON@variance?$AA@ 100ff788     interop.obj
 0002:0000d794       ??_C@_06EIDMBNHH@median?$AA@ 100ff794     interop.obj
 0002:0000d79c       ??_C@_0P@BHPBIMCK@lower_quartile?$AA@ 100ff79c     interop.obj
 0002:0000d7ac       ??_C@_0P@GILEIKMI@upper_quartile?$AA@ 100ff7ac     interop.obj
 0002:0000d7c0       ??_C@_1FO@GBKEFGLF@?$AAM?$AAi?$AAc?$AAr?$AAo?$AAs?$AAo?$AAf?$AAt?$AA?5?$AAE?$AAn?$AAh?$AAa?$AAn?$AAc?$AAe?$AAd?$AA?5?$AAC?$AAr?$AAy?$AAp?$AAt?$AAo?$AAg?$AAr?$AAa?$AAp?$AAh?$AAi?$AAc@ 100ff7c0     interop.obj
 0002:0000d820       ??_C@_0CF@PDNGJJHH@Cryptographic?5provider?5not?5avail@ 100ff820     interop.obj
 0002:0000d848       ??_C@_05KECBHFIB@CODEC?$AA@ 100ff848     interop.obj
 0002:0000d850       ??_C@_0BE@FBEPHJOJ@EXTENSION_FUNCTIONS?$AA@ 100ff850     interop.obj
 0002:0000d864       ??_C@_0BA@KNGGBCAM@JSON1_EXTENSION?$AA@ 100ff864     interop.obj
 0002:0000d874       ??_C@_0BF@ICFBEBIE@PERCENTILE_EXTENSION?$AA@ 100ff874     interop.obj
 0002:0000d88c       ??_C@_0BB@CDMPNKEH@REGEXP_EXTENSION?$AA@ 100ff88c     interop.obj
 0002:0000d8a0       ??_C@_0BC@LJFAFCIA@SESSION_EXTENSION?$AA@ 100ff8a0     interop.obj
 0002:0000d8b4       ??_C@_0P@OHOGJJN@SHA1_EXTENSION?$AA@ 100ff8b4     interop.obj
 0002:0000d8c4       ??_C@_0BB@KHKIMGJF@TOTYPE_EXTENSION?$AA@ 100ff8c4     interop.obj
 0002:0000d8d8       ??_C@_0BH@JDLJNFBD@VERSION_NUMBER?$DN3024000?$AA@ 100ff8d8     interop.obj
 0002:0000d8f0       ??_C@_0O@NJNGIHJL@VIRTUAL_TABLE?$AA@ 100ff8f0     interop.obj
 0002:0000d900       ??_C@_08POEGDEC@INTEROP_?$AA@ 100ff900     interop.obj
 0002:0000d90c       ??_C@_09MFIJLALO@1?40?4109?40?$AA@ 100ff90c     interop.obj
 0002:0000d918       ??_C@_0EB@GBOBKGP@86636b58e29f85d17a2194bfacdb3b98@ 100ff918     interop.obj
 0002:0000d95c       ??_C@_0CB@CGLCOOIM@virtual?5table?5was?5disposed?3?5?$CC?$CFs?$CC@ 100ff95c     interop.obj
 0002:0000d980       ??_C@_0BM@CGDFPFBP@fts5?3?5parser?5stack?5overflow?$AA@ 100ff980     interop.obj
 0002:0000d99c       ??_C@_0BP@KPOIFJDP@fts5?3?5syntax?5error?5near?5?$CC?$CF?4?$CKs?$CC?$AA@ 100ff99c     interop.obj
 0002:0000d9bc       ??_C@_06CNKLIJGH@?$CFz?$CF?4?$CKs?$AA@ 100ff9bc     interop.obj
 0002:0000d9c4       ??_C@_0DC@CGMBNLKK@wrong?5number?5of?5arguments?5to?5fun@ 100ff9c4     interop.obj
 0002:0000d9f8       ??_C@_09MIAHMBP@highlight?$AA@ 100ff9f8     interop.obj
 0002:0000da04       ??_C@_04JGLNPAFJ@bm25?$AA@ 100ffa04     interop.obj
 0002:0000da0c       ??_C@_0BP@JGOLAMJF@malformed?5prefix?$DN?4?4?4?5directive?$AA@ 100ffa0c     interop.obj
 0002:0000da2c       ??_C@_0CB@CPMAOHA@too?5many?5prefix?5indexes?5?$CImax?5?$CFd?$CJ@ 100ffa2c     interop.obj
 0002:0000da50       ??_C@_0CF@JGJMFBMP@prefix?5length?5out?5of?5range?5?$CImax?5@ 100ffa50     interop.obj
 0002:0000da78       ??_C@_0CB@ECGEPJLH@multiple?5tokenize?$DN?4?4?4?5directives@ 100ffa78     interop.obj
 0002:0000da9c       ??_C@_0CC@PPKILGPK@parse?5error?5in?5tokenize?5directiv@ 100ffa9c     interop.obj
 0002:0000dac0       ??_C@_0CA@EJMIFEII@multiple?5content?$DN?4?4?4?5directives?$AA@ 100ffac0     interop.obj
 0002:0000dae0       ??_C@_05MBOEBMLB@?$CFQ?4?$CFQ?$AA@ 100ffae0     interop.obj
 0002:0000dae8       ??_C@_0O@MLPMKEIP@content_rowid?$AA@ 100ffae8     interop.obj
 0002:0000daf8       ??_C@_0CG@EMNNNJLK@multiple?5content_rowid?$DN?4?4?4?5direc@ 100ffaf8     interop.obj
 0002:0000db20       ??_C@_0L@ECGKBPGO@columnsize?$AA@ 100ffb20     interop.obj
 0002:0000db2c       ??_C@_0CD@NEPNFBHB@malformed?5columnsize?$DN?4?4?4?5directi@ 100ffb2c     interop.obj
 0002:0000db50       ??_C@_07HIFEPIJN@columns?$AA@ 100ffb50     interop.obj
 0002:0000db58       ??_C@_0BP@NJOMNEFL@malformed?5detail?$DN?4?4?4?5directive?$AA@ 100ffb58     interop.obj
 0002:0000db78       ??_C@_0BM@GLKIHOOD@unrecognized?5option?3?5?$CC?$CF?4?$CKs?$CC?$AA@ 100ffb78     interop.obj
 0002:0000db94       ??_C@_04PNBFHPGN@rank?$AA@ 100ffb94     interop.obj
 0002:0000db9c       ??_C@_0BO@HLHCALLL@reserved?5fts5?5column?5name?3?5?$CFs?$AA@ 100ffb9c     interop.obj
 0002:0000dbbc       ??_C@_09KPCIJFCB@unindexed?$AA@ 100ffbbc     interop.obj
 0002:0000dbc8       ??_C@_0BP@EBLACHJN@unrecognized?5column?5option?3?5?$CFs?$AA@ 100ffbc8     interop.obj
 0002:0000dbe8       ??_C@_04CJIFFBPK@T?4?$CFQ?$AA@ 100ffbe8     interop.obj
 0002:0000dbf0       ??_C@_06HNHKCPEH@?0?5T?4?$CFQ?$AA@ 100ffbf0     interop.obj
 0002:0000dbf8       ??_C@_07ENDMHNC@?0?5T?4c?$CFd?$AA@ 100ffbf8     interop.obj
 0002:0000dc00       ??_C@_0BN@MEHNAIOK@reserved?5fts5?5table?5name?3?5?$CFs?$AA@ 100ffc00     interop.obj
 0002:0000dc20       ??_C@_0BE@NEGGJJFK@parse?5error?5in?5?$CC?$CFs?$CC?$AA@ 100ffc20     interop.obj
 0002:0000dc34       ??_C@_07IEFCJPNN@docsize?$AA@ 100ffc34     interop.obj
 0002:0000dc3c       ??_C@_0L@HAMDBJKL@?$CFQ?4?8?$CFq_?$CFs?8?$AA@ 100ffc3c     interop.obj
 0002:0000dc48       ??_C@_0BA@BGMKDGLG@CREATE?5TABLE?5x?$CI?$AA@ 100ffc48     interop.obj
 0002:0000dc58       ??_C@_06LICCFPAF@?$CFz?$CFs?$CFQ?$AA@ 100ffc58     interop.obj
 0002:0000dc60       ??_C@_0BK@DLCLEHIJ@?$CFz?0?5?$CFQ?5HIDDEN?0?5?$CFs?5HIDDEN?$CJ?$AA@ 100ffc60     interop.obj
 0002:0000dc7c       ??_C@_04OFJJGAOC@pgsz?$AA@ 100ffc7c     interop.obj
 0002:0000dc84       ??_C@_08GCJLHPLL@hashsize?$AA@ 100ffc84     interop.obj
 0002:0000dc90       ??_C@_09LMBMBDNC@automerge?$AA@ 100ffc90     interop.obj
 0002:0000dc9c       ??_C@_09FHFLIHHB@usermerge?$AA@ 100ffc9c     interop.obj
 0002:0000dca8       ??_C@_0M@PKMMADDP@crisismerge?$AA@ 100ffca8     interop.obj
 0002:0000dcb4       ??_C@_0CA@PGNDODLA@SELECT?5k?0?5v?5FROM?5?$CFQ?4?8?$CFq_config?8?$AA@ 100ffcb4     interop.obj
 0002:0000dcd4       ??_C@_07CPCPJPKL@version?$AA@ 100ffcd4     interop.obj
 0002:0000dce0       ??_C@_0EB@PDIODBOG@invalid?5fts5?5file?5format?5?$CIfound?5@ 100ffce0     interop.obj
 0002:0000dd24       ??_C@_0BE@EMLBHFPA@unterminated?5string?$AA@ 100ffd24     interop.obj
 0002:0000dd38       ??_C@_0BP@CIPAIJKB@fts5?3?5syntax?5error?5near?5?$CC?$CF?41s?$CC?$AA@ 100ffd38     interop.obj
 0002:0000dd58       ??_C@_0BN@KOBPHHFF@expected?5integer?0?5got?5?$CC?$CF?4?$CKs?$CC?$AA@ 100ffd58     interop.obj
 0002:0000dd78       ??_C@_0DF@DBCIDOJF@fts5?3?5column?5queries?5are?5not?5sup@ 100ffd78     interop.obj
 0002:0000ddb0       ??_C@_06CEOJBHLP@phrase?$AA@ 100ffdb0     interop.obj
 0002:0000ddb8       ??_C@_0DC@BGMKGANN@fts5?3?5?$CFs?5queries?5are?5not?5support@ 100ffdb8     interop.obj
 0002:0000ddec       ??_C@_03IKGEINEE@?$CFs?5?$AA@ 100ffdec     interop.obj
 0002:0000ddf0       ??_C@_08LKJDONIG@?9col?5?$CFd?5?$AA@ 100ffdf0     interop.obj
 0002:0000ddfc       ??_C@_08HEAMPIOB@?9col?5?$HL?$CFd?$AA@ 100ffdfc     interop.obj
 0002:0000de08       ??_C@_03EBJOKFHF@?5?$CFd?$AA@ 100ffe08     interop.obj
 0002:0000de0c       ??_C@_02MJBDPJEM@?$HN?5?$AA@ 100ffe0c     interop.obj
 0002:0000de10       ??_C@_09ENCADHMN@?9near?5?$CFd?5?$AA@ 100ffe10     interop.obj
 0002:0000de1c       ??_C@_02BAABKJLB@?9?9?$AA@ 100ffe1c     interop.obj
 0002:0000de20       ??_C@_02PEDIMADA@?5?$HL?$AA@ 100ffe20     interop.obj
 0002:0000de24       ??_C@_01CELHOKLL@?$HN?$AA@ 100ffe24     interop.obj
 0002:0000de28       ??_C@_05MHMNDECD@?5?$FL?$CFz?$FN?$AA@ 100ffe28     interop.obj
 0002:0000de30       ??_C@_02JMMFPCED@?$CC?$CC?$AA@ 100ffe30     interop.obj
 0002:0000de34       ??_C@_05LLGELLBM@?$CFs?5?3?5?$AA@ 100ffe34     interop.obj
 0002:0000de3c       ??_C@_05PKLBIJFF@NEAR?$CI?$AA@ 100ffe3c     interop.obj
 0002:0000de44       ??_C@_03NPBFACHO@?5?$CL?5?$AA@ 100ffe44     interop.obj
 0002:0000de48       ??_C@_05GDOGBHAO@?0?5?$CFd?$CJ?$AA@ 100ffe48     interop.obj
 0002:0000de50       ??_C@_05JDBEFHOH@?5NOT?5?$AA@ 100ffe50     interop.obj
 0002:0000de58       ??_C@_08NEELJNCI@?$CFs?$CFs?$CFz?$CFs?$AA@ 100ffe58     interop.obj
 0002:0000de64       ??_C@_07LKENCEEG@nearset?$AA@ 100ffe64     interop.obj
 0002:0000de6c       ??_C@_0O@HMOEDBAG@fts5_expr_tcl?$AA@ 100ffe6c     interop.obj
 0002:0000de7c       ??_C@_09PODONEKJ@fts5_expr?$AA@ 100ffe7c     interop.obj
 0002:0000de88       ??_C@_0CJ@LMNCPIEA@wrong?5number?5of?5arguments?5to?5fun@ 100ffe88     interop.obj
 0002:0000deb4       ??_C@_0DD@PEIJNNKA@wrong?5number?5of?5arguments?5to?5fun@ 100ffeb4     interop.obj
 0002:0000dee8       ??_C@_0DA@BIIALNIH@wrong?5number?5of?5arguments?5to?5fun@ 100ffee8     interop.obj
 0002:0000df18       ??_C@_0N@OJPOPNKI@fts5_isalnum?$AA@ 100fff18     interop.obj
 0002:0000df28       ??_C@_09HNPECOJM@fts5_fold?$AA@ 100fff28     interop.obj
 0002:0000df34       ??_C@_0DD@OABMJECO@REPLACE?5INTO?5?8?$CFq?8?4?8?$CFq_data?8?$CIid?0?5@ 100fff34     interop.obj
 0002:0000df68       ??_C@_0DB@JNAPOGD@DELETE?5FROM?5?8?$CFq?8?4?8?$CFq_data?8?5WHERE@ 100fff68     interop.obj
 0002:0000df9c       ??_C@_0CI@GOFEPDLL@DELETE?5FROM?5?8?$CFq?8?4?8?$CFq_idx?8?5WHERE?5@ 100fff9c     interop.obj
 0002:0000dfc4       ??_C@_0BH@DDFHPPKE@PRAGMA?5?$CFQ?4data_version?$AA@ 100fffc4     interop.obj
 0002:0000dfe0       ??_C@_0FE@FFBGCGHB@SELECT?5pgno?5FROM?5?8?$CFq?8?4?8?$CFq_idx?8?5W@ 100fffe0     interop.obj
 0002:0000e034       ??_C@_0DJ@GMPBOAPJ@INSERT?5INTO?5?8?$CFq?8?4?8?$CFq_idx?8?$CIsegid?0@ 10100034     interop.obj
 0002:0000e070       ??_C@_07MLCFOHLB@?$CFs_data?$AA@ 10100070     interop.obj
 0002:0000e078       ??_C@_0CD@BNBOJEIH@id?5INTEGER?5PRIMARY?5KEY?0?5block?5BL@ 10100078     interop.obj
 0002:0000e09c       ??_C@_0CM@KAPJJDEC@segid?0?5term?0?5pgno?0?5PRIMARY?5KEY?$CIs@ 1010009c     interop.obj
 0002:0000e0c8       ??_C@_0EI@ONICPMBF@SELECT?5segid?0?5term?0?5?$CIpgno?$DO?$DO1?$CJ?0?5?$CI@ 101000c8     interop.obj
 0002:0000e110       ??_C@_0M@JKLLKCBG@?$HLaverages?$HN?5?$AA@ 10100110     interop.obj
 0002:0000e11c       ??_C@_0M@HNBBGJKK@?$HLstructure?$HN?$AA@ 1010011c     interop.obj
 0002:0000e128       ??_C@_06INFMOPHE@dlidx?5?$AA@ 10100128     interop.obj
 0002:0000e130       ??_C@_0BK@NNHEDIBA@?$HL?$CFssegid?$DN?$CFd?5h?$DN?$CFd?5pgno?$DN?$CFd?$HN?$AA@ 10100130     interop.obj
 0002:0000e14c       ??_C@_0BL@EFMJIEFD@?5?$HLlvl?$DN?$CFd?5nMerge?$DN?$CFd?5nSeg?$DN?$CFd?$AA@ 1010014c     interop.obj
 0002:0000e168       ??_C@_0BH@MLHDJCKN@?5?$HLid?$DN?$CFd?5leaves?$DN?$CFd?4?4?$CFd?$HN?$AA@ 10100168     interop.obj
 0002:0000e180       ??_C@_04HGGBINEM@?$CFs?$CFd?$AA@ 10100180     interop.obj
 0002:0000e188       ??_C@_08KLDDNKMP@?5id?$DN?$CFlld?$AA@ 10100188     interop.obj
 0002:0000e194       ??_C@_0L@EEMGLGLN@?5nPos?$DN?$CFd?$CFs?$AA@ 10100194     interop.obj
 0002:0000e1a0       ??_C@_01MIFGBAGJ@?$CL?$AA@ 101001a0     interop.obj
 0002:0000e1a4       ??_C@_07FDAKMPPM@?5?$CFlld?$CFs?$AA@ 101001a4     interop.obj
 0002:0000e1ac       ??_C@_09ECHGDAGK@?5?$CFd?$CI?$CFlld?$CJ?$AA@ 101001ac     interop.obj
 0002:0000e1b8       ??_C@_0L@DPEGBOAM@?5term?$DN?$CF?4?$CKs?$AA@ 101001b8     interop.obj
 0002:0000e1c4       ??_C@_07DPPMCAKL@corrupt?$AA@ 101001c4     interop.obj
 0002:0000e1cc       ??_C@_0CF@MKKLNHEF@should?5be?3?5fts5_rowid?$CIsubject?0?5?4@ 101001cc     interop.obj
 0002:0000e1f4       ??_C@_07BADNAEFA@segment?$AA@ 101001f4     interop.obj
 0002:0000e1fc       ??_C@_0CP@PALIMOP@should?5be?3?5fts5_rowid?$CI?8segment?8?0@ 101001fc     interop.obj
 0002:0000e22c       ??_C@_0CM@BIFLHBFJ@first?5arg?5to?5fts5_rowid?$CI?$CJ?5must?5b@ 1010022c     interop.obj
 0002:0000e258       ??_C@_0M@DFCDGLKM@fts5_decode?$AA@ 10100258     interop.obj
 0002:0000e264       ??_C@_0BB@CDJGNFAJ@fts5_decode_none?$AA@ 10100264     interop.obj
 0002:0000e278       ??_C@_0L@OPNCIGKC@fts5_rowid?$AA@ 10100278     interop.obj
 0002:0000e284       ??_C@_0DF@JLMLEJKE@SELECT?5rowid?0?5rank?5FROM?5?$CFQ?4?$CFQ?5OR@ 10100284     interop.obj
 0002:0000e2bc       ??_C@_05JBFDNDAE@reads?$AA@ 101002bc     interop.obj
 0002:0000e2c4       ??_C@_0BM@IFPGLKLD@unknown?5special?5query?3?5?$CF?4?$CKs?$AA@ 101002c4     interop.obj
 0002:0000e2e0       ??_C@_0BF@OOPNCALL@no?5such?5function?3?5?$CFs?$AA@ 101002e0     interop.obj
 0002:0000e2f8       ??_C@_0CB@HOIJLHLO@parse?5error?5in?5rank?5function?3?5?$CFs@ 101002f8     interop.obj
 0002:0000e31c       ??_C@_0CE@ECAIDPIF@?$CFs?3?5table?5does?5not?5support?5scann@ 1010031c     interop.obj
 0002:0000e340       ??_C@_0L@BDLHLPBP@delete?9all?$AA@ 10100340     interop.obj
 0002:0000e350       ??_C@_0FA@CIIINBOG@?8delete?9all?8?5may?5only?5be?5used?5wi@ 10100350     interop.obj
 0002:0000e3a0       ??_C@_0DI@DLMKIEBM@?8rebuild?8?5may?5not?5be?5used?5with?5a@ 101003a0     interop.obj
 0002:0000e3d8       ??_C@_05DPKBJALF@merge?$AA@ 101003d8     interop.obj
 0002:0000e3e0       ??_C@_06HHJABCJL@UPDATE?$AA@ 101003e0     interop.obj
 0002:0000e3e8       ??_C@_0M@IELMHAAN@DELETE?5from?$AA@ 101003e8     interop.obj
 0002:0000e3f4       ??_C@_0CF@HECLOEBI@cannot?5?$CFs?5contentless?5fts5?5table@ 101003f4     interop.obj
 0002:0000e41c       ??_C@_0BF@HCNBMNJO@no?5such?5cursor?3?5?$CFlld?$AA@ 1010041c     interop.obj
 0002:0000e434       ??_C@_0BG@LBLJOHPJ@no?5such?5tokenizer?3?5?$CFs?$AA@ 10100434     interop.obj
 0002:0000e44c       ??_C@_0BP@OILDIGEL@error?5in?5tokenizer?5constructor?$AA@ 1010044c     interop.obj
 0002:0000e46c       ??_C@_0N@HNHPPILO@fts5_api_ptr?$AA@ 1010046c     interop.obj
 0002:0000e480       ??_C@_0FL@NONIELL@fts5?3?52018?906?904?519?324?341?5c7ee08@ 10100480     interop.obj
 0002:0000e4dc       ??_C@_04DPHEKJHL@fts5?$AA@ 101004dc     interop.obj
 0002:0000e4e4       ??_C@_0P@NAHBMDMC@fts5_source_id?$AA@ 101004e4     interop.obj
 0002:0000e4f8       ??_C@_0EE@MFBLFLCB@SELECT?5?$CFs?5FROM?5?$CFs?5T?5WHERE?5T?4?$CFQ?5?$DO@ 101004f8     interop.obj
 0002:0000e540       ??_C@_0EF@CPBHACAK@SELECT?5?$CFs?5FROM?5?$CFs?5T?5WHERE?5T?4?$CFQ?5?$DM@ 10100540     interop.obj
 0002:0000e588       ??_C@_0CB@EJCMNDBM@SELECT?5?$CFs?5FROM?5?$CFs?5T?5WHERE?5T?4?$CFQ?$DN?$DP@ 10100588     interop.obj
 0002:0000e5ac       ??_C@_0CI@IBMIJCLN@REPLACE?5INTO?5?$CFQ?4?8?$CFq_content?8?5VAL@ 101005ac     interop.obj
 0002:0000e5d4       ??_C@_0CH@KANAGELI@DELETE?5FROM?5?$CFQ?4?8?$CFq_content?8?5WHER@ 101005d4     interop.obj
 0002:0000e5fc       ??_C@_0CH@CMIFHF@DELETE?5FROM?5?$CFQ?4?8?$CFq_docsize?8?5WHER@ 101005fc     interop.obj
 0002:0000e624       ??_C@_0CK@JMILCBMB@SELECT?5sz?5FROM?5?$CFQ?4?8?$CFq_docsize?8?5W@ 10100624     interop.obj
 0002:0000e650       ??_C@_0CI@MDNDCIBJ@REPLACE?5INTO?5?$CFQ?4?8?$CFq_config?8?5VALU@ 10100650     interop.obj
 0002:0000e678       ??_C@_0BH@BLCDJBGD@SELECT?5?$CFs?5FROM?5?$CFs?5AS?5T?$AA@ 10100678     interop.obj
 0002:0000e690       ??_C@_0GI@LBOJHFAI@DROP?5TABLE?5IF?5EXISTS?5?$CFQ?4?8?$CFq_data@ 10100690     interop.obj
 0002:0000e6f8       ??_C@_0CG@KFDIHCKD@DROP?5TABLE?5IF?5EXISTS?5?$CFQ?4?8?$CFq_docs@ 101006f8     interop.obj
 0002:0000e720       ??_C@_0CG@BDEBIDEG@DROP?5TABLE?5IF?5EXISTS?5?$CFQ?4?8?$CFq_cont@ 10100720     interop.obj
 0002:0000e748       ??_C@_0CK@JPEMFHJJ@ALTER?5TABLE?5?$CFQ?4?8?$CFq_?$CFs?8?5RENAME?5TO@ 10100748     interop.obj
 0002:0000e774       ??_C@_06HEJKKHEK@config?$AA@ 10100774     interop.obj
 0002:0000e77c       ??_C@_0P@OEAFFAME@?5WITHOUT?5ROWID?$AA@ 1010077c     interop.obj
 0002:0000e78c       ??_C@_0BO@KJIIKFHN@CREATE?5TABLE?5?$CFQ?4?8?$CFq_?$CFq?8?$CI?$CFs?$CJ?$CFs?$AA@ 1010078c     interop.obj
 0002:0000e7ac       ??_C@_0CM@FMPEAAE@fts5?3?5error?5creating?5shadow?5tabl@ 101007ac     interop.obj
 0002:0000e7d8       ??_C@_0BH@FOGGOGNE@id?5INTEGER?5PRIMARY?5KEY?$AA@ 101007d8     interop.obj
 0002:0000e7f0       ??_C@_05OJBGMGFA@?0?5c?$CFd?$AA@ 101007f0     interop.obj
 0002:0000e7f8       ??_C@_0CA@CCDFFKIA@id?5INTEGER?5PRIMARY?5KEY?0?5sz?5BLOB?$AA@ 101007f8     interop.obj
 0002:0000e818       ??_C@_0BB@DBJOGKKF@k?5PRIMARY?5KEY?0?5v?$AA@ 10100818     interop.obj
 0002:0000e82c       ??_C@_0DC@NNCAGEAH@DELETE?5FROM?5?$CFQ?4?8?$CFq_data?8?$DLDELETE?5@ 1010082c     interop.obj
 0002:0000e860       ??_C@_0BN@CMIDFHKG@DELETE?5FROM?5?$CFQ?4?8?$CFq_docsize?8?$DL?$AA@ 10100860     interop.obj
 0002:0000e880       ??_C@_0CA@KFMKPEJG@SELECT?5count?$CI?$CK?$CJ?5FROM?5?$CFQ?4?8?$CFq_?$CFs?8?$AA@ 10100880     interop.obj
 0002:0000e8a0       ??_C@_0L@JAAEPBJE@tokenchars?$AA@ 101008a0     interop.obj
 0002:0000e8ac       ??_C@_0L@KMLLPMIJ@separators?$AA@ 101008ac     interop.obj
 0002:0000e8b8       ??_C@_0BC@DCEAKPHN@remove_diacritics?$AA@ 101008b8     interop.obj
 0002:0000e8cc       ??_C@_05OJENGABA@ascii?$AA@ 101008cc     interop.obj
 0002:0000e8d4       ??_C@_03HNOLNALI@col?$AA@  101008d4     interop.obj
 0002:0000e8d8       ??_C@_03DMHICLNI@row?$AA@  101008d8     interop.obj
 0002:0000e8dc       ??_C@_08EMNENPBA@instance?$AA@ 101008dc     interop.obj
 0002:0000e8e8       ??_C@_0CC@JDJLAILP@fts5vocab?3?5unknown?5table?5type?3?5?$CF@ 101008e8     interop.obj
 0002:0000e90c       ??_C@_0CI@BGKFKDIK@CREATE?5TABlE?5vocab?$CIterm?0?5col?0?5do@ 1010090c     interop.obj
 0002:0000e934       ??_C@_0CD@GEHGHJJN@CREATE?5TABlE?5vocab?$CIterm?0?5doc?0?5cn@ 10100934     interop.obj
 0002:0000e958       ??_C@_0CL@NMAMOEJ@CREATE?5TABlE?5vocab?$CIterm?0?5doc?0?5co@ 10100958     interop.obj
 0002:0000e984       ??_C@_0CB@GHBHBODJ@wrong?5number?5of?5vtable?5arguments@ 10100984     interop.obj
 0002:0000e9a8       ??_C@_0DD@FBAAPLAN@SELECT?5t?4?$CFQ?5FROM?5?$CFQ?4?$CFQ?5AS?5t?5WHER@ 101009a8     interop.obj
 0002:0000e9dc       ??_C@_0BK@FEAIPECG@no?5such?5fts5?5table?3?5?$CFs?4?$CFs?$AA@ 101009dc     interop.obj
 0002:0000e9f8       ??_C@_09EEBDJDHO@fts5vocab?$AA@ 101009f8     interop.obj
 0002:0000ea04       ??_C@_05HIFJDKLD@array?$AA@ 10100a04     interop.obj
 0002:0000ea0c       ??_C@_06IEOJBDIK@object?$AA@ 10100a0c     interop.obj
 0002:0000ea20       ??_C@_0BB@JCEFLFJE@0123456789abcdef?$AA@ 10100a20     interop.obj
 0002:0000ea34       ??_C@_0BN@OLHIFNEE@JSON?5cannot?5hold?5BLOB?5values?$AA@ 10100a34     interop.obj
 0002:0000ea54       ??_C@_0P@HGMNNFIA@malformed?5JSON?$AA@ 10100a54     interop.obj
 0002:0000ea64       ??_C@_03OJMJGOMJ@?$FL0?$FN?$AA@ 10100a64     interop.obj
 0002:0000ea68       ??_C@_0BK@NJDFBDHG@JSON?5path?5error?5near?5?8?$CFq?8?$AA@ 10100a68     interop.obj
 0002:0000ea84       ??_C@_0CL@MLCLHBFD@json_?$CFs?$CI?$CJ?5needs?5an?5odd?5number?5of@ 10100a84     interop.obj
 0002:0000eab0       ??_C@_0DD@MNHKLOMA@json_object?$CI?$CJ?5requires?5an?5even?5n@ 10100ab0     interop.obj
 0002:0000eae4       ??_C@_0CC@DJMFCANB@json_object?$CI?$CJ?5labels?5must?5be?5TEX@ 10100ae4     interop.obj
 0002:0000eb08       ??_C@_03KCHOJKKI@set?$AA@  10100b08     interop.obj
 0002:0000eb0c       ??_C@_06OAOPNKHP@insert?$AA@ 10100b0c     interop.obj
 0002:0000eb14       ??_C@_02GPECMEKF@?$FL?$FN?$AA@ 10100b14     interop.obj
 0002:0000eb18       ??_C@_02MCILKGOH@?$HL?$HN?$AA@ 10100b18     interop.obj
 0002:0000eb20       ??_C@_0FD@FFENPNAL@CREATE?5TABLE?5x?$CIkey?0value?0type?0at@ 10100b20     interop.obj
 0002:0000eb74       ??_C@_04KBDJOJNB@?$FL?$CFd?$FN?$AA@ 10100b74     interop.obj
 0002:0000eb7c       ??_C@_05LJPKLGA@?4?$CF?4?$CKs?$AA@ 10100b7c     interop.obj
 0002:0000eb84       ??_C@_01EPMOAMKG@$?$AA@    10100b84     interop.obj
 0002:0000eb88       ??_C@_04CLCAKCEI@json?$AA@ 10100b88     interop.obj
 0002:0000eb90       ??_C@_0L@JODPLPHJ@json_array?$AA@ 10100b90     interop.obj
 0002:0000eb9c       ??_C@_0BC@KIEPDDP@json_array_length?$AA@ 10100b9c     interop.obj
 0002:0000ebb0       ??_C@_0N@OAGPBLJN@json_extract?$AA@ 10100bb0     interop.obj
 0002:0000ebc0       ??_C@_0M@JLLIJHFE@json_insert?$AA@ 10100bc0     interop.obj
 0002:0000ebcc       ??_C@_0M@PPLOFOKB@json_object?$AA@ 10100bcc     interop.obj
 0002:0000ebd8       ??_C@_0L@EMDCLLH@json_patch?$AA@ 10100bd8     interop.obj
 0002:0000ebe4       ??_C@_0L@HBCANCHG@json_quote?$AA@ 10100be4     interop.obj
 0002:0000ebf0       ??_C@_0M@HABLONOI@json_remove?$AA@ 10100bf0     interop.obj
 0002:0000ebfc       ??_C@_0N@IHIAJGEE@json_replace?$AA@ 10100bfc     interop.obj
 0002:0000ec0c       ??_C@_08HLOCMGGP@json_set?$AA@ 10100c0c     interop.obj
 0002:0000ec18       ??_C@_09GKBKJNAG@json_type?$AA@ 10100c18     interop.obj
 0002:0000ec24       ??_C@_0L@OGBFHNAA@json_valid?$AA@ 10100c24     interop.obj
 0002:0000ec30       ??_C@_0BB@NBIIOEJO@json_group_array?$AA@ 10100c30     interop.obj
 0002:0000ec44       ??_C@_0BC@MBJPJOCB@json_group_object?$AA@ 10100c44     interop.obj
 0002:0000ec58       ??_C@_09JPJDPCA@json_each?$AA@ 10100c58     interop.obj
 0002:0000ec64       ??_C@_09KHPGHLJM@json_tree?$AA@ 10100c64     interop.obj
 0002:0000ec70       ??_C@_0ED@OEJKFPLO@2nd?5argument?5to?5percentile?$CI?$CJ?5is?5@ 10100c70     interop.obj
 0002:0000ecb8       ??_C@_0EA@BKMGCEPO@2nd?5argument?5to?5percentile?$CI?$CJ?5is?5@ 10100cb8     interop.obj
 0002:0000ecf8       ??_C@_0CM@EJOMGILO@1st?5argument?5to?5percentile?$CI?$CJ?5is?5@ 10100cf8     interop.obj
 0002:0000ed24       ??_C@_0BK@LJDALHEI@Inf?5input?5to?5percentile?$CI?$CJ?$AA@ 10100d24     interop.obj
 0002:0000ed40       ??_C@_0L@CFOOMBJH@percentile?$AA@ 10100d40     interop.obj
 0002:0000ed4c       ??_C@_0BB@HILABBIL@unknown?5?2?5escape?$AA@ 10100d4c     interop.obj
 0002:0000ed60       ??_C@_0O@FACMLJNN@unmatched?5?8?$CI?8?$AA@ 10100d60     interop.obj
 0002:0000ed70       ??_C@_0BE@CFACGOLF@?8?$CK?8?5without?5operand?$AA@ 10100d70     interop.obj
 0002:0000ed84       ??_C@_0BE@PCOAOOON@?8?$CL?8?5without?5operand?$AA@ 10100d84     interop.obj
 0002:0000ed98       ??_C@_0BE@IMKNIAF@?8?$DP?8?5without?5operand?$AA@ 10100d98     interop.obj
 0002:0000edac       ??_C@_0BI@PPDBEGLA@?8?$HLm?0n?$HN?8?5without?5operand?$AA@ 10100dac     interop.obj
 0002:0000edc4       ??_C@_0O@DONGCJDE@unmatched?5?8?$HL?8?$AA@ 10100dc4     interop.obj
 0002:0000edd4       ??_C@_0BJ@NKJEOJON@n?5less?5than?5m?5in?5?8?$HLm?0n?$HN?8?$AA@ 10100dd4     interop.obj
 0002:0000edf0       ??_C@_0CB@LCAEBHHB@both?5m?5and?5n?5are?5zero?5in?5?8?$HLm?0n?$HN?8@ 10100df0     interop.obj
 0002:0000ee14       ??_C@_0CG@PFMKOOCB@POSIX?5character?5classes?5not?5supp@ 10100e14     interop.obj
 0002:0000ee3c       ??_C@_0N@DJDIOAIE@unclosed?5?8?$FL?8?$AA@ 10100e3c     interop.obj
 0002:0000ee4c       ??_C@_0BH@GALMDGKD@unrecognized?5character?$AA@ 10100e4c     interop.obj
 0002:0000ee64       ??_C@_01IFKFHFEL@?$IA?$AA@ 10100e64     interop.obj
 0002:0000ee68       ??_C@_01LOCGONAA@?$AA?$AA@ 10100e68     interop.obj
 0002:0000ee6c       ??_C@_0BN@LICHCIEF@error?5SQL?5statement?5?$FL?$CFs?$FN?3?5?$CFs?$AA@ 10100e6c     interop.obj
 0002:0000ee8c       ??_C@_0BA@EPAJIOMA@non?9query?3?5?$FL?$CFs?$FN?$AA@ 10100e8c     interop.obj
 0002:0000ee9c       ??_C@_04LLPFFPHA@S?$CFd?3?$AA@ 10100e9c     interop.obj
 0002:0000eea4       ??_C@_01DGKLNCNG@R?$AA@    10100ea4     interop.obj
 0002:0000eea8       ??_C@_01NANMIPIL@N?$AA@    10100ea8     interop.obj
 0002:0000eeac       ??_C@_04JNFIDGA@T?$CFd?3?$AA@ 10100eac     interop.obj
 0002:0000eeb4       ??_C@_04OGHFOBEC@B?$CFd?3?$AA@ 10100eb4     interop.obj
 0002:0000eebc       ??_C@_04PGHFOLLE@sha1?$AA@ 10100ebc     interop.obj
 0002:0000eec4       ??_C@_0L@LCFGKJFE@sha1_query?$AA@ 10100ec4     interop.obj
 0002:0000eed0       ??_C@_09EAKFBKNJ@tointeger?$AA@ 10100ed0     interop.obj
 0002:0000eedc       ??_C@_06IMKBFIBE@toreal?$AA@ 10100edc     interop.obj
 0002:00011ad0       _sqlite3_version           10103ad0     interop.obj
 0002:0001586a       __OP_SINHjmptab            1010786a     libucrt:87trigh.obj
 0002:0001588a       __OP_COSHjmptab            1010788a     libucrt:87trigh.obj
 0002:000158aa       __OP_TANHjmptab            101078aa     libucrt:87trigh.obj
 0002:00015910       ___acrt_tan_ctable         10107910     libucrt:tan_tables.obj
 0002:00016f10       __OP_ATAN2jmptab           10108f10     libucrt:87triga.obj
 0002:00016f64       __half                     10108f64     libucrt:pow.obj
 0002:00016f70       ___acrt_pow_rcp_t1         10108f70     libucrt:pow_tables.obj
 0002:00017380       ___acrt_pow_log2_t1        10109380     libucrt:pow_tables.obj
 0002:00017b90       ___acrt_pow_rcp_t2         10109b90     libucrt:pow_tables.obj
 0002:00017fa0       ___acrt_pow_log2_t2        10109fa0     libucrt:pow_tables.obj
 0002:000187b0       ___acrt_pow_rcp_t3         1010a7b0     libucrt:pow_tables.obj
 0002:00018fc0       ___acrt_pow_log2_t3        1010afc0     libucrt:pow_tables.obj
 0002:00019fd0       ___acrt_pow_clv            1010bfd0     libucrt:pow_tables.obj
 0002:00019ff0       ___acrt_pow_exp2_tbl       1010bff0     libucrt:pow_tables.obj
 0002:0001a7f0       ___acrt_exp_tbl_addr       1010c7f0     libucrt:exp_tables.obj
 0002:0001ac00       ___acrt_cos_sin_ctable     1010cc00     libucrt:cos_sin_ctable.obj
 0002:0001b418       __atan_table               1010d418     libucrt:atan_table.obj
 0002:0001cc40       ___acrt_acos_asin_tbl_addr 1010ec40     libucrt:acos_asin_tbl_addr.obj
 0002:0001db40       ___acrt_acos_asin_t_table  1010fb40     libucrt:acos_asin_t_table.obj
 0002:0001eaa8       __load_config_used         10110aa8     LIBCMT:loadcfg.obj
 0002:00055dd0       ___safe_se_handler_table   10147dd0     <linker-defined>
 0002:00056148       ___rtc_iaa                 10148148     LIBCMT:_initsect_.obj
 0002:0005614c       ___rtc_izz                 1014814c     LIBCMT:_initsect_.obj
 0002:00056150       ___rtc_taa                 10148150     LIBCMT:_initsect_.obj
 0002:00056154       ___rtc_tzz                 10148154     LIBCMT:_initsect_.obj
 0002:00059668       __IMPORT_DESCRIPTOR_KERNEL32 1014b668     kernel32:KERNEL32.dll
 0002:0005967c       __IMPORT_DESCRIPTOR_ADVAPI32 1014b67c     advapi32:ADVAPI32.dll
 0002:00059690       __IMPORT_DESCRIPTOR_mscoree 1014b690     mscoree:mscoree.dll
 0002:000596a4       __NULL_IMPORT_DESCRIPTOR   1014b6a4     kernel32:KERNEL32.dll
 0003:00000000       ___security_cookie_complement 1014d000     LIBCMT:gs_cookie.obj
 0003:00000004       ___security_cookie         1014d004     LIBCMT:gs_cookie.obj
 0003:00000008       ___scrt_native_dllmain_reason 1014d008     LIBCMT:utility.obj
 0003:00000010       ___isa_enabled             1014d010     LIBCMT:_cpu_disp_.obj
 0003:00000030       __NLG_Destination          1014d030     libvcruntime:_exsup_.obj
 0003:00000048       ___abort_behavior          1014d048     libucrt:abort.obj
 0003:00000050       ___acrt_initial_locale_data 1014d050     libucrt:nlsdata.obj
 0003:00000108       ___acrt_initial_locale_pointers 1014d108     libucrt:nlsdata.obj
 0003:00000110       ___acrt_wide_c_locale_string 1014d110     libucrt:nlsdata.obj
 0003:000002b8       __mbctype                  1014d2b8     libucrt:mbctype.obj
 0003:000003c0       __mbcasemap                1014d3c0     libucrt:mbctype.obj
 0003:000004c0       ___acrt_initial_multibyte_data 1014d4c0     libucrt:mbctype.obj
 0003:000006e0       ___acrt_current_multibyte_data 1014d6e0     libucrt:mbctype.obj
 0003:000006e8       __iob                      1014d6e8     libucrt:_file.obj
 0003:00000790       ___globallocalestatus      1014d790     libucrt:glstatus.obj
 0003:00000794       ___acrt_lconv_static_decimal 1014d794     libucrt:localeconv.obj
 0003:00000798       ___acrt_lconv_static_W_decimal 1014d798     libucrt:localeconv.obj
 0003:000007a0       ___acrt_lconv_c            1014d7a0     libucrt:localeconv.obj
 0003:000007f0       ___dcrt_lowio_console_output_handle 1014d7f0     libucrt:initcon.obj
 0003:00000800       __fltused                  1014d800     LIBCMT:fltused.obj
 0003:00001d90       ___scrt_current_native_startup_state 1014ed90     LIBCMT:utility.obj
 0003:00001d94       ___scrt_native_startup_lock 1014ed94     LIBCMT:utility.obj
 0003:00001db8       ?__type_info_root_node@@3U__type_info_node@@A 1014edb8     LIBCMT:tncleanup.obj
 0003:00001dc0       ?_OptionsStorage@?1??__local_stdio_printf_options@@9@4_KA 1014edc0     LIBCMT:default_local_stdio_options.obj
 0003:00001dc8       ?_OptionsStorage@?1??__local_stdio_scanf_options@@9@4_KA 1014edc8     LIBCMT:default_local_stdio_options.obj
 0003:00001dd0       ___scrt_debugger_hook_flag 1014edd0     LIBCMT:utility_desktop.obj
 0003:00001dd4       ___isa_available           1014edd4     LIBCMT:_cpu_disp_.obj
 0003:00001dd8       ___favor                   1014edd8     LIBCMT:_cpu_disp_.obj
 0003:00001e54       ___pPurecall               1014ee54     libvcruntime:purevirt_data.obj
 0003:00001e58       ?pArgList@UnDecorator@@0PAVReplicator@@A 1014ee58     libvcruntime:undname.obj
 0003:00001e5c       ?pZNameList@UnDecorator@@0PAVReplicator@@A 1014ee5c     libvcruntime:undname.obj
 0003:00001e60       ?pTemplateArgList@UnDecorator@@0PAVReplicator@@A 1014ee60     libvcruntime:undname.obj
 0003:00001e64       ?gName@UnDecorator@@0PBDB  1014ee64     libvcruntime:undname.obj
 0003:00001e68       ?name@UnDecorator@@0PBDB   1014ee68     libvcruntime:undname.obj
 0003:00001e6c       ?outputString@UnDecorator@@0PADA 1014ee6c     libvcruntime:undname.obj
 0003:00001e70       ?maxStringLength@UnDecorator@@0HA 1014ee70     libvcruntime:undname.obj
 0003:00001e74       ?disableFlags@UnDecorator@@0KA 1014ee74     libvcruntime:undname.obj
 0003:00001e78       ?fExplicitTemplateParams@UnDecorator@@0_NA 1014ee78     libvcruntime:undname.obj
 0003:00001e79       ?fGetTemplateArgumentList@UnDecorator@@0_NA 1014ee79     libvcruntime:undname.obj
 0003:00001e7c       ?m_pGetParameter@UnDecorator@@0P6APADJ@ZA 1014ee7c     libvcruntime:undname.obj
 0003:00001fa8       __environ_table            1014efa8     libucrt:environment_initialization.obj
 0003:00001fac       __wenviron_table           1014efac     libucrt:environment_initialization.obj
 0003:00001fb0       ___dcrt_initial_wide_environment 1014efb0     libucrt:environment_initialization.obj
 0003:00001fb4       ___dcrt_initial_narrow_environment 1014efb4     libucrt:environment_initialization.obj
 0003:00001fb8       ___acrt_atexit_table       1014efb8     libucrt:onexit.obj
 0003:00001fc4       ___acrt_at_quick_exit_table 1014efc4     libucrt:onexit.obj
 0003:000020ac       ___acrt_locale_changed_data 1014f0ac     libucrt:wsetlocale.obj
 0003:000020b0       ___acrt_current_locale_data 1014f0b0     libucrt:nlsdata.obj
 0003:000020b4       ?_timezone@@3V?$dual_state_global@J@__crt_state_management@@A 1014f0b4     libucrt:timeset.obj
 0003:000020b8       ?_daylight@@3V?$dual_state_global@H@__crt_state_management@@A 1014f0b8     libucrt:timeset.obj
 0003:000020bc       ?_dstbias@@3V?$dual_state_global@J@__crt_state_management@@A 1014f0bc     libucrt:timeset.obj
 0003:000022bc       ___mblocalename            1014f2bc     libucrt:mbctype.obj
 0003:000022c0       ___mbcodepage              1014f2c0     libucrt:mbctype.obj
 0003:000022c4       ___ismbcodepage            1014f2c4     libucrt:mbctype.obj
 0003:000022c8       ___mbulinfo                1014f2c8     libucrt:mbctype.obj
 0003:000022dc       ___argc                    1014f2dc     libucrt:argv_data.obj
 0003:000022e0       ___argv                    1014f2e0     libucrt:argv_data.obj
 0003:000022e4       ___wargv                   1014f2e4     libucrt:argv_data.obj
 0003:000022e8       __acmdln                   1014f2e8     libucrt:argv_data.obj
 0003:000022ec       __wcmdln                   1014f2ec     libucrt:argv_data.obj
 0003:000022f0       __pgmptr                   1014f2f0     libucrt:argv_data.obj
 0003:000022f4       ___acrt_heap               1014f2f4     libucrt:heap_handle.obj
 0003:000022f8       ___pioinfo                 1014f2f8     libucrt:ioinit.obj
 0003:000024f8       __nhandle                  1014f4f8     libucrt:ioinit.obj
 0003:00002514       ___acrt_stdout_buffer      1014f514     libucrt:_sftbuf.obj
 0003:00002518       ___acrt_stderr_buffer      1014f518     libucrt:_sftbuf.obj
 0003:00002520       __nstream                  1014f520     libucrt:_file.obj
 0003:00002524       ___piob                    1014f524     libucrt:_file.obj
 0003:00002528       ___acrt_lconv_static_null  1014f528     libucrt:localeconv.obj
 0003:0000252c       ___acrt_lconv_static_W_null 1014f52c     libucrt:localeconv.obj
 0003:00002530       ___fastflag                1014f530     libucrt:fp_flags.obj
 0003:00002540       _sqlite3_data_directory    1014f540     interop.obj
 0003:00002544       _sqlite3_temp_directory    1014f544     interop.obj
 0003:000025dc       _g_hProvider               1014f5dc     interop.obj
 0003:000046e4       ___scrt_ucrt_dll_is_in_use 101516e4     <common>
 0003:000046e8       ___dyn_tls_init_callback   101516e8     <common>
 0003:000046ec       __pDestructExceptionObject 101516ec     <common>
 0003:000046f0       __pmatherr                 101516f0     <common>
 0003:000046f4       ___use_sse2_mathfcns       101516f4     <common>
 0005:00000000       __real@3f50624dd2f1a9fc    10153000     interop.obj
 0005:00000008       __real@3ff0000000000000    10153008     interop.obj
 0005:00000010       __real@547d42aea2879f2e    10153010     interop.obj
 0005:00000018       __real@4059000000000000    10153018     interop.obj
 0005:00000020       __real@412e848000000000    10153020     interop.obj
 0005:00000028       __real@3fe0000000000000    10153028     interop.obj
 0005:00000030       __xmm@6765656463617979756f6e6965636100 10153030     interop.obj
 0005:00000040       __xmm@6f7a797775757473726f6e6c6b6a6968 10153040     interop.obj
 0005:00000050       __xmm@726f6965616e676a6f6b67756f696175 10153050     interop.obj
 0005:00000060       __xmm@0000000000000000796f656168747375 10153060     interop.obj
 0005:00000070       __xmm@706e6d6c6c6b69686867666564646261 10153070     interop.obj
 0005:00000080       __xmm@61797774687a79787777767574737272 10153080     interop.obj
 0005:00000090       __xmm@41414141414141414141414141414141 10153090     interop.obj
 0005:000000a0       __xmm@ffffffffffffffffffffffffffffffff 101530a0     interop.obj
 0005:000000b0       __xmm@5a5a5a5a5a5a5a5a5a5a5a5a5a5a5a5a 101530b0     interop.obj
 0005:000000c0       __xmm@20202020202020202020202020202020 101530c0     interop.obj
 0005:000000d0       __real@4066800000000000    101530d0     interop.obj
 0005:000000d8       __real@400921fb54442d18    101530d8     interop.obj
 0005:000000e0       __real@407f400000000000    101530e0     interop.obj
 0005:000000e8       __real@4014000000000000    101530e8     interop.obj
 0005:000000f0       __real@40d3880000000000    101530f0     interop.obj
 0005:000000f8       __real@4034000000000000    101530f8     interop.obj
 0005:00000100       __real@41dfffffffc00000    10153100     interop.obj
 0005:00000108       __real@c3e0000000000000    10153108     interop.obj
 0005:00000110       __real@43e0000000000000    10153110     interop.obj
 0005:00000118       __real@4024000000000000    10153118     interop.obj
 0005:00000120       __real@4194997000000000    10153120     interop.obj
 0005:00000128       __real@0000000000000000    10153128     interop.obj
 0005:00000130       __real@41547f8b20000000    10153130     interop.obj
 0005:00000138       __real@8000000000000000    10153138     interop.obj
 0005:00000140       __real@7fe1ccf385ebc8a0    10153140     interop.obj
 0005:00000148       __real@7ff0000000000000    10153148     interop.obj
 0005:00000150       __real@4480f0cf064dd592    10153150     interop.obj
 0005:00000158       __real@41ddcd6500000000    10153158     interop.obj
 0005:00000160       __real@7f800000            10153160     interop.obj
 0005:00000168       __real@413c7dd040000000    10153168     interop.obj
 0005:00000170       __real@40e1d58800000000    10153170     interop.obj
 0005:00000178       __real@405e866666666666    10153178     interop.obj
 0005:00000180       __real@4076d40000000000    10153180     interop.obj
 0005:00000188       __real@403e99a027525461    10153188     interop.obj
 0005:00000190       __real@4097d20000000000    10153190     interop.obj
 0005:00000198       __real@c08f400000000000    10153198     interop.obj
 0005:000001a0       __real@4a511b0ec57e649a    101531a0     interop.obj
 0005:000001a8       __real@410e848000000000    101531a8     interop.obj
 0005:000001b0       __real@4087700000000000    101531b0     interop.obj
 0005:000001b8       __real@4126e36000000000    101531b8     interop.obj
 0005:000001c0       __real@408f400000000000    101531c0     interop.obj
 0005:000001c8       __real@415312d000000000    101531c8     interop.obj
 0005:000001d0       __real@4000000000000000    101531d0     interop.obj
 0005:000001d8       __real@bff0000000000000    101531d8     interop.obj
 0005:000001e0       __real@41a0000000000000    101531e0     interop.obj
 0005:000001e8       __real@4048000000000000    101531e8     interop.obj
 0005:000001f0       __real@3fefffffc0000000    101531f0     interop.obj
 0005:000001f8       __real@3ff0000020000000    101531f8     interop.obj
 0005:00000200       __xmm@41f00000000000000000000000000000 10153200     interop.obj
 0005:00000210       __real@3f847ae147ae147b    10153210     interop.obj
 0005:00000220       __xmm@80000000000000008000000000000000 10153220     interop.obj
 0005:00000230       __xmm@000000000000000100000001000007d0 10153230     interop.obj
 0005:00000240       __real@3fd0000000000000    10153240     interop.obj
 0005:00000248       __real@42e7f907ca644000    10153248     interop.obj
 0005:00000250       __real@42fa6401072fe000    10153250     interop.obj
 0005:00000258       __real@401c000000000000    10153258     interop.obj
 0005:00000260       __real@bfe0000000000000    10153260     interop.obj
 0005:00000268       __real@3fb999999999999a    10153268     interop.obj
 0005:00000270       __real@54b249ad2594c37d    10153270     interop.obj
 0005:00000278       __real@4202a05f20000000    10153278     interop.obj
 0005:00000280       __real@3e45798ee2308c3a    10153280     interop.obj
 0005:00000288       __real@4197d78400000000    10153288     interop.obj
 0005:00000290       __xmm@30303030303030303030303030303030 10153290     interop.obj
 0005:000002a0       __xmm@00000001000000010000000100000001 101532a0     interop.obj
 0005:000002b0       __real@404dffdf3b645a1d    101532b0     interop.obj
 0005:000002b8       __real@546d42aea2879f2e    101532b8     interop.obj
 0005:000002c0       __real@403e000000000000    101532c0     interop.obj
 0005:000002c8       __real@4018000000000000    101532c8     interop.obj
 0005:000002d0       __real@bf50624dd2f1a9fc    101532d0     interop.obj
 0005:000002d8       __real@3eb0c6f7a0b5ed8d    101532d8     interop.obj
 0005:000002e0       __real@400199999999999a    101532e0     interop.obj
 0005:000002e8       __real@3fe8000000000000    101532e8     interop.obj
 0005:000002f0       __real@3ff3333333333333    101532f0     interop.obj
 0005:00000300       __xmm@00000003000000020000000100000000 10153300     interop.obj
 0005:00000310       __xmm@00000028000000280000002800000028 10153310     interop.obj
 0005:00000320       __xmm@00000050000000500000005000000050 10153320     interop.obj
 0005:00000330       __xmm@00000004000000040000000400000004 10153330     interop.obj
 0005:00000340       __xmm@40000000000000004000000000000000 10153340     interop.obj

 entry point at        0001:000f07c4

 Static symbols

 0000:ffea4000       .debug$S                   10000000     kernel32:KERNEL32.dll
 0000:ffea4000       .debug$S                   10000000     kernel32:KERNEL32.dll
 0000:ffea4000       .debug$S                   10000000     kernel32:KERNEL32.dll
 0000:ffea4000       .debug$S                   10000000     kernel32:KERNEL32.dll
 0000:ffea4000       .debug$S                   10000000     kernel32:KERNEL32.dll
 0000:ffea4000       .debug$S                   10000000     kernel32:KERNEL32.dll
 0000:ffea4000       .debug$S                   10000000     kernel32:KERNEL32.dll
 0000:ffea4000       .debug$S                   10000000     kernel32:KERNEL32.dll
 0000:ffea4000       .debug$S                   10000000     kernel32:KERNEL32.dll
 0000:ffea4000       .debug$S                   10000000     kernel32:KERNEL32.dll
 0000:ffea4000       .debug$S                   10000000     kernel32:KERNEL32.dll
 0000:ffea4000       .debug$S                   10000000     kernel32:KERNEL32.dll
 0000:ffea4000       .debug$S                   10000000     kernel32:KERNEL32.dll
 0000:ffea4000       .debug$S                   10000000     kernel32:KERNEL32.dll
 0000:ffea4000       .debug$S                   10000000     kernel32:KERNEL32.dll
 0000:ffea4000       .debug$S                   10000000     kernel32:KERNEL32.dll
 0000:ffea4000       .debug$S                   10000000     kernel32:KERNEL32.dll
 0000:ffea4000       .debug$S                   10000000     kernel32:KERNEL32.dll
 0000:ffea4000       .debug$S                   10000000     kernel32:KERNEL32.dll
 0000:ffea4000       .debug$S                   10000000     kernel32:KERNEL32.dll
 0000:ffea4000       .debug$S                   10000000     kernel32:KERNEL32.dll
 0000:ffea4000       .debug$S                   10000000     kernel32:KERNEL32.dll
 0000:ffea4000       .debug$S                   10000000     kernel32:KERNEL32.dll
 0000:ffea4000       .debug$S                   10000000     kernel32:KERNEL32.dll
 0000:ffea4000       .debug$S                   10000000     kernel32:KERNEL32.dll
 0000:ffea4000       .debug$S                   10000000     kernel32:KERNEL32.dll
 0000:ffea4000       .debug$S                   10000000     mscoree:mscoree.dll
 0000:ffea4000       .debug$S                   10000000     advapi32:ADVAPI32.dll
 0000:ffea4000       .debug$S                   10000000     advapi32:ADVAPI32.dll
 0000:ffea4000       .debug$S                   10000000     advapi32:ADVAPI32.dll
 0000:ffea4000       .debug$S                   10000000     advapi32:ADVAPI32.dll
 0000:ffea4000       .debug$S                   10000000     advapi32:ADVAPI32.dll
 0000:ffea4000       .debug$S                   10000000     advapi32:ADVAPI32.dll
 0000:ffea4000       .debug$S                   10000000     advapi32:ADVAPI32.dll
 0000:ffea4000       .debug$S                   10000000     advapi32:ADVAPI32.dll
 0000:ffea4000       .debug$S                   10000000     advapi32:ADVAPI32.dll
 0000:ffea4000       .debug$S                   10000000     kernel32:KERNEL32.dll
 0000:ffea4000       .debug$S                   10000000     kernel32:KERNEL32.dll
 0000:ffea4000       .debug$S                   10000000     kernel32:KERNEL32.dll
 0000:ffea4000       .debug$S                   10000000     kernel32:KERNEL32.dll
 0000:ffea4000       .debug$S                   10000000     kernel32:KERNEL32.dll
 0000:ffea4000       .debug$S                   10000000     kernel32:KERNEL32.dll
 0000:ffea4000       .debug$S                   10000000     kernel32:KERNEL32.dll
 0000:ffea4000       .debug$S                   10000000     kernel32:KERNEL32.dll
 0000:ffea4000       .debug$S                   10000000     kernel32:KERNEL32.dll
 0000:ffea4000       .debug$S                   10000000     kernel32:KERNEL32.dll
 0000:ffea4000       .debug$S                   10000000     kernel32:KERNEL32.dll
 0000:ffea4000       .debug$S                   10000000     kernel32:KERNEL32.dll
 0000:ffea4000       .debug$S                   10000000     kernel32:KERNEL32.dll
 0000:ffea4000       .debug$S                   10000000     kernel32:KERNEL32.dll
 0000:ffea4000       .debug$S                   10000000     kernel32:KERNEL32.dll
 0000:ffea4000       .debug$S                   10000000     kernel32:KERNEL32.dll
 0000:ffea4000       .debug$S                   10000000     kernel32:KERNEL32.dll
 0000:ffea4000       .debug$S                   10000000     kernel32:KERNEL32.dll
 0000:ffea4000       .debug$S                   10000000     kernel32:KERNEL32.dll
 0000:ffea4000       .debug$S                   10000000     kernel32:KERNEL32.dll
 0000:ffea4000       .debug$S                   10000000     kernel32:KERNEL32.dll
 0000:ffea4000       .debug$S                   10000000     kernel32:KERNEL32.dll
 0000:ffea4000       .debug$S                   10000000     kernel32:KERNEL32.dll
 0000:ffea4000       .debug$S                   10000000     kernel32:KERNEL32.dll
 0000:ffea4000       .debug$S                   10000000     kernel32:KERNEL32.dll
 0000:ffea4000       .debug$S                   10000000     kernel32:KERNEL32.dll
 0000:ffea4000       .debug$S                   10000000     kernel32:KERNEL32.dll
 0000:ffea4000       .debug$S                   10000000     kernel32:KERNEL32.dll
 0000:ffea4000       .debug$S                   10000000     kernel32:KERNEL32.dll
 0000:ffea4000       .debug$S                   10000000     kernel32:KERNEL32.dll
 0000:ffea4000       .debug$S                   10000000     kernel32:KERNEL32.dll
 0000:ffea4000       .debug$S                   10000000     kernel32:KERNEL32.dll
 0000:ffea4000       .debug$S                   10000000     kernel32:KERNEL32.dll
 0000:ffea4000       .debug$S                   10000000     kernel32:KERNEL32.dll
 0000:ffea4000       .debug$S                   10000000     kernel32:KERNEL32.dll
 0000:ffea4000       .debug$S                   10000000     kernel32:KERNEL32.dll
 0000:ffea4000       .debug$S                   10000000     kernel32:KERNEL32.dll
 0000:ffea4000       .debug$S                   10000000     kernel32:KERNEL32.dll
 0000:ffea4000       .debug$S                   10000000     kernel32:KERNEL32.dll
 0000:ffea4000       .debug$S                   10000000     kernel32:KERNEL32.dll
 0000:ffea4000       .debug$S                   10000000     kernel32:KERNEL32.dll
 0000:ffea4000       .debug$S                   10000000     kernel32:KERNEL32.dll
 0000:ffea4000       .debug$S                   10000000     kernel32:KERNEL32.dll
 0000:ffea4000       .debug$S                   10000000     kernel32:KERNEL32.dll
 0000:ffea4000       .debug$S                   10000000     kernel32:KERNEL32.dll
 0000:ffea4000       .debug$S                   10000000     kernel32:KERNEL32.dll
 0000:ffea4000       .debug$S                   10000000     kernel32:KERNEL32.dll
 0000:ffea4000       .debug$S                   10000000     kernel32:KERNEL32.dll
 0000:ffea4000       .debug$S                   10000000     System.Data.SQLite.exp
 0000:ffea4000       .debug$S                   10000000     kernel32:KERNEL32.dll
 0000:ffea4000       .debug$S                   10000000     kernel32:KERNEL32.dll
 0000:ffea4000       .debug$S                   10000000     kernel32:KERNEL32.dll
 0000:ffea4000       .debug$S                   10000000     kernel32:KERNEL32.dll
 0000:ffea4000       .debug$S                   10000000     kernel32:KERNEL32.dll
 0000:ffea4000       .debug$S                   10000000     kernel32:KERNEL32.dll
 0000:ffea4000       .debug$S                   10000000     kernel32:KERNEL32.dll
 0000:ffea4000       .debug$S                   10000000     kernel32:KERNEL32.dll
 0000:ffea4000       .debug$S                   10000000     kernel32:KERNEL32.dll
 0000:ffea4000       .debug$S                   10000000     kernel32:KERNEL32.dll
 0000:ffea4000       .debug$S                   10000000     kernel32:KERNEL32.dll
 0000:ffea4000       .debug$S                   10000000     kernel32:KERNEL32.dll
 0000:ffea4000       .debug$S                   10000000     kernel32:KERNEL32.dll
 0000:ffea4000       .debug$S                   10000000     kernel32:KERNEL32.dll
 0000:ffea4000       .debug$S                   10000000     kernel32:KERNEL32.dll
 0000:ffea4000       .debug$S                   10000000     kernel32:KERNEL32.dll
 0000:ffea4000       .debug$S                   10000000     kernel32:KERNEL32.dll
 0000:ffea4000       .debug$S                   10000000     kernel32:KERNEL32.dll
 0000:ffea4000       .debug$S                   10000000     kernel32:KERNEL32.dll
 0000:ffea4000       .debug$S                   10000000     kernel32:KERNEL32.dll
 0000:ffea4000       .debug$S                   10000000     kernel32:KERNEL32.dll
 0000:ffea4000       .debug$S                   10000000     kernel32:KERNEL32.dll
 0000:ffea4000       .debug$S                   10000000     kernel32:KERNEL32.dll
 0000:ffea4000       .debug$S                   10000000     kernel32:KERNEL32.dll
 0000:ffea4000       .debug$S                   10000000     kernel32:KERNEL32.dll
 0000:ffea4000       .debug$S                   10000000     kernel32:KERNEL32.dll
 0000:ffea4000       .debug$S                   10000000     kernel32:KERNEL32.dll
 0000:ffea4000       .debug$S                   10000000     kernel32:KERNEL32.dll
 0000:ffea4000       .debug$S                   10000000     kernel32:KERNEL32.dll
 0000:ffea4000       .debug$S                   10000000     kernel32:KERNEL32.dll
 0000:ffea4000       .debug$S                   10000000     kernel32:KERNEL32.dll
 0000:ffea4000       .debug$S                   10000000     kernel32:KERNEL32.dll
 0000:ffea4000       .debug$S                   10000000     kernel32:KERNEL32.dll
 0000:ffea4000       .debug$S                   10000000     kernel32:KERNEL32.dll
 0000:ffea4000       .debug$S                   10000000     kernel32:KERNEL32.dll
 0000:ffea4000       .debug$S                   10000000     kernel32:KERNEL32.dll
 0000:ffea4000       .debug$S                   10000000     kernel32:KERNEL32.dll
 0000:ffea4000       .debug$S                   10000000     kernel32:KERNEL32.dll
 0000:ffea4000       .debug$S                   10000000     kernel32:KERNEL32.dll
 0000:ffea4000       .debug$S                   10000000     kernel32:KERNEL32.dll
 0000:ffea4000       .debug$S                   10000000     kernel32:KERNEL32.dll
 0000:ffea4000       .debug$S                   10000000     kernel32:KERNEL32.dll
 0000:ffea4000       .debug$S                   10000000     kernel32:KERNEL32.dll
 0000:ffea4000       .debug$S                   10000000     kernel32:KERNEL32.dll
 0000:ffea4000       .debug$S                   10000000     kernel32:KERNEL32.dll
 0000:ffea4000       .debug$S                   10000000     kernel32:KERNEL32.dll
 0000:ffea4000       .debug$S                   10000000     kernel32:KERNEL32.dll
 0000:ffea4000       .debug$S                   10000000     kernel32:KERNEL32.dll
 0000:ffea4000       .debug$S                   10000000     kernel32:KERNEL32.dll
 0000:ffea4000       .debug$S                   10000000     kernel32:KERNEL32.dll
 0000:ffea4000       .debug$S                   10000000     kernel32:KERNEL32.dll
 0000:ffea4000       .debug$S                   10000000     kernel32:KERNEL32.dll
 0000:ffea4000       .debug$S                   10000000     kernel32:KERNEL32.dll
 0000:ffea4000       .debug$S                   10000000     kernel32:KERNEL32.dll
 0000:ffea4000       .debug$S                   10000000     kernel32:KERNEL32.dll
 0000:ffea4000       .debug$S                   10000000     kernel32:KERNEL32.dll
 0000:ffea4000       .debug$S                   10000000     kernel32:KERNEL32.dll
 0000:ffea4000       .debug$S                   10000000     kernel32:KERNEL32.dll
 0001:00000000       GlobalVar1592              10001000     System.Data.SQLite.netmodule
 0001:00000050       GlobalVar1593              10001050     System.Data.SQLite.netmodule
 0001:000000a0       GlobalVar1594              100010a0     System.Data.SQLite.netmodule
 0001:000000b0       GlobalVar1595              100010b0     System.Data.SQLite.netmodule
 0001:00000120       GlobalVar1596              10001120     System.Data.SQLite.netmodule
 0001:000004b4       ?dllmain_crt_dispatch@@YGHQAUHINSTANCE__@@KQAX@Z 100014b4 f   LIBCMT:dll_dllmain.obj
 0001:00000507       ?dllmain_crt_process_attach@@YAHQAUHINSTANCE__@@QAX@Z 10001507 f   LIBCMT:dll_dllmain.obj
 0001:00000619       ?dllmain_crt_process_detach@@YAH_N@Z 10001619 f   LIBCMT:dll_dllmain.obj
 0001:00000696       ?dllmain_dispatch@@YAHQAUHINSTANCE__@@KQAX@Z 10001696 f   LIBCMT:dll_dllmain.obj
 0001:00000792       ?dllmain_raw@@YGHQAUHINSTANCE__@@KQAX@Z 10001792 f   LIBCMT:dll_dllmain.obj
 0001:000007fc       ?find_pe_section@@YAPAU_IMAGE_SECTION_HEADER@@QAEI@Z 100017fc f   LIBCMT:utility.obj
 0001:00000da0       $$000000                   10001da0     LIBCMT:_sehprolg4_.obj
 0001:00000fb0       $$000000                   10001fb0     libvcruntime:memmove.obj
 0001:00001214       TrailingUpVec              10002214     libvcruntime:memmove.obj
 0001:000012c0       TrailingDownVec            100022c0     libvcruntime:memmove.obj
 0001:00001530       _ValidateLocalCookies      10002530 f   libvcruntime:_chandler4_.obj
 0001:00001760       $$000000                   10002760     libvcruntime:memset.obj
 0001:000018c0       $$000000                   100028c0     libvcruntime:_exsup4_.obj
 0001:00001950       __unwind_handler4          10002950 f   libvcruntime:_exsup4_.obj
 0001:00001bbc       ?try_get_function@@YAPAXW4function_id@?A0x89697e75@@QBDQBW4module_id@2@2@Z 10002bbc f   libvcruntime:winapi_downlevel.obj
 0001:00001c5c       ?try_get_module@@YAPAUHINSTANCE__@@W4module_id@?A0x89697e75@@@Z 10002c5c f   libvcruntime:winapi_downlevel.obj
 0001:00001ea0       $$000000                   10002ea0     libvcruntime:_exsup_.obj
 0001:00001ec0       __unwind_handler           10002ec0 f   libvcruntime:_exsup_.obj
 0001:00001fe4       ??$thread_start@P6GIPAX@Z@@YGKQAX@Z 10002fe4 f   libucrt:thread.obj
 0001:00002098       ?common_end_thread@@YAXI@Z 10003098 f   libucrt:thread.obj
 0001:000020ef       ?create_thread_parameter@@YAPAU__acrt_thread_parameter@@QAX0@Z 100030ef f   libucrt:thread.obj
 0001:000021cb       ??$common_tox_l@$1?internal_islower_l@@YA_NHQAU__crt_locale_pointers@@@Z$1?internal_map_upper@@YAHH0@Z@@YAHHKQAU__crt_locale_pointers@@@Z 100031cb f   libucrt:tolower_toupper.obj
 0001:00002315       ??$common_tox_l@$1?internal_isupper_l@@YA_NHQAU__crt_locale_pointers@@@Z$1?internal_map_lower@@YAHH0@Z@@YAHHKQAU__crt_locale_pointers@@@Z 10003315 f   libucrt:tolower_toupper.obj
 0001:000024e2       ?internal_islower_l@@YA_NHQAU__crt_locale_pointers@@@Z 100034e2 f   libucrt:tolower_toupper.obj
 0001:000024ff       ?internal_isupper_l@@YA_NHQAU__crt_locale_pointers@@@Z 100034ff f   libucrt:tolower_toupper.obj
 0001:0000260d       ??$common_localtime_s@_J@@YAHQAUtm@@QB_J@Z 1000360d f   libucrt:localtime.obj
 0001:00002940       $$000000                   10003940     libucrt:strcspn.obj
 0001:00002a70       ?shortsort@@YAXPAD0IP6AHPBX1@Z@Z 10003a70 f   libucrt:qsort.obj
 0001:00002b10       ?swap@@YAXPAD0I@Z          10003b10 f   libucrt:qsort.obj
 0001:00002ef0       $$000000                   10003ef0     libucrt:strncpy.obj
 0001:00003020       $$000000                   10004020     libucrt:strncmp.obj
 0001:000031d4       ??$common_strerror@D@@YAPADH@Z 100041d4 f   libucrt:strerror.obj
 0001:00003542       ?atexit_exception_filter@@YAHK@Z 10004542 f   libucrt:exit.obj
 0001:00003555       ?common_exit@@YAXHW4_crt_exit_cleanup_mode@@W4_crt_exit_return_mode@@@Z 10004555 f   libucrt:exit.obj
 0001:0000366e       ?exit_or_terminate_process@@YAXI@Z 1000466e f   libucrt:exit.obj
 0001:000036af       ?is_managed_app@@YA_NXZ    100046af f   libucrt:exit.obj
 0001:000036f3       ?try_cor_exit_process@@YAXI@Z 100046f3 f   libucrt:exit.obj
 0001:00003797       ??$common_configure_argv@D@@YAHW4_crt_argv_mode@@@Z 10004797 f   libucrt:argv_parsing.obj
 0001:000038bb       ??$parse_command_line@D@@YAXPADPAPAD0PAI2@Z 100048bb f   libucrt:argv_parsing.obj
 0001:00003a90       ??$common_get_or_create_environment_nolock@D@@YAPAPADXZ 10004a90 f   libucrt:environment_initialization.obj
 0001:00003abf       ??$common_initialize_environment_nolock@D@@YAHXZ 10004abf f   libucrt:environment_initialization.obj
 0001:00003b18       ??$create_environment@D@@YAQAPADQAD@Z 10004b18 f   libucrt:environment_initialization.obj
 0001:00003be9       ??$free_environment@_W@@YAXQAPA_W@Z 10004be9 f   libucrt:environment_initialization.obj
 0001:00003be9       ??$free_environment@D@@YAXQAPAD@Z 10004be9 f   libucrt:environment_initialization.obj
 0001:00003c18       ??$initialize_environment_by_cloning_nolock@D@@YAHXZ 10004c18 f   libucrt:environment_initialization.obj
 0001:00003cd7       ??$uninitialize_environment_internal@D@@YAXAAPAPAD@Z 10004cd7 f   libucrt:environment_initialization.obj
 0001:00003cf2       ??$uninitialize_environment_internal@_W@@YAXAAPAPA_W@Z 10004cf2 f   libucrt:environment_initialization.obj
 0001:00003e5f       ??R<lambda_275893d493268fdec8709772e3fcec0e>@@QBEHXZ 10004e5f f   libucrt:onexit.obj
 0001:00003f7f       ??R<lambda_4e60a939b0d047cfe11ddc22648dfba9>@@QBEHXZ 10004f7f f   libucrt:onexit.obj
 0001:00004154       _initialize_global_variables 10005154 f   libucrt:initialization.obj
 0001:00004166       _initialize_c              10005166 f   libucrt:initialization.obj
 0001:00004180       _uninitialize_environment  10005180 f   libucrt:initialization.obj
 0001:00004188       _initialize_pointers       10005188 f   libucrt:initialization.obj
 0001:000041c5       _uninitialize_vcruntime    100051c5 f   libucrt:initialization.obj
 0001:000041ce       _uninitialize_allocated_memory 100051ce f   libucrt:initialization.obj
 0001:00004245       _initialize_global_state_isolation 10005245 f   libucrt:initialization.obj
 0001:00004245       _uninitialize_global_state_isolation 10005245 f   libucrt:initialization.obj
 0001:00004245       _initialize_environment    10005245 f   libucrt:initialization.obj
 0001:00004245       _uninitialize_c            10005245 f   libucrt:initialization.obj
 0001:00004245       _report_memory_leaks       10005245 f   libucrt:initialization.obj
 0001:00004b23       ?construct_ptd@@YAXQAU__acrt_ptd@@QAPAU__crt_locale_data@@@Z 10005b23 f   libucrt:per_thread_data.obj
 0001:00004b9c       ?destroy_fls@@YGXPAX@Z     10005b9c f   libucrt:per_thread_data.obj
 0001:00004bbd       ?destroy_ptd@@YAXQAU__acrt_ptd@@@Z 10005bbd f   libucrt:per_thread_data.obj
 0001:00004c66       ?replace_current_thread_locale_nolock@@YAXQAU__acrt_ptd@@QAU__crt_locale_data@@@Z 10005c66 f   libucrt:per_thread_data.obj
 0001:00004e2c       ?try_get_CompareStringEx@@YAP6GHPB_WK0H0HPAU_nlsversioninfo@@PAXJ@ZXZ 10005e2c f   libucrt:winapi_thunks.obj
 0001:00004e46       ?try_get_function@@YAPAXW4function_id@?A0x352e5c4b@@QBDQBW4module_id@2@2@Z 10005e46 f   libucrt:winapi_thunks.obj
 0001:00004ee2       ?try_get_module@@YAPAUHINSTANCE__@@W4module_id@?A0x352e5c4b@@@Z 10005ee2 f   libucrt:winapi_thunks.obj
 0001:00005521       ?__acrt_LCMapStringA_stat@@YAHPAU__crt_locale_pointers@@PB_WKPBDHPADHHH@Z 10006521 f   libucrt:lcmapstringa.obj
 0001:000059ae       ??$common_gmtime_s@_J@@YAHQAUtm@@QB_J@Z 100069ae f   libucrt:gmtime.obj
 0001:00005afb       ?compute_year@@YAHAA_JAA_N@Z 10006afb f   libucrt:gmtime.obj
 0001:00005baa       ?_isindst_nolock@@YAHQAUtm@@@Z 10006baa f   libucrt:tzset.obj
 0001:00005d91       ?cvtdate@@YAXW4transition_type@?A0xdb49773f@@W4date_type@2@HHHHHHHHH@Z 10006d91 f   libucrt:tzset.obj
 0001:00005ee1       ?tzset_from_environment_nolock@@YAXPAD@Z 10006ee1 f   libucrt:tzset.obj
 0001:000060b6       ?tzset_from_system_nolock@@YAXXZ 100070b6 f   libucrt:tzset.obj
 0001:00006211       ?tzset_nolock@@YAXXZ       10007211 f   libucrt:tzset.obj
 0001:00006413       _fperrraise_with           10007413 f   libucrt:_test.obj
 0001:00006530       $$000000                   10007530     libucrt:log.obj
 0001:00006680       $$000000                   10007680     libucrt:sqrt.obj
 0001:00006746       ??$common_tcsncpy_s@D@@YAHQADIQBDI@Z 10007746 f   libucrt:strncpy_s.obj
 0001:000068a2       ?<helper_func_cdecl>@<lambda_62bb7ecb46d0a77b591a051c43eb5ad1>@@CAHPBX0@Z 100078a2 f   libucrt:argv_wildcards.obj
 0001:000068ba       ??$common_expand_argv_wildcards@D@@YAHQAPADQAPAPAD@Z 100078ba f   libucrt:argv_wildcards.obj
 0001:00006a4a       ??$copy_and_add_argument_to_buffer@D@@YAHQBD0IAAV?$argument_list@D@?A0xb0e4b824@@@Z 10007a4a f   libucrt:argv_wildcards.obj
 0001:00006ae0       ??$expand_argument_wildcards@D@@YAHQAD0AAV?$argument_list@D@?A0xb0e4b824@@@Z 10007ae0 f   libucrt:argv_wildcards.obj
 0001:00006dbb       ??R<lambda_ad1ced32f4ac17aa236e5ef05d6b3b7c>@@QBEXXZ 10007dbb f   libucrt:mbctype.obj
 0001:00006e7f       ?CPtoLocaleName@@YAPB_WH@Z 10007e7f f   libucrt:mbctype.obj
 0001:00006ebd       ?getSystemCP@@YAHH@Z       10007ebd f   libucrt:mbctype.obj
 0001:00006f30       ?setSBCS@@YAXPAU__crt_multibyte_data@@@Z 10007f30 f   libucrt:mbctype.obj
 0001:00006f95       ?setSBUpLow@@YAXPAU__crt_multibyte_data@@@Z 10007f95 f   libucrt:mbctype.obj
 0001:00007129       ?setmbcp_internal@@YAHH_N@Z 10008129 f   libucrt:mbctype.obj
 0001:000074db       _memcpy_s                  100084db f   libucrt:mbctype.obj
 0001:0000755c       ?x_ismbbtype_l@@YAHPAU__crt_locale_pointers@@IHH@Z 1000855c f   libucrt:ismbbyte.obj
 0001:000075e6       ?find_end_of_double_null_terminated_sequence@@YAPB_WQB_W@Z 100085e6 f   libucrt:get_environment_from_os.obj
 0001:000076a0       ??$common_set_variable_in_environment_nolock@D@@YAHQADH@Z 100086a0 f   libucrt:setenv.obj
 0001:000078db       ??$copy_environment@D@@YAPAPADQAPAD@Z 100088db f   libucrt:setenv.obj
 0001:0000798c       ??$find_in_environment_nolock@D@@YAHQBDI@Z 1000898c f   libucrt:setenv.obj
 0001:00007a7e       ?initialize_inherited_file_handles_nolock@@YAXXZ 10008a7e f   libucrt:ioinit.obj
 0001:00007b34       ?initialize_stdio_handles_nolock@@YAXXZ 10008b34 f   libucrt:ioinit.obj
 0001:00007e68       ?get_global_action_nolock@@YAPAP6AXH@ZH@Z 10008e68 f   libucrt:signal.obj
 0001:00007eaa       ?siglookup@@YAPAU__crt_signal_action_t@@HQAU1@@Z 10008eaa f   libucrt:signal.obj
 0001:000087e9       ?GetTableIndexFromLocaleName@@YAHPB_W@Z 100097e9 f   libucrt:lcidtoname_downlevel.obj
 0001:00008b98       ?free_crt_array_internal@@YAXQAPBXI@Z 10009b98 f   libucrt:inittime.obj
 0001:00008cb8       ??$common_getenv_nolock@D@@YAPADQBD@Z 10009cb8 f   libucrt:getenv.obj
 0001:00008d28       ??$common_getenv_s@D@@YAHQAIQADIQBD@Z 10009d28 f   libucrt:getenv.obj
 0001:00008d7d       ??$common_getenv_s_nolock@D@@YAHQAIQADIQBD@Z 10009d7d f   libucrt:getenv.obj
 0001:00008ef2       ___get_machine_status_sse2 10009ef2 f   libucrt:_fenvutils.obj
 0001:00008f53       ___get_machine_status_x87  10009f53 f   libucrt:_fenvutils.obj
 0001:000090f0       $$000000                   1000a0f0     libucrt:log_pentium4.obj
 0001:00009360       $$000000                   1000a360     libucrt:87tran.obj
 0001:00009560       $$000000                   1000a560     libucrt:87disp.obj
 0001:00009760       $$000000                   1000a760     libucrt:common.obj
 0001:000098f0       $$000000                   1000a8f0     libucrt:genexcep.obj
 0001:00009950       $$000000                   1000a950     libucrt:strpbrk.obj
 0001:00009a34       ?initialize_multibyte@@YAHXZ 1000aa34 f   libucrt:multibyte_initializer.obj
 0001:00009f66       _common_flush_all          1000af66 f   libucrt:fflush.obj
 0001:0000a719       ?InternalCompareStringA@@YAHPAU__crt_locale_pointers@@PB_WKPBDH2HH@Z 1000b719 f   libucrt:comparestringa.obj
 0001:0000ab3e       ?write_double_translated_ansi_nolock@@YA?AUwrite_result@?A0x47fa6670@@HQBDI@Z 1000bb3e f   libucrt:write.obj
 0001:0000acf1       ?write_double_translated_unicode_nolock@@YA?AUwrite_result@?A0x47fa6670@@QBDI@Z 1000bcf1 f   libucrt:write.obj
 0001:0000ad5e       ?write_requires_double_translation_nolock@@YA_NH@Z 1000bd5e f   libucrt:write.obj
 0001:0000add4       ?write_text_ansi_nolock@@YA?AUwrite_result@?A0x47fa6670@@HQBDI@Z 1000bdd4 f   libucrt:write.obj
 0001:0000aeb3       ?write_text_utf16le_nolock@@YA?AUwrite_result@?A0x47fa6670@@HQBDI@Z 1000beb3 f   libucrt:write.obj
 0001:0000afa1       ?write_text_utf8_nolock@@YA?AUwrite_result@?A0x47fa6670@@HQBDI@Z 1000bfa1 f   libucrt:write.obj
 0001:0000b3d0       $$000000                   1000c3d0     libucrt:log10.obj
 0001:0000b520       $$000000                   1000c520     libucrt:ceil_pentium4.obj
 0001:0000b63d       ??$common_lseek_nolock@_J@@YA_JH_JH@Z 1000c63d f   libucrt:lseek.obj
 0001:0000c160       $$000000                   1000d160     libucrt:_strnicm.obj
 0001:0000c210       $$000000                   1000d210     libucrt:log10_pentium4.obj
 0001:0000c8f0       $$000000                   1000d8f0     LIBCMT:ulldvrm.obj
 0001:0000c990       $$000000                   1000d990     LIBCMT:_sehprolg4gs_.obj
 0001:0000c9f0       $$000000                   1000d9f0     LIBCMT:lldiv.obj
 0001:0000caa0       $$000000                   1000daa0     LIBCMT:llrem.obj
 0001:0000cb60       $$000000                   1000db60     LIBCMT:llmul.obj
 0001:0000cba0       $$000000                   1000dba0     LIBCMT:alloca16.obj
 0001:0000cbd0       $$000000                   1000dbd0     LIBCMT:lldvrm.obj
 0001:0000ccb0       $$000000                   1000dcb0     LIBCMT:ullshr.obj
 0001:0000ccd0       $$000000                   1000dcd0     LIBCMT:llshl.obj
 0001:0000ccf0       $$000000                   1000dcf0     LIBCMT:_ftol2_.obj
 0001:0000cdb0       $$000000                   1000ddb0     LIBCMT:chkstk.obj
 0001:0000cde0       $$000000                   1000dde0     libvcruntime:memcpy.obj
 0001:0000d044       TrailingUpVec              1000e044     libvcruntime:memcpy.obj
 0001:0000d0f0       TrailingDownVec            1000e0f0     libvcruntime:memcpy.obj
 0001:0000d360       $$000000                   1000e360     libvcruntime:strchr.obj
 0001:0000d490       $$000000                   1000e490     libvcruntime:strrchr.obj
 0001:0000e3aa       __catch$?System.Data.SQLite.SQLite3.GetErrorString@@00010O118120$0 1000f3aa f   * CIL library *:* CIL module *
 0001:0000e42b       __catch$?System.Data.SQLite.SQLite3.IsReadOnly@@200102128180$0 1000f42b f   * CIL library *:* CIL module *
 0001:00010607       __catch$?System.Data.SQLite.SQLite3.UnhookNativeCallbacks@@2002020202$0 10011607 f   * CIL library *:* CIL module *
 0001:00010639       __catch$?System.Data.SQLite.SQLite3.UnhookNativeCallbacks@@2002020202$1 10011639 f   * CIL library *:* CIL module *
 0001:00010655       __catch$?System.Data.SQLite.SQLite3.UnhookNativeCallbacks@@2002020202$2 10011655 f   * CIL library *:* CIL module *
 0001:00010671       __catch$?System.Data.SQLite.SQLite3.UnhookNativeCallbacks@@2002020202$3 10011671 f   * CIL library *:* CIL module *
 0001:0001068d       __catch$?System.Data.SQLite.SQLite3.UnhookNativeCallbacks@@2002020202$4 1001168d f   * CIL library *:* CIL module *
 0001:000106aa       __catch$?System.Data.SQLite.SQLite3.UnhookNativeCallbacks@@2002020202$5 100116aa f   * CIL library *:* CIL module *
 0001:000106e3       __catch$?System.Data.SQLite.SQLite3.UnhookNativeCallbacks@@2002020202$6 100116e3 f   * CIL library *:* CIL module *
 0001:000107f0       __catch$?System.Data.SQLite.SQLite3.FreeDbName@@20010202$0 100117f0 f   * CIL library *:* CIL module *
 0001:00012368       __catch$?System.Data.SQLite.SQLiteCommand.Dispose@@20010102$0 10013368 f   * CIL library *:* CIL module *
 0001:0001239b       __catch$?System.Data.SQLite.SQLiteCommand.Dispose@@20010102$1 1001339b f   * CIL library *:* CIL module *
 0001:00012408       __catch$?System.Data.SQLite.SQLiteCommand.GetFlags@@0001112M1244$0 10013408 f   * CIL library *:* CIL module *
 0001:000124a9       __catch$?System.Data.SQLite.SQLiteCommand.ClearDataReader@@200001$0 100134a9 f   * CIL library *:* CIL module *
 0001:000125ce       __catch$?System.Data.SQLite.SQLiteCommand.BuildNextCommand@@2000128180$0 100135ce f   * CIL library *:* CIL module *
 0001:00012bfa       __catch$?System.Data.SQLite.SQLiteCommand.Execute@@00051M0O1180P011810N0O1N1M$0 10013bfa f   * CIL library *:* CIL module *
 0001:00012c04       __catch$?System.Data.SQLite.SQLiteCommand.Execute@@00051M0O1180P011810N0O1N1M$1 10013c04 f   * CIL library *:* CIL module *
 0001:00012c12       __catch$?System.Data.SQLite.SQLiteCommand.Execute@@00051M0O1180P011810N0O1N1M$2 10013c12 f   * CIL library *:* CIL module *
 0001:00012c1e       __catch$?System.Data.SQLite.SQLiteCommand.Execute@@00051M0O1180P011810N0O1N1M$3 10013c1e f   * CIL library *:* CIL module *
 0001:00012c2c       __catch$?System.Data.SQLite.SQLiteCommand.Execute@@00051M0O1180P011810N0O1N1M$4 10013c2c f   * CIL library *:* CIL module *
 0001:0001424a       __catch$?System.Data.SQLite.SQLiteConnection.BackupDatabase@@20060112780O0O081280L008$0 1001524a f   * CIL library *:* CIL module *
 0001:0001427c       __catch$?System.Data.SQLite.SQLiteConnection.BackupDatabase@@20060112780O0O081280L008$1 1001527c f   * CIL library *:* CIL module *
 0001:000153b3       __catch$?System.Data.SQLite.SQLiteConnection.TryParseEnum@@00031M1280L50O02$0 100163b3 f   * CIL library *:* CIL module *
 0001:0001588e       __catch$?System.Data.SQLite.SQLiteConnection.Open@@200001$0 1001688e f   * CIL library *:* CIL module *
 0001:000160d9       __catch$?System.Data.SQLite.SQLiteConnection.Open@@200001$1 100170d9 f   * CIL library *:* CIL module *
 0001:000161d3       __catch$?System.Data.SQLite.SQLiteConnection.Open@@200001$2 100171d3 f   * CIL library *:* CIL module *
 0001:000161e2       __catch$?System.Data.SQLite.SQLiteConnection.Open@@200001$3 100171e2 f   * CIL library *:* CIL module *
 0001:00017c02       __catch$?System.Data.SQLite.SQLiteConnection.Schema_Columns@@20031281550O0O0O$0 10018c02 f   * CIL library *:* CIL module *
 0001:00017c19       __catch$?System.Data.SQLite.SQLiteConnection.Schema_Columns@@20031281550O0O0O$1 10018c19 f   * CIL library *:* CIL module *
 0001:00017c27       __catch$?System.Data.SQLite.SQLiteConnection.Schema_Columns@@20031281550O0O0O$2 10018c27 f   * CIL library *:* CIL module *
 0001:00017c35       __catch$?System.Data.SQLite.SQLiteConnection.Schema_Columns@@20031281550O0O0O$3 10018c35 f   * CIL library *:* CIL module *
 0001:00017c43       __catch$?System.Data.SQLite.SQLiteConnection.Schema_Columns@@20031281550O0O0O$4 10018c43 f   * CIL library *:* CIL module *
 0001:00017c53       __catch$?System.Data.SQLite.SQLiteConnection.Schema_Columns@@20031281550O0O0O$5 10018c53 f   * CIL library *:* CIL module *
 0001:00017c5f       __catch$?System.Data.SQLite.SQLiteConnection.Schema_Columns@@20031281550O0O0O$6 10018c5f f   * CIL library *:* CIL module *
 0001:000180fc       __catch$?System.Data.SQLite.SQLiteConnection.Schema_Indexes@@20031281550O0O0O$0 100190fc f   * CIL library *:* CIL module *
 0001:0001810a       __catch$?System.Data.SQLite.SQLiteConnection.Schema_Indexes@@20031281550O0O0O$1 1001910a f   * CIL library *:* CIL module *
 0001:00018118       __catch$?System.Data.SQLite.SQLiteConnection.Schema_Indexes@@20031281550O0O0O$2 10019118 f   * CIL library *:* CIL module *
 0001:00018317       __catch$?System.Data.SQLite.SQLiteConnection.Schema_Indexes@@20031281550O0O0O$3 10019317 f   * CIL library *:* CIL module *
 0001:00018325       __catch$?System.Data.SQLite.SQLiteConnection.Schema_Indexes@@20031281550O0O0O$4 10019325 f   * CIL library *:* CIL module *
 0001:000183e4       __catch$?System.Data.SQLite.SQLiteConnection.Schema_Indexes@@20031281550O0O0O$5 100193e4 f   * CIL library *:* CIL module *
 0001:000183f2       __catch$?System.Data.SQLite.SQLiteConnection.Schema_Indexes@@20031281550O0O0O$6 100193f2 f   * CIL library *:* CIL module *
 0001:00018417       __catch$?System.Data.SQLite.SQLiteConnection.Schema_Indexes@@20031281550O0O0O$7 10019417 f   * CIL library *:* CIL module *
 0001:00018423       __catch$?System.Data.SQLite.SQLiteConnection.Schema_Indexes@@20031281550O0O0O$8 10019423 f   * CIL library *:* CIL module *
 0001:00018431       __catch$?System.Data.SQLite.SQLiteConnection.Schema_Indexes@@20031281550O0O0O$9 10019431 f   * CIL library *:* CIL module *
 0001:00018441       __catch$?System.Data.SQLite.SQLiteConnection.Schema_Indexes@@20031281550O0O0O$10 10019441 f   * CIL library *:* CIL module *
 0001:0001844d       __catch$?System.Data.SQLite.SQLiteConnection.Schema_Indexes@@20031281550O0O0O$11 1001944d f   * CIL library *:* CIL module *
 0001:000192c0       __catch$?System.Data.SQLite.SQLiteConnection.Schema_IndexColumns@@20041281550O0O0O0O$0 1001a2c0 f   * CIL library *:* CIL module *
 0001:000192ce       __catch$?System.Data.SQLite.SQLiteConnection.Schema_IndexColumns@@20041281550O0O0O0O$1 1001a2ce f   * CIL library *:* CIL module *
 0001:000192dc       __catch$?System.Data.SQLite.SQLiteConnection.Schema_IndexColumns@@20041281550O0O0O0O$2 1001a2dc f   * CIL library *:* CIL module *
 0001:000195bc       __catch$?System.Data.SQLite.SQLiteConnection.Schema_IndexColumns@@20041281550O0O0O0O$3 1001a5bc f   * CIL library *:* CIL module *
 0001:000195ca       __catch$?System.Data.SQLite.SQLiteConnection.Schema_IndexColumns@@20041281550O0O0O0O$4 1001a5ca f   * CIL library *:* CIL module *
 0001:000195d8       __catch$?System.Data.SQLite.SQLiteConnection.Schema_IndexColumns@@20041281550O0O0O0O$5 1001a5d8 f   * CIL library *:* CIL module *
 0001:000195e8       __catch$?System.Data.SQLite.SQLiteConnection.Schema_IndexColumns@@20041281550O0O0O0O$6 1001a5e8 f   * CIL library *:* CIL module *
 0001:000195f4       __catch$?System.Data.SQLite.SQLiteConnection.Schema_IndexColumns@@20041281550O0O0O0O$7 1001a5f4 f   * CIL library *:* CIL module *
 0001:0001960d       __catch$?System.Data.SQLite.SQLiteConnection.Schema_IndexColumns@@20041281550O0O0O0O$8 1001a60d f   * CIL library *:* CIL module *
 0001:00019619       __catch$?System.Data.SQLite.SQLiteConnection.Schema_IndexColumns@@20041281550O0O0O0O$9 1001a619 f   * CIL library *:* CIL module *
 0001:0001a38b       __catch$?System.Data.SQLite.SQLiteConnection.Schema_ForeignKeys@@20031281550O0O0O$0 1001b38b f   * CIL library *:* CIL module *
 0001:0001a397       __catch$?System.Data.SQLite.SQLiteConnection.Schema_ForeignKeys@@20031281550O0O0O$1 1001b397 f   * CIL library *:* CIL module *
 0001:0001a3a5       __catch$?System.Data.SQLite.SQLiteConnection.Schema_ForeignKeys@@20031281550O0O0O$2 1001b3a5 f   * CIL library *:* CIL module *
 0001:0001a3b3       __catch$?System.Data.SQLite.SQLiteConnection.Schema_ForeignKeys@@20031281550O0O0O$3 1001b3b3 f   * CIL library *:* CIL module *
 0001:0001a3c3       __catch$?System.Data.SQLite.SQLiteConnection.Schema_ForeignKeys@@20031281550O0O0O$4 1001b3c3 f   * CIL library *:* CIL module *
 0001:0001a3cf       __catch$?System.Data.SQLite.SQLiteConnection.Schema_ForeignKeys@@20031281550O0O0O$5 1001b3cf f   * CIL library *:* CIL module *
 0001:0001a666       __catch$?System.Data.SQLite.SQLiteConnection.ProgressCallback@@20011180P818$0 1001b666 f   * CIL library *:* CIL module *
 0001:0001a6a1       __catch$?System.Data.SQLite.SQLiteConnection.ProgressCallback@@20011180P818$1 1001b6a1 f   * CIL library *:* CIL module *
 0001:0001a74a       __catch$?System.Data.SQLite.SQLiteConnection.AuthorizerCallback@@20061180PM181180P418181818$0 1001b74a f   * CIL library *:* CIL module *
 0001:0001a785       __catch$?System.Data.SQLite.SQLiteConnection.AuthorizerCallback@@20061180PM181180P418181818$1 1001b785 f   * CIL library *:* CIL module *
 0001:0001a80d       __catch$?System.Data.SQLite.SQLiteConnection.UpdateCallback@@200501180818180K$0 1001b80d f   * CIL library *:* CIL module *
 0001:0001a848       __catch$?System.Data.SQLite.SQLiteConnection.UpdateCallback@@200501180818180K$1 1001b848 f   * CIL library *:* CIL module *
 0001:0001a9d2       __catch$?System.Data.SQLite.SQLiteConnection.TraceCallback@@2002011818$0 1001b9d2 f   * CIL library *:* CIL module *
 0001:0001aa0d       __catch$?System.Data.SQLite.SQLiteConnection.TraceCallback@@2002011818$1 1001ba0d f   * CIL library *:* CIL module *
 0001:0001ab0e       __catch$?System.Data.SQLite.SQLiteConnection.CommitCallback@@20010818$0 1001bb0e f   * CIL library *:* CIL module *
 0001:0001ab49       __catch$?System.Data.SQLite.SQLiteConnection.CommitCallback@@20010818$1 1001bb49 f   * CIL library *:* CIL module *
 0001:0001abc7       __catch$?System.Data.SQLite.SQLiteConnection.RollbackCallback@@20010118$0 1001bbc7 f   * CIL library *:* CIL module *
 0001:0001ac02       __catch$?System.Data.SQLite.SQLiteConnection.RollbackCallback@@20010118$1 1001bc02 f   * CIL library *:* CIL module *
 0001:0001b532       __catch$?System.Data.SQLite.SQLiteConnectionStringBuilder.Initialize@@2001010O$0 1001c532 f   * CIL library *:* CIL module *
 0001:0001c4c9       __catch$?System.Data.SQLite.SQLiteConvert.computeYMD@@00021180K50K151175011180K5$0 1001d4c9 f   * CIL library *:* CIL module *
 0001:0001c5ea       __catch$?System.Data.SQLite.SQLiteConvert.computeHMS@@00021180K50K151175011180K5$0 1001d5ea f   * CIL library *:* CIL module *
 0001:0001d9d4       __catch$?System.Data.SQLite.SQLiteConvert.LooksLikeDateTime@@0002021280N80O$0 1001e9d4 f   * CIL library *:* CIL module *
 0001:0001ea79       __catch$?System.Data.SQLite.SQLiteDataReader.Close@@200001$0 1001fa79 f   * CIL library *:* CIL module *
 0001:0001ea89       __catch$?System.Data.SQLite.SQLiteDataReader.Close@@200001$1 1001fa89 f   * CIL library *:* CIL module *
 0001:0001eab4       __catch$?System.Data.SQLite.SQLiteDataReader.Close@@200001$2 1001fab4 f   * CIL library *:* CIL module *
 0001:0001eae6       __catch$?System.Data.SQLite.SQLiteDataReader.Close@@200001$3 1001fae6 f   * CIL library *:* CIL module *
 0001:00020df5       __catch$?System.Data.SQLite.SQLiteDataReader.GetConnection@@00011278128114$0 10021df5 f   * CIL library *:* CIL module *
 0001:00021cae       __catch$?System.Data.SQLite.SQLiteFunction.ScalarCallback@@200301180818$0 10022cae f   * CIL library *:* CIL module *
 0001:00021ce9       __catch$?System.Data.SQLite.SQLiteFunction.ScalarCallback@@200301180818$1 10022ce9 f   * CIL library *:* CIL module *
 0001:00021d49       __catch$?System.Data.SQLite.SQLiteFunction.CompareCallback@@2005081808180818$0 10022d49 f   * CIL library *:* CIL module *
 0001:00021d84       __catch$?System.Data.SQLite.SQLiteFunction.CompareCallback@@2005081808180818$1 10022d84 f   * CIL library *:* CIL module *
 0001:00021e09       __catch$?System.Data.SQLite.SQLiteFunction.CompareCallback16@@2005081808180818$0 10022e09 f   * CIL library *:* CIL module *
 0001:00021e44       __catch$?System.Data.SQLite.SQLiteFunction.CompareCallback16@@2005081808180818$1 10022e44 f   * CIL library *:* CIL module *
 0001:00021f1f       __catch$?System.Data.SQLite.SQLiteFunction.StepCallback@@200301180818$0 10022f1f f   * CIL library *:* CIL module *
 0001:00021f30       __catch$?System.Data.SQLite.SQLiteFunction.StepCallback@@200301180818$1 10022f30 f   * CIL library *:* CIL module *
 0001:00021f6b       __catch$?System.Data.SQLite.SQLiteFunction.StepCallback@@200301180818$2 10022f6b f   * CIL library *:* CIL module *
 0001:00022028       __catch$?System.Data.SQLite.SQLiteFunction.FinalCallback@@20010118$0 10023028 f   * CIL library *:* CIL module *
 0001:0002203b       __catch$?System.Data.SQLite.SQLiteFunction.FinalCallback@@20010118$1 1002303b f   * CIL library *:* CIL module *
 0001:00022076       __catch$?System.Data.SQLite.SQLiteFunction.FinalCallback@@20010118$2 10023076 f   * CIL library *:* CIL module *
 0001:0002216c       __catch$?System.Data.SQLite.SQLiteFunction..cctor@@000001$0 1002316c f   * CIL library *:* CIL module *
 0001:000221e9       __catch$?System.Data.SQLite.SQLiteFunction..cctor@@000001$1 100231e9 f   * CIL library *:* CIL module *
 0001:00025735       __catch$?System.Data.SQLite.SQLiteStatement.GetConnection@@00011278128180$0 10026735 f   * CIL library *:* CIL module *
 0001:00025f30       __catch$?System.Data.SQLite.SQLiteTransaction.Begin@@20010102$0 10026f30 f   * CIL library *:* CIL module *
 0001:00025f3c       __catch$?System.Data.SQLite.SQLiteTransaction.Begin@@20010102$1 10026f3c f   * CIL library *:* CIL module *
 0001:00025fc7       __catch$?System.Data.SQLite.SQLiteTransaction.IssueRollback@@20010102$0 10026fc7 f   * CIL library *:* CIL module *
 0001:00025fd3       __catch$?System.Data.SQLite.SQLiteTransaction.IssueRollback@@20010102$1 10026fd3 f   * CIL library *:* CIL module *
 0001:0002620d       __catch$?System.Data.SQLite.SQLiteTransaction2.Begin@@20010102$0 1002720d f   * CIL library *:* CIL module *
 0001:0002621c       __catch$?System.Data.SQLite.SQLiteTransaction2.Begin@@20010102$1 1002721c f   * CIL library *:* CIL module *
 0001:0002627a       __catch$?System.Data.SQLite.SQLiteTransaction2.Begin@@20010102$2 1002727a f   * CIL library *:* CIL module *
 0001:00026286       __catch$?System.Data.SQLite.SQLiteTransaction2.Begin@@20010102$3 10027286 f   * CIL library *:* CIL module *
 0001:0002634e       __catch$?System.Data.SQLite.SQLiteTransaction2.IssueRollback@@20010102$0 1002734e f   * CIL library *:* CIL module *
 0001:00026361       __catch$?System.Data.SQLite.SQLiteTransaction2.IssueRollback@@20010102$1 10027361 f   * CIL library *:* CIL module *
 0001:000263a8       __catch$?System.Data.SQLite.SQLiteTransaction2.IssueRollback@@20010102$2 100273a8 f   * CIL library *:* CIL module *
 0001:000263c2       __catch$?System.Data.SQLite.SQLiteTransaction2.IssueRollback@@20010102$3 100273c2 f   * CIL library *:* CIL module *
 0001:000266b3       __catch$?System.Data.SQLite.HelperMethods.IsMono@@000002$0 100276b3 f   * CIL library *:* CIL module *
 0001:000266bf       __catch$?System.Data.SQLite.HelperMethods.IsMono@@000002$1 100276bf f   * CIL library *:* CIL module *
 0001:0002674b       __catch$?System.Data.SQLite.HelperMethods.IsDotNetCore@@000002$0 1002774b f   * CIL library *:* CIL module *
 0001:00026757       __catch$?System.Data.SQLite.HelperMethods.IsDotNetCore@@000002$1 10027757 f   * CIL library *:* CIL module *
 0001:00026813       __catch$?System.Data.SQLite.HelperMethods.MaybeBreakIntoDebugger@@000001$0 10027813 f   * CIL library *:* CIL module *
 0001:0002685c       __catch$?System.Data.SQLite.HelperMethods.MaybeBreakIntoDebugger@@000001$1 1002785c f   * CIL library *:* CIL module *
 0001:0002688a       __catch$?System.Data.SQLite.HelperMethods.MaybeBreakIntoDebugger@@000001$2 1002788a f   * CIL library *:* CIL module *
 0001:000268b2       __catch$?System.Data.SQLite.HelperMethods.MaybeBreakIntoDebugger@@000001$3 100278b2 f   * CIL library *:* CIL module *
 0001:000268be       __catch$?System.Data.SQLite.HelperMethods.MaybeBreakIntoDebugger@@000001$4 100278be f   * CIL library *:* CIL module *
 0001:000268dc       __catch$?System.Data.SQLite.HelperMethods.MaybeBreakIntoDebugger@@000001$5 100278dc f   * CIL library *:* CIL module *
 0001:00026907       __catch$?System.Data.SQLite.HelperMethods.MaybeBreakIntoDebugger@@000001$6 10027907 f   * CIL library *:* CIL module *
 0001:00026cac       __catch$?System.Data.SQLite.NativeLibraryHelper.GetMachineWin32@@00000O$0 10027cac f   * CIL library *:* CIL module *
 0001:00026d0d       __catch$?System.Data.SQLite.NativeLibraryHelper.GetMachinePosix@@00000O$0 10027d0d f   * CIL library *:* CIL module *
 0001:00026e64       __catch$?System.Data.SQLite.UnsafeNativeMethodsPosix.GetOsVersionInfo@@000102101282K8$0 10027e64 f   * CIL library *:* CIL module *
 0001:000271ef       __catch$?System.Data.SQLite.UnsafeNativeMethods.ReplaceXmlConfigFileTokens@@00020O0O0O$0 100281ef f   * CIL library *:* CIL module *
 0001:00027214       __catch$?System.Data.SQLite.UnsafeNativeMethods.ReplaceXmlConfigFileTokens@@00020O0O0O$1 10028214 f   * CIL library *:* CIL module *
 0001:000272e1       __catch$?System.Data.SQLite.UnsafeNativeMethods.GetSettingValueViaXmlConfigFile@@00040O0O0O0O02$0 100282e1 f   * CIL library *:* CIL module *
 0001:0002730a       __catch$?System.Data.SQLite.UnsafeNativeMethods.GetSettingValueViaXmlConfigFile@@00040O0O0O0O02$1 1002830a f   * CIL library *:* CIL module *
 0001:00027392       __catch$?System.Data.SQLite.UnsafeNativeMethods.GetAssemblyTargetFramework@@00010O12818N$0 10028392 f   * CIL library *:* CIL module *
 0001:00027441       __catch$?System.Data.SQLite.UnsafeNativeMethods.ReplaceEnvironmentVariableTokens@@00010O0O$0 10028441 f   * CIL library *:* CIL module *
 0001:00027464       __catch$?System.Data.SQLite.UnsafeNativeMethods.ReplaceEnvironmentVariableTokens@@00010O0O$1 10028464 f   * CIL library *:* CIL module *
 0001:00027473       __catch$?System.Data.SQLite.UnsafeNativeMethods.ReplaceEnvironmentVariableTokens@@00010O0O$2 10028473 f   * CIL library *:* CIL module *
 0001:00027496       __catch$?System.Data.SQLite.UnsafeNativeMethods.ReplaceEnvironmentVariableTokens@@00010O0O$3 10028496 f   * CIL library *:* CIL module *
 0001:000274bf       __catch$?System.Data.SQLite.UnsafeNativeMethods.ReplaceEnvironmentVariableTokens@@00010O0O$4 100284bf f   * CIL library *:* CIL module *
 0001:000274e0       __catch$?System.Data.SQLite.UnsafeNativeMethods.ReplaceEnvironmentVariableTokens@@00010O0O$5 100284e0 f   * CIL library *:* CIL module *
 0001:0002780f       __catch$?System.Data.SQLite.UnsafeNativeMethods.CheckAssemblyCodeBase@@00020212818N100O$0 1002880f f   * CIL library *:* CIL module *
 0001:00027832       __catch$?System.Data.SQLite.UnsafeNativeMethods.CheckAssemblyCodeBase@@00020212818N100O$1 10028832 f   * CIL library *:* CIL module *
 0001:00027961       __catch$?System.Data.SQLite.UnsafeNativeMethods.GetAssemblyDirectory@@00000O$0 10028961 f   * CIL library *:* CIL module *
 0001:000279aa       __catch$?System.Data.SQLite.UnsafeNativeMethods.GetAssemblyDirectory@@00000O$1 100289aa f   * CIL library *:* CIL module *
 0001:000279e3       __catch$?System.Data.SQLite.UnsafeNativeMethods.GetAssemblyDirectory@@00000O$2 100289e3 f   * CIL library *:* CIL module *
 0001:00027a09       __catch$?System.Data.SQLite.UnsafeNativeMethods.GetAssemblyDirectory@@00000O$3 10028a09 f   * CIL library *:* CIL module *
 0001:00027a17       __catch$?System.Data.SQLite.UnsafeNativeMethods.GetAssemblyDirectory@@00000O$4 10028a17 f   * CIL library *:* CIL module *
 0001:00027a3a       __catch$?System.Data.SQLite.UnsafeNativeMethods.GetAssemblyDirectory@@00000O$5 10028a3a f   * CIL library *:* CIL module *
 0001:00027a57       __catch$?System.Data.SQLite.UnsafeNativeMethods.GetAssemblyDirectory@@00000O$6 10028a57 f   * CIL library *:* CIL module *
 0001:00027baa       __catch$?System.Data.SQLite.SQLiteConnectionHandle.ReleaseHandle@@200002$0 10028baa f   * CIL library *:* CIL module *
 0001:00027baf       __catch$?System.Data.SQLite.SQLiteConnectionHandle.ReleaseHandle@@200002$1 10028baf f   * CIL library *:* CIL module *
 0001:00027cb0       __catch$?System.Data.SQLite.SQLiteStatementHandle.ReleaseHandle@@200002$0 10028cb0 f   * CIL library *:* CIL module *
 0001:00027cb5       __catch$?System.Data.SQLite.SQLiteStatementHandle.ReleaseHandle@@200002$1 10028cb5 f   * CIL library *:* CIL module *
 0001:00027da4       __catch$?System.Data.SQLite.SQLiteBackupHandle.ReleaseHandle@@200002$0 10028da4 f   * CIL library *:* CIL module *
 0001:00027da9       __catch$?System.Data.SQLite.SQLiteBackupHandle.ReleaseHandle@@200002$1 10028da9 f   * CIL library *:* CIL module *
 0001:00027e98       __catch$?System.Data.SQLite.SQLiteBlobHandle.ReleaseHandle@@200002$0 10028e98 f   * CIL library *:* CIL module *
 0001:00027e9d       __catch$?System.Data.SQLite.SQLiteBlobHandle.ReleaseHandle@@200002$1 10028e9d f   * CIL library *:* CIL module *
 0001:0002a95d       __catch$?System.Data.SQLite.SQLiteModule.CreateOrConnect@@2007118120021818081810181018$0 1002b95d f   * CIL library *:* CIL module *
 0001:0002a969       __catch$?System.Data.SQLite.SQLiteModule.CreateOrConnect@@2007118120021818081810181018$1 1002b969 f   * CIL library *:* CIL module *
 0001:0002a9fe       __catch$?System.Data.SQLite.SQLiteModule.DestroyOrDisconnect@@20021181200218$0 1002b9fe f   * CIL library *:* CIL module *
 0001:0002aa3e       __catch$?System.Data.SQLite.SQLiteModule.DestroyOrDisconnect@@20021181200218$1 1002ba3e f   * CIL library *:* CIL module *
 0001:0002aa45       __catch$?System.Data.SQLite.SQLiteModule.DestroyOrDisconnect@@20021181200218$2 1002ba45 f   * CIL library *:* CIL module *
 0001:0002aad5       __catch$?System.Data.SQLite.SQLiteModule.SetTableError@@0005021282081802020O$0 1002bad5 f   * CIL library *:* CIL module *
 0001:0002ab57       __catch$?System.Data.SQLite.SQLiteModule.SetTableError@@0005021282081802020O$1 1002bb57 f   * CIL library *:* CIL module *
 0001:0002ab8a       __catch$?System.Data.SQLite.SQLiteModule.SetTableError@@0005021282081802020O$2 1002bb8a f   * CIL library *:* CIL module *
 0001:0002ab91       __catch$?System.Data.SQLite.SQLiteModule.SetTableError@@0005021282081802020O$3 1002bb91 f   * CIL library *:* CIL module *
 0001:0002b31a       __catch$?System.Data.SQLite.SQLiteModule.xBestIndex@@20021181201818$0 1002c31a f   * CIL library *:* CIL module *
 0001:0002b3dc       __catch$?System.Data.SQLite.SQLiteModule.xOpen@@2002118120181018$0 1002c3dc f   * CIL library *:* CIL module *
 0001:0002b45a       __catch$?System.Data.SQLite.SQLiteModule.xClose@@200111812018$0 1002c45a f   * CIL library *:* CIL module *
 0001:0002b46d       __catch$?System.Data.SQLite.SQLiteModule.xClose@@200111812018$1 1002c46d f   * CIL library *:* CIL module *
 0001:0002b4f5       __catch$?System.Data.SQLite.SQLiteModule.xFilter@@20051181201808180818$0 1002c4f5 f   * CIL library *:* CIL module *
 0001:0002b55d       __catch$?System.Data.SQLite.SQLiteModule.xNext@@200111812018$0 1002c55d f   * CIL library *:* CIL module *
 0001:0002b5c8       __catch$?System.Data.SQLite.SQLiteModule.xEof@@20010818$0 1002c5c8 f   * CIL library *:* CIL module *
 0001:0002b639       __catch$?System.Data.SQLite.SQLiteModule.xColumn@@2003118120181808$0 1002c639 f   * CIL library *:* CIL module *
 0001:0002b69f       __catch$?System.Data.SQLite.SQLiteModule.xRowId@@200211812018100K$0 1002c69f f   * CIL library *:* CIL module *
 0001:0002b6fc       __catch$?System.Data.SQLite.SQLiteModule.xUpdate@@2004118120180818100K$0 1002c6fc f   * CIL library *:* CIL module *
 0001:0002b753       __catch$?System.Data.SQLite.SQLiteModule.xBegin@@200111812018$0 1002c753 f   * CIL library *:* CIL module *
 0001:0002b7a7       __catch$?System.Data.SQLite.SQLiteModule.xSync@@200111812018$0 1002c7a7 f   * CIL library *:* CIL module *
 0001:0002b7fb       __catch$?System.Data.SQLite.SQLiteModule.xCommit@@200111812018$0 1002c7fb f   * CIL library *:* CIL module *
 0001:0002b84f       __catch$?System.Data.SQLite.SQLiteModule.xRollback@@200111812018$0 1002c84f f   * CIL library *:* CIL module *
 0001:0002b8ee       __catch$?System.Data.SQLite.SQLiteModule.xFindFunction@@200508180818101281481018$0 1002c8ee f   * CIL library *:* CIL module *
 0001:0002b949       __catch$?System.Data.SQLite.SQLiteModule.xRename@@20021181201818$0 1002c949 f   * CIL library *:* CIL module *
 0001:0002b9a0       __catch$?System.Data.SQLite.SQLiteModule.xSavepoint@@20021181201808$0 1002c9a0 f   * CIL library *:* CIL module *
 0001:0002b9f8       __catch$?System.Data.SQLite.SQLiteModule.xRelease@@20021181201808$0 1002c9f8 f   * CIL library *:* CIL module *
 0001:0002ba50       __catch$?System.Data.SQLite.SQLiteModule.xRollbackTo@@20021181201808$0 1002ca50 f   * CIL library *:* CIL module *
 0001:0002bb70       __catch$?System.Data.SQLite.SQLiteModule.Dispose@@20010102$0 1002cb70 f   * CIL library *:* CIL module *
 0001:0002bba6       __catch$?System.Data.SQLite.SQLiteModule.Dispose@@20010102$1 1002cba6 f   * CIL library *:* CIL module *
 0001:0002ca39       __catch$?System.Data.SQLite.SQLiteConnectionLock.Dispose@@20010102$0 1002da39 f   * CIL library *:* CIL module *
 0001:0002ca3e       __catch$?System.Data.SQLite.SQLiteConnectionLock.Dispose@@20010102$1 1002da3e f   * CIL library *:* CIL module *
 0001:0002d003       __catch$?System.Data.SQLite.SQLiteStreamAdapter.Input@@200311812018181008$0 1002e003 f   * CIL library *:* CIL module *
 0001:0002d040       __catch$?System.Data.SQLite.SQLiteStreamAdapter.Input@@200311812018181008$1 1002e040 f   * CIL library *:* CIL module *
 0001:0002d0d6       __catch$?System.Data.SQLite.SQLiteStreamAdapter.Output@@2003118120181808$0 1002e0d6 f   * CIL library *:* CIL module *
 0001:0002d111       __catch$?System.Data.SQLite.SQLiteStreamAdapter.Output@@2003118120181808$1 1002e111 f   * CIL library *:* CIL module *
 0001:0002d924       __catch$?System.Data.SQLite.SQLiteSession.Filter@@2002081818$0 1002e924 f   * CIL library *:* CIL module *
 0001:0002d95f       __catch$?System.Data.SQLite.SQLiteSession.Filter@@2002081818$1 1002e95f f   * CIL library *:* CIL module *
 0001:0002f8e2       __catch$?System.Data.SQLite.SQLiteChangeSetBase.<>c__DisplayClass2_0.<GetDelegate>b__0@@2002081818$0 100308e2 f   * CIL library *:* CIL module *
 0001:0002f922       __catch$?System.Data.SQLite.SQLiteChangeSetBase.<>c__DisplayClass2_0.<GetDelegate>b__0@@2002081818$1 10030922 f   * CIL library *:* CIL module *
 0001:0002f9b1       __catch$?System.Data.SQLite.SQLiteChangeSetBase.<>c__DisplayClass3_0.<GetDelegate>b__0@@20031182201811821M18$0 100309b1 f   * CIL library *:* CIL module *
 0001:0002f9f1       __catch$?System.Data.SQLite.SQLiteChangeSetBase.<>c__DisplayClass3_0.<GetDelegate>b__0@@20031182201811821M18$1 100309f1 f   * CIL library *:* CIL module *
 0001:0002fa70       _totypeCompare2pow63       10030a70 f   interop.obj
 0001:0002fab0       _totypeIsdigit             10030ab0 f   interop.obj
 0001:0002fac0       _totypeIsspace             10030ac0 f   interop.obj
 0001:0002faf0       _hash_init                 10030af0 f   interop.obj
 0001:00030ee0       _rePeek                    10031ee0 f   interop.obj
 0001:00030f00       _re_hex                    10031f00 f   interop.obj
 0001:00030f50       _re_space_char             10031f50 f   interop.obj
 0001:00030f80       _re_digit_char             10031f80 f   interop.obj
 0001:00030f90       _re_word_char              10031f90 f   interop.obj
 0001:00030fc0       _re_next_char              10031fc0 f   interop.obj
 0001:00031130       _re_add_state              10032130 f   interop.obj
 0001:00031160       _doubleCmp                 10032160 f   interop.obj
 0001:000311a0       _sameValue                 100321a0 f   interop.obj
 0001:000311c0       _isInfinity                100321c0 f   interop.obj
 0001:00031200       _jsonEachBestIndex         10032200 f   interop.obj
 0001:000312c0       _jsonEachRowid             100322c0 f   interop.obj
 0001:000312e0       _jsonEachEof               100322e0 f   interop.obj
 0001:00031300       _jsonLabelCompare          10032300 f   interop.obj
 0001:00031350       _jsonIs4Hex                10032350 f   interop.obj
 0001:00031370       _jsonNodeSize              10032370 f   interop.obj
 0001:00031380       _jsonZero                  10032380 f   interop.obj
 0001:000313b0       _fts5VocabRowidMethod      100323b0 f   interop.obj
 0001:000313d0       _fts5VocabEofMethod        100323d0 f   interop.obj
 0001:000313e0       _fts5VocabBestIndexMethod  100323e0 f   interop.obj
 0001:00031500       _sqlite3Fts5GetVarintLen   10032500 f   interop.obj
 0001:00031530       _fts5PutVarint64           10032530 f   interop.obj
 0001:00031640       _sqlite3Fts5GetVarint      10032640 f   interop.obj
 0001:000317c0       _sqlite3Fts5GetVarint32    100327c0 f   interop.obj
 0001:00031840       _sqlite3Fts5UnicodeIsdiacritic 10032840 f   interop.obj
 0001:00031880       _fts5_remove_diacritic     10032880 f   interop.obj
 0001:00031b20       _sqlite3Fts5UnicodeIsalnum 10032b20 f   interop.obj
 0001:00031bc0       _fts5PorterStep1A          10032bc0 f   interop.obj
 0001:00031c10       _fts5PorterStep1B2         10032c10 f   interop.obj
 0001:00031cd0       _fts5PorterIsVowel         10032cd0 f   interop.obj
 0001:00031d00       _fts5UnicodeIsException    10032d00 f   interop.obj
 0001:00031d50       _asciiFold                 10032d50 f   interop.obj
 0001:00031e70       _fts5AsciiAddExceptions    10032e70 f   interop.obj
 0001:00031ea0       _fts5StorageDecodeSizeArray 10032ea0 f   interop.obj
 0001:00031ef0       _fts5CursorFromCsrid       10032ef0 f   interop.obj
 0001:00031f20       _fts5ApiInvoke             10032f20 f   interop.obj
 0001:00031f50       _fts5ApiPhraseNextColumn   10032f50 f   interop.obj
 0001:00031fd0       _fts5ApiPhraseNext         10032fd0 f   interop.obj
 0001:00032040       _fts5ApiGetAuxdata         10033040 f   interop.obj
 0001:00032080       _fts5ColumnSizeCb          10033080 f   interop.obj
 0001:000320a0       _fts5ApiColumnCount        100330a0 f   interop.obj
 0001:000320b0       _fts5ApiUserData           100330b0 f   interop.obj
 0001:000320c0       _fts5CommitMethod          100330c0 f   interop.obj
 0001:000320d0       _fts5EofMethod             100330d0 f   interop.obj
 0001:000320e0       _fts5TripCursors           100330e0 f   interop.obj
 0001:00032110       _fts5CsrNewrow             10033110 f   interop.obj
 0001:00032120       _fts5StmtType              10033120 f   interop.obj
 0001:00032140       _fts5IsContentless         10033140 f   interop.obj
 0001:00032150       _fts5DecodeRowid           10033150 f   interop.obj
 0001:000321a0       _sqlite3Fts5IndexEntryCksum 100331a0 f   interop.obj
 0001:00032240       _sqlite3Fts5IndexReads     10033240 f   interop.obj
 0001:00032250       _fts5IndexCharlen          10033250 f   interop.obj
 0001:00032290       _sqlite3Fts5IndexCharlenToBytelen 10033290 f   interop.obj
 0001:000322e0       _fts5NextRowid             100332e0 f   interop.obj
 0001:00032330       _fts5BufferSwap            10033330 f   interop.obj
 0001:00032350       _fts5DoclistIterNext       10033350 f   interop.obj
 0001:000323d0       _fts5PoslistPrefix         100333d0 f   interop.obj
 0001:00032420       _fts5IndexReturn           10033420 f   interop.obj
 0001:00032430       _fts5DlidxExtractFirstRowid 10033430 f   interop.obj
 0001:00032460       _fts5PrefixCompress        10033460 f   interop.obj
 0001:00032490       _fts5AllocateSegid         10033490 f   interop.obj
 0001:000325b0       _fts5MultiIterTerm         100335b0 f   interop.obj
 0001:000325d0       _fts5MultiIterRowid        100335d0 f   interop.obj
 0001:000325f0       _fts5MultiIterEof          100335f0 f   interop.obj
 0001:00032610       _fts5IterSetOutputs_ZeroColset 10033610 f   interop.obj
 0001:00032620       _fts5IterSetOutputs_None   10033620 f   interop.obj
 0001:00032640       _fts5IndexExtractCol       10033640 f   interop.obj
 0001:000326d0       _fts5IndexColsetTest       100336d0 f   interop.obj
 0001:00032700       _fts5PoslistCallback       10033700 f   interop.obj
 0001:00032730       _fts5IterSetOutputs_Noop   10033730 f   interop.obj
 0001:00032740       _fts5MultiIterSetEof       10033740 f   interop.obj
 0001:00032770       _fts5MultiIterAdvanceRowid 10033770 f   interop.obj
 0001:000328d0       _fts5MultiIterIsEmpty      100338d0 f   interop.obj
 0001:00032900       _fts5SegIterLoadNPos       10033900 f   interop.obj
 0001:000329b0       _fts5GetPoslistSize        100339b0 f   interop.obj
 0001:00032a00       _fts5DlidxIterPgno         10033a00 f   interop.obj
 0001:00032a10       _fts5DlidxIterRowid        10033a10 f   interop.obj
 0001:00032a20       _fts5DlidxLvlPrev          10033a20 f   interop.obj
 0001:00032af0       _fts5DlidxIterEof          10033af0 f   interop.obj
 0001:00032b10       _fts5DlidxLvlNext          10033b10 f   interop.obj
 0001:00032bc0       _fts5SegmentSize           10033bc0 f   interop.obj
 0001:00032bd0       _fts5StructureRef          10033bd0 f   interop.obj
 0001:00032be0       _fts5LeafFirstTermOff      10033be0 f   interop.obj
 0001:00032c00       _fts5BufferCompare         10033c00 f   interop.obj
 0001:00032c80       _fts5GetU16                10033c80 f   interop.obj
 0001:00032ca0       _fts5PutU16                10033ca0 f   interop.obj
 0001:00032cb0       _sqlite3Fts5HashScanEof    10033cb0 f   interop.obj
 0001:00032cc0       _sqlite3Fts5HashScanNext   10033cc0 f   interop.obj
 0001:00032cd0       _fts5HashEntryMerge        10033cd0 f   interop.obj
 0001:00032d70       _fts5HashKey2              10033d70 f   interop.obj
 0001:00032dc0       _fts5HashKey               10033dc0 f   interop.obj
 0001:00032e00       _fts5ExprClearPoslists     10033e00 f   interop.obj
 0001:00032e50       _fts5ExprColsetTest        10033e50 f   interop.obj
 0001:00032e80       _sqlite3Fts5ExprPoslist    10033e80 f   interop.obj
 0001:00032ed0       _sqlite3Fts5ExprPhraseSize 10033ed0 f   interop.obj
 0001:00032ef0       _sqlite3Fts5ExprPhraseCount 10033ef0 f   interop.obj
 0001:00032f00       _fts5MergeColset           10033f00 f   interop.obj
 0001:00032f80       _sqlite3Fts5ParseFinished  10033f80 f   interop.obj
 0001:00032f90       _sqlite3Fts5ParseSetCaret  10033f90 f   interop.obj
 0001:00032fa0       _sqlite3Fts5ExprRowid      10033fa0 f   interop.obj
 0001:00032fb0       _sqlite3Fts5ExprEof        10033fb0 f   interop.obj
 0001:00032fc0       _fts5ExprNodeTest_TERM     10033fc0 f   interop.obj
 0001:00033000       _fts5ExprNodeZeroPoslist   10034000 f   interop.obj
 0001:00033060       _fts5ExprSetEof            10034060 f   interop.obj
 0001:000330a0       _fts5RowidCmp              100340a0 f   interop.obj
 0001:00033100       _fts5ExprSynonymRowid      10034100 f   interop.obj
 0001:00033190       _fts5ExprIsspace           10034190 f   interop.obj
 0001:000331b0       _sqlite3Fts5Tokenize       100341b0 f   interop.obj
 0001:000331e0       _fts5Dequote               100341e0 f   interop.obj
 0001:00033240       _fts5_isdigit              10034240 f   interop.obj
 0001:00033250       _fts5_isopenquote          10034250 f   interop.obj
 0001:00033270       _fts5_iswhitespace         10034270 f   interop.obj
 0001:00033280       _sqlite3Fts5IsBareword     10034280 f   interop.obj
 0001:000333b0       _sqlite3Fts5PoslistNext64  100343b0 f   interop.obj
 0001:00033480       _sqlite3Fts5BufferZero     10034480 f   interop.obj
 0001:00033490       _sqlite3Fts5Get32          10034490 f   interop.obj
 0001:000334b0       _sqlite3Fts5Put32          100344b0 f   interop.obj
 0001:000334d0       _fts5CountCb               100344d0 f   interop.obj
 0001:000334f0       _fts5SnippetScore          100344f0 f   interop.obj
 0001:00033600       _fts5CInstIterNext         10034600 f   interop.obj
 0001:000336a0       _fts5yy_accept             100346a0 f   interop.obj
 0001:000336b0       _fts5yy_find_reduce_action 100346b0 f   interop.obj
 0001:000336d0       _fts5yy_find_shift_action  100346d0 f   interop.obj
 0001:00033710       _sqlite3Fts5ParserInit     10034710 f   interop.obj
 0001:00033800       _sqlite3Codec              10034800 f   interop.obj
 0001:00033928       $LN18                      10034928     * CIL library *:* CIL module *
 0001:00033950       _sqlite3pager_get_codecarg 10034950 f   interop.obj
 0001:00033a80       _soundex                   10034a80 f   interop.obj
 0001:00033b30       _medianIterate             10034b30 f   interop.obj
 0001:00033bf0       _modeIterate               10034bf0 f   interop.obj
 0001:00033ca0       _rad2deg                   10034ca0 f   interop.obj
 0001:00033cc0       _deg2rad                   10034cc0 f   interop.obj
 0001:00033ce0       _coth                      10034ce0 f   interop.obj
 0001:00033d10       _cot                       10034d10 f   interop.obj
 0001:00033d30       _sqlite3ReadUtf8           10034d30 f   interop.obj
 0001:00033d98       $LN12                      10034d98     * CIL library *:* CIL module *
 0001:00033dc0       _stmtBestIndex             10034dc0 f   interop.obj
 0001:00033df0       _stmtEof                   10034df0 f   interop.obj
 0001:00033e00       _stmtRowid                 10034e00 f   interop.obj
 0001:00033f20       _sessionDiscardData        10034f20 f   interop.obj
 0001:00033f90       _sessionDiffDepth          10034f90 f   interop.obj
 0001:00033fa0       _sessionStat1Depth         10034fa0 f   interop.obj
 0001:00033fc0       _sessionStat1Count         10034fc0 f   interop.obj
 0001:00033fe0       _sessionHashAppendType     10034fe0 f   interop.obj
 0001:00033ff0       _sessionHashAppendBlob     10034ff0 f   interop.obj
 0001:00034020       _sessionHashAppendI64      10035020 f   interop.obj
 0001:00034050       _sessionPutI64             10035050 f   interop.obj
 0001:000340c0       _sessionGetI64             100350c0 f   interop.obj
 0001:00034150       _statRowid                 10035150 f   interop.obj
 0001:00034170       _statEof                   10035170 f   interop.obj
 0001:00034180       _getLocalPayload           10035180 f   interop.obj
 0001:00034200       _statBestIndex             10035200 f   interop.obj
 0001:000342b0       _rtreeBeginTransaction     100352b0 f   interop.obj
 0001:000342c0       _SortByDimension           100352c0 f   interop.obj
 0001:00034430       _SortByDistance            10035430 f   interop.obj
 0001:00034500       _cellOverlap               10035500 f   interop.obj
 0001:00034610       _cellContains              10035610 f   interop.obj
 0001:00034690       _cellUnion                 10035690 f   interop.obj
 0001:00034730       _cellMargin                10035730 f   interop.obj
 0001:00034780       _cellArea                  10035780 f   interop.obj
 0001:00034858       $LN21                      10035858     * CIL library *:* CIL module *
 0001:00034868       $LN22                      10035868     * CIL library *:* CIL module *
 0001:00034880       _rtreeSearchPointFirst     10035880 f   interop.obj
 0001:000348a0       _rtreeSearchPointCompare   100358a0 f   interop.obj
 0001:000348d0       _rtreeLeafConstraint       100358d0 f   interop.obj
 0001:0003497c       $LN18                      1003597c     * CIL library *:* CIL module *
 0001:00034990       _rtreeNonleafConstraint    10035990 f   interop.obj
 0001:00034a20       _rtreeEof                  10035a20 f   interop.obj
 0001:00034a30       _rtreeReference            10035a30 f   interop.obj
 0001:00034a40       _nodeHash                  10035a40 f   interop.obj
 0001:00034a60       _nodeZero                  10035a60 f   interop.obj
 0001:00034a90       _nodeReference             10035a90 f   interop.obj
 0001:00034aa0       _writeInt64                10035aa0 f   interop.obj
 0001:00034ac0       _writeCoord                10035ac0 f   interop.obj
 0001:00034ad0       _writeInt16                10035ad0 f   interop.obj
 0001:00034ae0       _readInt64                 10035ae0 f   interop.obj
 0001:00034b00       _readCoord                 10035b00 f   interop.obj
 0001:00034b10       _readInt16                 10035b10 f   interop.obj
 0001:00034b20       _sqlite3FtsUnicodeIsdiacritic 10035b20 f   interop.obj
 0001:00034b60       _remove_diacritic          10035b60 f   interop.obj
 0001:00034e00       _sqlite3FtsUnicodeIsalnum  10035e00 f   interop.obj
 0001:00034ea0       _unicodeIsException        10035ea0 f   interop.obj
 0001:00034ef0       _fts3MatchinfoLcsCb        10035ef0 f   interop.obj
 0001:00034f10       _fts3MatchinfoSize         10035f10 f   interop.obj
 0001:00034f5c       $LN12                      10035f5c     * CIL library *:* CIL module *
 0001:00034f70       $LN10                      10035f70     * CIL library *:* CIL module *
 0001:00034f90       _fts3ColumnlistCount       10035f90 f   interop.obj
 0001:00034fd0       _fts3ExprPhraseCountCb     10035fd0 f   interop.obj
 0001:00034ff0       _fts3ExprLoadDoclistsCb    10035ff0 f   interop.obj
 0001:00035010       _fts3ExprIterate2          10036010 f   interop.obj
 0001:00035070       _fts3MIBufferSetGlobal     10036070 f   interop.obj
 0001:000350a0       _fts3ChecksumEntry         100360a0 f   interop.obj
 0001:00035160       _fts3Getint                10036160 f   interop.obj
 0001:000351a0       _fts3TermCmp               100361a0 f   interop.obj
 0001:00035220       _sqlite3Fts3MsrIncrRestart 10036220 f   interop.obj
 0001:00035280       _fts3PrefixCompress        10036280 f   interop.obj
 0001:000352b0       _fts3SegReaderSort         100362b0 f   interop.obj
 0001:00035320       _fts3SegReaderTermCmp      10036320 f   interop.obj
 0001:000353c0       _fts3SegReaderDoclistCmpRev 100363c0 f   interop.obj
 0001:00035420       _fts3SegReaderDoclistCmp   10036420 f   interop.obj
 0001:00035480       _fts3SegReaderCmp          10036480 f   interop.obj
 0001:000355a0       _fts3CompareElemByTerm     100365a0 f   interop.obj
 0001:00035630       _getAbsoluteLevel          10036630 f   interop.obj
 0001:00035660       _fts3tokRowidMethod        10036660 f   interop.obj
 0001:00035680       _fts3tokEofMethod          10036680 f   interop.obj
 0001:00035690       _fts3tokBestIndexMethod    10036690 f   interop.obj
 0001:00035700       _sqlite3Fts3SimpleTokenizerModule 10036700 f   interop.obj
 0001:00035710       _fts3_isalnum              10036710 f   interop.obj
 0001:00035740       _simpleDelim               10036740 f   interop.obj
 0001:00035760       _sqlite3Fts3IsIdChar       10036760 f   interop.obj
 0001:00035780       _sqlite3Fts3PorterTokenizerModule 10036780 f   interop.obj
 0001:00035790       _copy_stemmer              10036790 f   interop.obj
 0001:00035830       _stem                      10036830 f   interop.obj
 0001:00035890       _isVowel                   10036890 f   interop.obj
 0001:000358c0       _isConsonant               100368c0 f   interop.obj
 0001:000358f0       _fts3HashInsertElement     100368f0 f   interop.obj
 0001:00035960       _fts3BinCompare            10036960 f   interop.obj
 0001:000359d0       _fts3BinHash               100369d0 f   interop.obj
 0001:00035a00       _fts3StrCompare            10036a00 f   interop.obj
 0001:00035a30       _fts3StrHash               10036a30 f   interop.obj
 0001:00035a80       _sqlite3Fts3HashInit       10036a80 f   interop.obj
 0001:00035ab0       _fts3ExprCheckDepth        10036ab0 f   interop.obj
 0001:00035af0       _opPrecedence              10036af0 f   interop.obj
 0001:00035b10       _sqlite3Fts3OpenTokenizer  10036b10 f   interop.obj
 0001:00035ba0       _fts3isspace               10036ba0 f   interop.obj
 0001:00035bd0       _fts3auxRowidMethod        10036bd0 f   interop.obj
 0001:00035bf0       _fts3auxEofMethod          10036bf0 f   interop.obj
 0001:00035c00       _fts3auxBestIndexMethod    10036c00 f   interop.obj
 0001:00035d70       _fts3ReleaseMethod         10036d70 f   interop.obj
 0001:00035d80       _fts3ReversePoslist        10036d80 f   interop.obj
 0001:00035df0       _fts3CommitMethod          10036df0 f   interop.obj
 0001:00035e00       _fts3RowidMethod           10036e00 f   interop.obj
 0001:00035e20       _fts3ColumnlistCopy        10036e20 f   interop.obj
 0001:00035e90       _fts3PoslistCopy           10036e90 f   interop.obj
 0001:00035f00       _fts3GobbleInt             10036f00 f   interop.obj
 0001:00035f60       _sqlite3Fts3Dequote        10036f60 f   interop.obj
 0001:00035fe0       _sqlite3Fts3VarintLen      10036fe0 f   interop.obj
 0001:00036010       _sqlite3Fts3GetVarint32    10037010 f   interop.obj
 0001:00036090       _sqlite3Fts3GetVarint      10037090 f   interop.obj
 0001:000361a0       _sqlite3Fts3PutVarint      100371a0 f   interop.obj
 0001:00036220       _sqlite3TempInMemory       10037220 f   interop.obj
 0001:00036230       _sqlite3InvokeBusyHandler  10037230 f   interop.obj
 0001:00036280       _sqlite3ErrStr             10037280 f   interop.obj
 0001:000362c0       _allSpaces                 100372c0 f   interop.obj
 0001:00036310       _sqlite3IsIdChar           10037310 f   interop.obj
 0001:00036380       _keywordCode               10037380 f   interop.obj
 0001:00036440       _yy_accept                 10037440 f   interop.obj
 0001:00036450       _yy_find_reduce_action     10037450 f   interop.obj
 0001:00036470       _yy_find_shift_action      10037470 f   interop.obj
 0001:00036500       _sqlite3ParserInit         10037500 f   interop.obj
 0001:00036520       _disableLookaside          10037520 f   interop.obj
 0001:00036530       _exprNodeIsDeterministic   10037530 f   interop.obj
 0001:00036560       _sqlite3WhereIsSorted      10037560 f   interop.obj
 0001:00036570       _columnsInIndex            10037570 f   interop.obj
 0001:000365f0       _whereLoopFindLesser       100375f0 f   interop.obj
 0001:000366e0       _whereLoopCheaperProperSubset 100376e0 f   interop.obj
 0001:000367a0       _whereLoopInit             100377a0 f   interop.obj
 0001:000367c0       _whereRangeAdjust          100377c0 f   interop.obj
 0001:000367f0       _indexColumnNotNull        100377f0 f   interop.obj
 0001:00036820       _createMask                10037820 f   interop.obj
 0001:00036830       _sqlite3WhereGetMask       10037830 f   interop.obj
 0001:00036870       _whereOrInsert             10037870 f   interop.obj
 0001:00036980       _whereOrMove               10037980 f   interop.obj
 0001:000369a0       _sqlite3WhereOkOnePass     100379a0 f   interop.obj
 0001:000369b0       _sqlite3WhereBreakLabel    100379b0 f   interop.obj
 0001:000369c0       _sqlite3WhereContinueLabel 100379c0 f   interop.obj
 0001:000369d0       _sqlite3WhereOrderedInnerLoop 100379d0 f   interop.obj
 0001:000369e0       _sqlite3WhereIsOrdered     100379e0 f   interop.obj
 0001:000369f0       _sqlite3WhereIsDistinct    100379f0 f   interop.obj
 0001:00036a00       _sqlite3WhereOutputRowCount 10037a00 f   interop.obj
 0001:00036a10       _sqlite3WhereExprListUsage 10037a10 f   interop.obj
 0001:00036a80       _sqlite3WhereClauseInit    10037a80 f   interop.obj
 0001:00036aa0       _exprSelectUsage           10037aa0 f   interop.obj
 0001:00036bb0       _whereNthSubterm           10037bb0 f   interop.obj
 0001:00036be0       _markTermAsChild           10037be0 f   interop.obj
 0001:00036c20       _transferJoinMarkings      10037c20 f   interop.obj
 0001:00036c40       _operatorMask              10037c40 f   interop.obj
 0001:00036c70       _allowedOp                 10037c70 f   interop.obj
 0001:00036ca0       _disableTerm               10037ca0 f   interop.obj
 0001:00036d10       _explainIndexColumnName    10037d10 f   interop.obj
 0001:00036d40       _sqlite3VtabSavepoint      10037d40 f   interop.obj
 0001:00036dd0       _sqlite3VtabArgExtend      10037dd0 f   interop.obj
 0001:00036e00       _vtabDisconnectAll         10037e00 f   interop.obj
 0001:00036e50       _sqlite3GetVTable          10037e50 f   interop.obj
 0001:00036e70       _sqlite3VtabLock           10037e70 f   interop.obj
 0001:00036e80       _sqlite3SelectWalkNoop     10037e80 f   interop.obj
 0001:00036e90       _sqlite3ExprWalkNoop       10037e90 f   interop.obj
 0001:00036ea0       _sqlite3WithPush           10037ea0 f   interop.obj
 0001:00036ed0       _isSimpleCount             10037ed0 f   interop.obj
 0001:00036f30       _substExprList             10037f30 f   interop.obj
 0001:00036f70       _selectOpName              10037f70 f   interop.obj
 0001:00036fa0       _sqlite3KeyInfoRef         10037fa0 f   interop.obj
 0001:00036fb0       _unsetJoinExpr             10037fb0 f   interop.obj
 0001:00037030       _setJoinExpr               10038030 f   interop.obj
 0001:000370a0       _findRightmost             100380a0 f   interop.obj
 0001:000370c0       _sqlite3SelectDestInit     100380c0 f   interop.obj
 0001:00037140       _sqlite3SchemaToIndex      10038140 f   interop.obj
 0001:00037170       _pragmaVtabRowid           10038170 f   interop.obj
 0001:00037190       _pragmaVtabEof             10038190 f   interop.obj
 0001:000371a0       _pragmaVtabBestIndex       100381a0 f   interop.obj
 0001:00037290       _sqlite3JournalModename    10038290 f   interop.obj
 0001:000372a0       _actionName                100382a0 f   interop.obj
 0001:000372d0       $LN11                      100382d0     * CIL library *:* CIL module *
 0001:000372e0       _checkConstraintExprNode   100382e0 f   interop.obj
 0001:00037320       _isSetNullAction           10038320 f   interop.obj
 0001:00037360       _fkChildIsModified         10038360 f   interop.obj
 0001:000373c0       _sqlite3SkipAccumulatorLoad 100383c0 f   interop.obj
 0001:000373d0       _sqlite3GetFuncCollSeq     100383d0 f   interop.obj
 0001:000373f0       _matchQuality              100383f0 f   interop.obj
 0001:00037460       _sqlite3MayAbort           10038460 f   interop.obj
 0001:00037470       _sqlite3MultiWrite         10038470 f   interop.obj
 0001:00037480       _sqlite3SrcListShiftJoinType 10038480 f   interop.obj
 0001:000374b0       _sqlite3SrcListAssignCursors 100384b0 f   interop.obj
 0001:00037510       _sqlite3DefaultRowEst      10038510 f   interop.obj
 0001:000375c0       _sqlite3DeferForeignKey    100385c0 f   interop.obj
 0001:000375e0       _sqlite3RootPageMoved      100385e0 f   interop.obj
 0001:00037640       _hasColumn                 10038640 f   interop.obj
 0001:00037670       _identLength               10038670 f   interop.obj
 0001:000376a0       _sqlite3StringToId         100386a0 f   interop.obj
 0001:000376c0       _sqlite3AddNotNull         100386c0 f   interop.obj
 0001:00037720       _sqlite3ColumnOfIndex      10038720 f   interop.obj
 0001:00037750       _sqlite3PrimaryKeyIndex    10038750 f   interop.obj
 0001:00037770       _sqlite3CommitInternalChanges 10038770 f   interop.obj
 0001:00037780       _sqlite3AuthContextPop     10038780 f   interop.obj
 0001:000377a0       _sqlite3AuthContextPush    100387a0 f   interop.obj
 0001:000377c0       _sqlite3FixExprList        100387c0 f   interop.obj
 0001:00037810       _sqlite3FixInit            10038810 f   interop.obj
 0001:00037850       _initAvgEq                 10038850 f   interop.obj
 0001:000379e0       _sampleIsBetterPost        100389e0 f   interop.obj
 0001:00037a50       _sqlite3ClearTempRegCache  10038a50 f   interop.obj
 0001:00037a60       _sqlite3ReleaseTempReg     10038a60 f   interop.obj
 0001:00037ab0       _sqlite3GetTempReg         10038ab0 f   interop.obj
 0001:00037ad0       _analyzeAggregatesInSelectEnd 10038ad0 f   interop.obj
 0001:00037ae0       _analyzeAggregatesInSelect 10038ae0 f   interop.obj
 0001:00037af0       _exprSrcCount              10038af0 f   interop.obj
 0001:00037b50       _exprIdxCover              10038b50 f   interop.obj
 0001:00037bc0       _impliesNotNullRow         10038bc0 f   interop.obj
 0001:00037c2c       $LN16                      10038c2c     * CIL library *:* CIL module *
 0001:00037c3c       $LN14                      10038c3c     * CIL library *:* CIL module *
 0001:00037cc0       _sqlite3ExprListCompare    10038cc0 f   interop.obj
 0001:00037d50       _exprToRegister            10038d50 f   interop.obj
 0001:00037d70       _sqlite3ExprCacheClear     10038d70 f   interop.obj
 0001:00037db0       _sqlite3ExprCachePinRegister 10038db0 f   interop.obj
 0001:00037de0       _sqlite3ExprCachePush      10038de0 f   interop.obj
 0001:00037df0       _sqlite3ExprCacheStore     10038df0 f   interop.obj
 0001:00037f00       _cacheEntryClear           10038f00 f   interop.obj
 0001:00037f70       _isCandidateForInOpt       10038f70 f   interop.obj
 0001:00037fe0       _sqlite3ExprNeedsNoAffinityChange 10038fe0 f   interop.obj
 0001:00038044       $LN40                      10039044     * CIL library *:* CIL module *
 0001:0003805c       $LN31                      1003905c     * CIL library *:* CIL module *
 0001:00038090       _sqlite3ExprCanBeNull      10039090 f   interop.obj
 0001:000380f4       $LN23                      100390f4     * CIL library *:* CIL module *
 0001:00038100       $LN20                      10039100     * CIL library *:* CIL module *
 0001:00038140       _sqlite3ExprIsInteger      10039140 f   interop.obj
 0001:000381c0       _sqlite3ExprTruthValue     100391c0 f   interop.obj
 0001:000381d0       _sqlite3SelectWalkFail     100391d0 f   interop.obj
 0001:000381f0       _sqlite3ExprListFlags      100391f0 f   interop.obj
 0001:00038210       _sqlite3ExprListSetSortOrder 10039210 f   interop.obj
 0001:00038230       _dupedExprStructSize       10039230 f   interop.obj
 0001:00038260       _exprStructSize            10039260 f   interop.obj
 0001:00038280       _exprAlwaysFalse           10039280 f   interop.obj
 0001:000382b0       _exprAlwaysTrue            100392b0 f   interop.obj
 0001:000382e0       _heightOfExpr              100392e0 f   interop.obj
 0001:000382f0       _sqlite3ExprVectorSize     100392f0 f   interop.obj
 0001:00038320       _sqlite3ExprIsVector       10039320 f   interop.obj
 0001:00038330       _sqlite3ExprSkipCollate    10039330 f   interop.obj
 0001:00038360       _sqlite3TableColumnAffinity 10039360 f   interop.obj
 0001:00038380       _incrAggDepth              10039380 f   interop.obj
 0001:000383a0       _sqlite3WalkExprList       100393a0 f   interop.obj
 0001:000383e0       _sqlite3JournalSize        100393e0 f   interop.obj
 0001:000383f0       _sqlite3JournalIsInMemory  100393f0 f   interop.obj
 0001:00038400       _memjrnlFileSize           10039400 f   interop.obj
 0001:00038420       _memjrnlSync               10039420 f   interop.obj
 0001:00038430       _memjrnlRead               10039430 f   interop.obj
 0001:00038540       _vdbeSorterRowkey          10039540 f   interop.obj
 0001:00038590       _vdbeSorterTreeDepth       10039590 f   interop.obj
 0001:000385c0       _vdbeMergeEngineCompare    100395c0 f   interop.obj
 0001:00038680       _vdbeIncrMergerSetThreads  10039680 f   interop.obj
 0001:000386a0       _vdbeMergeEngineStep       100396a0 f   interop.obj
 0001:00038830       _vdbeSorterMerge           10039830 f   interop.obj
 0001:000389c0       _columnNullValue           100399c0 f   interop.obj
 0001:00038ba0       _sqlite3VdbeSetVarmask     10039ba0 f   interop.obj
 0001:00038bd0       _sqlite3VdbePrepareFlags   10039bd0 f   interop.obj
 0001:00038be0       _sqlite3VdbeDb             10039be0 f   interop.obj
 0001:00038bf0       _sqlite3ExpirePreparedStatements 10039bf0 f   interop.obj
 0001:00038c10       _sqlite3VdbeCountChanges   10039c10 f   interop.obj
 0001:00038c20       _sqlite3VdbeSetChanges     10039c20 f   interop.obj
 0001:00038c30       _vdbeRecordDecodeInt       10039c30 f   interop.obj
 0001:00038d74       $LN12                      10039d74     * CIL library *:* CIL module *
 0001:00038d90       _sqlite3IntFloatCompare    10039d90 f   interop.obj
 0001:00038e10       _isAllZero                 10039e10 f   interop.obj
 0001:00038e30       _sqlite3VdbeSerialPut      10039e30 f   interop.obj
 0001:00038e90       _sqlite3VdbeOneByteSerialTypeLen 10039e90 f   interop.obj
 0001:00038ea0       _sqlite3VdbeSerialTypeLen  10039ea0 f   interop.obj
 0001:00038ec0       _sqlite3VdbeSerialType     10039ec0 f   interop.obj
 0001:00039020       _sqlite3VdbeResetStepResult 1003a020 f   interop.obj
 0001:00039030       _sqlite3VdbeRewind         1003a030 f   interop.obj
 0001:00039080       _allocSpace                1003a080 f   interop.obj
 0001:000390b0       _initMemArray              1003a0b0 f   interop.obj
 0001:000390e0       _sqlite3VdbeGetOp          1003a0e0 f   interop.obj
 0001:00039110       _sqlite3VdbeLinkSubProgram 1003a110 f   interop.obj
 0001:00039120       _sqlite3VdbeChangeP5       1003a120 f   interop.obj
 0001:00039140       _sqlite3VdbeChangeP3       1003a140 f   interop.obj
 0001:00039180       _sqlite3VdbeChangeP2       1003a180 f   interop.obj
 0001:000391c0       _sqlite3VdbeChangeP1       1003a1c0 f   interop.obj
 0001:00039200       _sqlite3VdbeChangeOpcode   1003a200 f   interop.obj
 0001:00039240       _sqlite3VdbeCurrentAddr    1003a240 f   interop.obj
 0001:00039250       _sqlite3VdbeReusable       1003a250 f   interop.obj
 0001:00039260       _sqlite3VdbeRunOnlyOnce    1003a260 f   interop.obj
 0001:00039270       _sqlite3VdbeResolveLabel   1003a270 f   interop.obj
 0001:00039290       _sqlite3VdbeExplainParent  1003a290 f   interop.obj
 0001:000392d0       _sqlite3VdbeSwap           1003a2d0 f   interop.obj
 0001:00039390       _sqlite3VdbeMemTooBig      1003a390 f   interop.obj
 0001:000393c0       _sqlite3NoopDestructor     1003a3c0 f   interop.obj
 0001:000393d0       _sqlite3VdbeMemInit        1003a3d0 f   interop.obj
 0001:000393f0       _sqlite3RealSameAsInt      1003a3f0 f   interop.obj
 0001:00039430       _doubleToInt64             1003a430 f   interop.obj
 0001:00039490       _sqlite3BackupRestart      1003a490 f   interop.obj
 0001:000394b0       _isFatalError              1003a4b0 f   interop.obj
 0001:000394d0       _sqlite3BtreeConnectionCount 1003a4d0 f   interop.obj
 0001:000394e0       _sqlite3BtreeSharable      1003a4e0 f   interop.obj
 0001:000394f0       _sqlite3HeaderSizeBtree    1003a4f0 f   interop.obj
 0001:00039500       _sqlite3BtreeIsReadonly    1003a500 f   interop.obj
 0001:00039510       _sqlite3BtreeCursorHasHint 1003a510 f   interop.obj
 0001:00039520       _sqlite3BtreeIncrblobCursor 1003a520 f   interop.obj
 0001:00039530       _sqlite3BtreeIsInBackup    1003a530 f   interop.obj
 0001:00039540       _sqlite3BtreeIsInReadTrans 1003a540 f   interop.obj
 0001:00039550       _sqlite3BtreeIsInTrans     1003a550 f   interop.obj
 0001:00039570       _btreeHeapPull             1003a570 f   interop.obj
 0001:000395d0       _btreeHeapInsert           1003a5d0 f   interop.obj
 0001:00039600       _setPageReferenced         1003a600 f   interop.obj
 0001:00039620       _getPageReferenced         1003a620 f   interop.obj
 0001:00039640       _sqlite3BtreePager         1003a640 f   interop.obj
 0001:00039650       _computeCellSize           1003a650 f   interop.obj
 0001:00039680       _populateCellCache         1003a680 f   interop.obj
 0001:000396e0       _sqlite3BtreeRowCountEst   1003a6e0 f   interop.obj
 0001:00039750       _sqlite3BtreeEof           1003a750 f   interop.obj
 0001:00039760       _fetchPayload              1003a760 f   interop.obj
 0001:00039790       _sqlite3BtreeCursorIsValidNN 1003a790 f   interop.obj
 0001:000397a0       _sqlite3BtreeCursorZero    1003a7a0 f   interop.obj
 0001:000397b0       _sqlite3BtreeCursorSize    1003a7b0 f   interop.obj
 0001:000397c0       _sqlite3BtreeGetReserveNoMutex 1003a7c0 f   interop.obj
 0001:000397d0       _sqlite3BtreeGetPageSize   1003a7d0 f   interop.obj
 0001:000397e0       _btreePagecount            1003a7e0 f   interop.obj
 0001:000397f0       _cellSizePtrNoPayload      1003a7f0 f   interop.obj
 0001:00039810       _cellSizePtr               1003a810 f   interop.obj
 0001:000398c0       _btreeParseCell            1003a8c0 f   interop.obj
 0001:000398f0       _btreeParseCellAdjustSizeForOverflow 1003a8f0 f   interop.obj
 0001:00039950       _ptrmapPageno              1003a950 f   interop.obj
 0001:000399a0       _sqlite3BtreeCursorHintFlags 1003a9a0 f   interop.obj
 0001:000399b0       _sqlite3BtreeFakeValidCursor 1003a9b0 f   interop.obj
 0001:000399c0       _sqlite3BtreeCursorHasMoved 1003a9c0 f   interop.obj
 0001:000399d0       _invalidateIncrblobCursors 1003a9d0 f   interop.obj
 0001:00039a30       _invalidateAllOverflowCache 1003aa30 f   interop.obj
 0001:00039a50       _downgradeAllSharedCacheTableLocks 1003aa50 f   interop.obj
 0001:00039a80       _querySharedCacheTableLock 1003aa80 f   interop.obj
 0001:00039af0       _sqlite3WalFile            1003aaf0 f   interop.obj
 0001:00039b00       _sqlite3WalHeapMemory      1003ab00 f   interop.obj
 0001:00039b20       _sqlite3WalCallback        1003ab20 f   interop.obj
 0001:00039b40       _sqlite3WalSavepoint       1003ab40 f   interop.obj
 0001:00039b60       _sqlite3WalDbsize          1003ab60 f   interop.obj
 0001:00039b80       _walPagesize               1003ab80 f   interop.obj
 0001:00039ba0       _walMerge                  1003aba0 f   interop.obj
 0001:00039c70       _walIteratorNext           1003ac70 f   interop.obj
 0001:00039d10       _sqlite3WalLimit           1003ad10 f   interop.obj
 0001:00039d30       _walFramePage              1003ad30 f   interop.obj
 0001:00039d40       _walNextHash               1003ad40 f   interop.obj
 0001:00039d50       _walHash                   1003ad50 f   interop.obj
 0001:00039d60       _walChecksumBytes          1003ad60 f   interop.obj
 0001:00039e20       _walIndexHdr               1003ae20 f   interop.obj
 0001:00039e30       _walCkptInfo               1003ae30 f   interop.obj
 0001:00039e40       _sqlite3PagerWalSupported  1003ae40 f   interop.obj
 0001:00039e70       _sqlite3PagerWalCallback   1003ae70 f   interop.obj
 0001:00039e90       _sqlite3PagerBackupPtr     1003ae90 f   interop.obj
 0001:00039ea0       _sqlite3PagerJournalSizeLimit 1003aea0 f   interop.obj
 0001:00039ef0       _sqlite3PagerOkToChangeJournalMode 1003aef0 f   interop.obj
 0001:00039f20       _sqlite3PagerGetJournalMode 1003af20 f   interop.obj
 0001:00039f30       _sqlite3PagerLockingMode   1003af30 f   interop.obj
 0001:00039f60       _sqlite3PagerGetExtra      1003af60 f   interop.obj
 0001:00039f70       _sqlite3PagerGetData       1003af70 f   interop.obj
 0001:00039f80       _sqlite3PagerCodec         1003af80 f   interop.obj
 0001:00039fb0       _sqlite3PagerGetCodec      1003afb0 f   interop.obj
 0001:00039fc0       _sqlite3PagerJournalname   1003afc0 f   interop.obj
 0001:00039fd0       _sqlite3PagerJrnlFile      1003afd0 f   interop.obj
 0001:00039ff0       _sqlite3PagerFile          1003aff0 f   interop.obj
 0001:0003a000       _sqlite3PagerVfs           1003b000 f   interop.obj
 0001:0003a010       _sqlite3PagerFilename      1003b010 f   interop.obj
 0001:0003a030       _sqlite3PagerIsMemdb       1003b030 f   interop.obj
 0001:0003a040       _sqlite3PagerCacheStat     1003b040 f   interop.obj
 0001:0003a070       _sqlite3PagerIsreadonly    1003b070 f   interop.obj
 0001:0003a080       _sqlite3PagerDontWrite     1003b080 f   interop.obj
 0001:0003a0b0       _sqlite3PagerGet           1003b0b0 f   interop.obj
 0001:0003a0d0       _getPageError              1003b0d0 f   interop.obj
 0001:0003a0f0       _sqlite3PagerTruncateImage 1003b0f0 f   interop.obj
 0001:0003a100       _sqlite3PagerPagecount     1003b100 f   interop.obj
 0001:0003a110       _sqlite3PagerMaxPageCount  1003b110 f   interop.obj
 0001:0003a130       _sqlite3PagerTempSpace     1003b130 f   interop.obj
 0001:0003a140       _sqlite3PagerSetFlags      1003b140 f   interop.obj
 0001:0003a1d0       _pagerReportSize           1003b1d0 f   interop.obj
 0001:0003a200       _pager_cksum               1003b200 f   interop.obj
 0001:0003a270       _sqlite3PagerDataVersion   1003b270 f   interop.obj
 0001:0003a280       _journalHdrOffset          1003b280 f   interop.obj
 0001:0003a2e0       _jrnlBufferSize            1003b2e0 f   interop.obj
 0001:0003a2f0       _rowSetNDeepTree           1003b2f0 f   interop.obj
 0001:0003a350       _rowSetTreeToList          1003b350 f   interop.obj
 0001:0003a390       _rowSetEntryMerge          1003b390 f   interop.obj
 0001:0003a3f0       _sqlite3RowSetInit         1003b3f0 f   interop.obj
 0001:0003a440       _sqlite3Pcache1Mutex       1003b440 f   interop.obj
 0001:0003a450       _sqlite3HeaderSizePcache1  1003b450 f   interop.obj
 0001:0003a460       _pcache1Shutdown           1003b460 f   interop.obj
 0001:0003a480       _pcache1PinPage            1003b480 f   interop.obj
 0001:0003a4b0       _sqlite3PCacheBufferSetup  1003b4b0 f   interop.obj
 0001:0003a550       _sqlite3HeaderSizePcache   1003b550 f   interop.obj
 0001:0003a560       _sqlite3PcacheShrink       1003b560 f   interop.obj
 0001:0003a570       _sqlite3PcachePagecount    1003b570 f   interop.obj
 0001:0003a580       _sqlite3PcachePageRefcount 1003b580 f   interop.obj
 0001:0003a590       _sqlite3PcacheRefCount     1003b590 f   interop.obj
 0001:0003a5a0       _pcacheMergeDirtyList      1003b5a0 f   interop.obj
 0001:0003a5f0       _sqlite3PcacheClose        1003b5f0 f   interop.obj
 0001:0003a600       _sqlite3PcacheClearSyncFlags 1003b600 f   interop.obj
 0001:0003a630       _sqlite3PcacheClearWritable 1003b630 f   interop.obj
 0001:0003a660       _sqlite3PcacheRef          1003b660 f   interop.obj
 0001:0003a670       _pcacheFetchFinishWithInit 1003b670 f   interop.obj
 0001:0003a6d0       _sqlite3PcacheFetchStress  1003b6d0 f   interop.obj
 0001:0003a770       _sqlite3PcacheFetch        1003b770 f   interop.obj
 0001:0003a790       _sqlite3PcacheSize         1003b790 f   interop.obj
 0001:0003a7a0       _sqlite3PcacheShutdown     1003b7a0 f   interop.obj
 0001:0003a7c0       _numberOfCachePages        1003b7c0 f   interop.obj
 0001:0003a7f0       _pcacheUnpin               1003b7f0 f   interop.obj
 0001:0003a810       _pcacheManageDirtyList     1003b810 f   interop.obj
 0001:0003a890       _sqlite3BitvecSize         1003b890 f   interop.obj
 0001:0003a8a0       _sqlite3BitvecClear        1003b8a0 f   interop.obj
 0001:0003a970       _sqlite3BitvecTestNotNull  1003b970 f   interop.obj
 0001:0003aa10       _winCurrentTimeInt64       1003ba10 f   interop.obj
 0001:0003aa60       _xorMemory                 1003ba60 f   interop.obj
 0001:0003aab0       _winDlClose                1003bab0 f   interop.obj
 0001:0003aac0       _winDlSym                  1003bac0 f   interop.obj
 0001:0003aae0       _winIsDriveLetterAndColon  1003bae0 f   interop.obj
 0001:0003ab00       _winDeviceCharacteristics  1003bb00 f   interop.obj
 0001:0003ab20       _winSectorSize             1003bb20 f   interop.obj
 0001:0003ab30       _winModeBit                1003bb30 f   interop.obj
 0001:0003ab60       _winNolockUnlock           1003bb60 f   interop.obj
 0001:0003ab70       _winNolockCheckReservedLock 1003bb70 f   interop.obj
 0001:0003ab80       _winNolockLock             1003bb80 f   interop.obj
 0001:0003ab90       _winUnlockFile             1003bb90 f   interop.obj
 0001:0003abd0       _winLockFile               1003bbd0 f   interop.obj
 0001:0003ac10       _winMemRoundup             1003bc10 f   interop.obj
 0001:0003ac30       _sqlite3Win32Wait          1003bc30 f   interop.obj
 0001:0003ac60       _winNextSystemCall         1003bc60 f   interop.obj
 0001:0003acf0       _winGetSystemCall          1003bcf0 f   interop.obj
 0001:0003ad60       _winSetSystemCall          1003bd60 f   interop.obj
 0001:0003ae60       _sqlite3OpcodeName         1003be60 f   interop.obj
 0001:0003ae70       _insertElement             1003be70 f   interop.obj
 0001:0003aee0       _strHash                   1003bee0 f   interop.obj
 0001:0003af10       _sqlite3HashInit           1003bf10 f   interop.obj
 0001:0003af30       _sqlite3VListNameToNum     1003bf30 f   interop.obj
 0001:0003afa0       _sqlite3VListNumToName     1003bfa0 f   interop.obj
 0001:0003afd0       _sqlite3LogEstToInt        1003bfd0 f   interop.obj
 0001:0003b040       _sqlite3LogEst             1003c040 f   interop.obj
 0001:0003b0f0       _sqlite3LogEstAdd          1003c0f0 f   interop.obj
 0001:0003b150       _sqlite3AbsInt32           1003c150 f   interop.obj
 0001:0003b170       _sqlite3MulInt64           1003c170 f   interop.obj
 0001:0003b290       _sqlite3AddInt64           1003c290 f   interop.obj
 0001:0003b330       _sqlite3HexToInt           1003c330 f   interop.obj
 0001:0003b350       _sqlite3Put4byte           1003c350 f   interop.obj
 0001:0003b360       _sqlite3Get4byte           1003c360 f   interop.obj
 0001:0003b370       _sqlite3VarintLen          1003c370 f   interop.obj
 0001:0003b3b0       _sqlite3GetVarint          1003c3b0 f   interop.obj
 0001:0003b530       _putVarint64               1003c530 f   interop.obj
 0001:0003b640       _sqlite3GetInt32           1003c640 f   interop.obj
 0001:0003b7d0       _compare2pow63             1003c7d0 f   interop.obj
 0001:0003b820       _sqlite3Pow10              1003c820 f   interop.obj
 0001:0003b8d0       _sqlite3StrICmp            1003c8d0 f   interop.obj
 0001:0003b950       _sqlite3Dequote            1003c950 f   interop.obj
 0001:0003b9b0       _sqlite3ColumnType         1003c9b0 f   interop.obj
 0001:0003b9d0       _sqlite3Strlen30           1003c9d0 f   interop.obj
 0001:0003ba00       _sqlite3IsNaN              1003ca00 f   interop.obj
 0001:0003ba40       _sqlite3FaultSim           1003ca40 f   interop.obj
 0001:0003ba60       _sqlite3Utf16ByteLen       1003ca60 f   interop.obj
 0001:0003baa0       _sqlite3Utf8CharLen        1003caa0 f   interop.obj
 0001:0003bae0       _sqlite3Utf8Read           1003cae0 f   interop.obj
 0001:0003bb50       _sqlite3ThreadProc@4       1003cb50 f   interop.obj
 0001:0003bb80       _sqlite3PrngRestoreState   1003cb80 f   interop.obj
 0001:0003bba0       _sqlite3PrngSaveState      1003cba0 f   interop.obj
 0001:0003bbc0       _sqlite3StrAccumInit       1003cbc0 f   interop.obj
 0001:0003bc60       _setStrAccumError          1003cc60 f   interop.obj
 0001:0003bc70       _et_getdigit               1003cc70 f   interop.obj
 0001:0003bcb0       _sqlite3OomClear           1003ccb0 f   interop.obj
 0001:0003bce0       _sqlite3OomFault           1003cce0 f   interop.obj
 0001:0003bd30       _sqlite3MallocSize         1003cd30 f   interop.obj
 0001:0003bd40       _isLookaside               1003cd40 f   interop.obj
 0001:0003bd60       _sqlite3MallocEnd          1003cd60 f   interop.obj
 0001:0003bd90       _sqlite3HeapNearlyFull     1003cd90 f   interop.obj
 0001:0003bdb0       _sqlite3MallocMutex        1003cdb0 f   interop.obj
 0001:0003bdc0       _winMutexLeave             1003cdc0 f   interop.obj
 0001:0003bdd0       _winMutexTry               1003cdd0 f   interop.obj
 0001:0003be10       _winMutexEnter             1003ce10 f   interop.obj
 0001:0003be20       _winMutexEnd               1003ce20 f   interop.obj
 0001:0003be70       _winMutexInit              1003ce70 f   interop.obj
 0001:0003bed0       _sqlite3MemoryBarrier      1003ced0 f   interop.obj
 0001:0003bee0       _noopMutexLeave            1003cee0 f   interop.obj
 0001:0003bef0       _noopMutexTry              1003cef0 f   interop.obj
 0001:0003bf00       _noopMutexEnter            1003cf00 f   interop.obj
 0001:0003bf10       _noopMutexFree             1003cf10 f   interop.obj
 0001:0003bf20       _noopMutexAlloc            1003cf20 f   interop.obj
 0001:0003bf30       _noopMutexEnd              1003cf30 f   interop.obj
 0001:0003bf40       _noopMutexInit             1003cf40 f   interop.obj
 0001:0003bfd0       _sqlite3MutexAlloc         1003cfd0 f   interop.obj
 0001:0003bff0       _sqlite3MutexEnd           1003cff0 f   interop.obj
 0001:0003c000       _sqlite3EndBenignMalloc    1003d000 f   interop.obj
 0001:0003c010       _sqlite3BeginBenignMalloc  1003d010 f   interop.obj
 0001:0003c020       _sqlite3BenignMallocHooks  1003d020 f   interop.obj
 0001:0003c030       _vfsUnlink                 1003d030 f   interop.obj
 0001:0003c110       _sqlite3OsCurrentTimeInt64 1003d110 f   interop.obj
 0001:0003c170       _sqlite3OsGetLastError     1003d170 f   interop.obj
 0001:0003c190       _sqlite3OsSleep            1003d190 f   interop.obj
 0001:0003c1a0       _sqlite3OsRandomness       1003d1a0 f   interop.obj
 0001:0003c1c0       _sqlite3OsDlClose          1003d1c0 f   interop.obj
 0001:0003c1d0       _sqlite3OsDlSym            1003d1d0 f   interop.obj
 0001:0003c1f0       _sqlite3OsDlError          1003d1f0 f   interop.obj
 0001:0003c210       _sqlite3OsDlOpen           1003d210 f   interop.obj
 0001:0003c220       _sqlite3OsFullPathname     1003d220 f   interop.obj
 0001:0003c240       _sqlite3OsAccess           1003d240 f   interop.obj
 0001:0003c260       _sqlite3OsDelete           1003d260 f   interop.obj
 0001:0003c280       _sqlite3OsOpen             1003d280 f   interop.obj
 0001:0003c2a0       _sqlite3OsUnfetch          1003d2a0 f   interop.obj
 0001:0003c2c0       _sqlite3OsFetch            1003d2c0 f   interop.obj
 0001:0003c2e0       _sqlite3OsShmMap           1003d2e0 f   interop.obj
 0001:0003c300       _sqlite3OsShmUnmap         1003d300 f   interop.obj
 0001:0003c310       _sqlite3OsShmBarrier       1003d310 f   interop.obj
 0001:0003c320       _sqlite3OsShmLock          1003d320 f   interop.obj
 0001:0003c340       _sqlite3OsDeviceCharacteristics 1003d340 f   interop.obj
 0001:0003c350       _sqlite3OsSectorSize       1003d350 f   interop.obj
 0001:0003c370       _sqlite3OsFileControlHint  1003d370 f   interop.obj
 0001:0003c390       _sqlite3OsFileControl      1003d390 f   interop.obj
 0001:0003c3b0       _sqlite3OsCheckReservedLock 1003d3b0 f   interop.obj
 0001:0003c3c0       _sqlite3OsUnlock           1003d3c0 f   interop.obj
 0001:0003c3d0       _sqlite3OsLock             1003d3d0 f   interop.obj
 0001:0003c3e0       _sqlite3OsFileSize         1003d3e0 f   interop.obj
 0001:0003c3f0       _sqlite3OsSync             1003d3f0 f   interop.obj
 0001:0003c400       _sqlite3OsTruncate         1003d400 f   interop.obj
 0001:0003c420       _sqlite3OsWrite            1003d420 f   interop.obj
 0001:0003c440       _sqlite3OsRead             1003d440 f   interop.obj
 0001:0003c460       _sqlite3OsClose            1003d460 f   interop.obj
 0001:0003c480       _clearYMD_HMS_TZ           1003d480 f   interop.obj
 0001:0003c490       _validJulianDay            1003d490 f   interop.obj
 0001:0003c4c0       _setRawDateNumber          1003d4c0 f   interop.obj
 0001:0003c510       _datetimeError             1003d510 f   interop.obj
 0001:0003c530       _getDigits                 1003d530 f   interop.obj
 0001:0003c5f0       _localtime_s               1003d5f0 f   interop.obj
 0001:0003c600       _countLookasideSlots       1003d600 f   interop.obj
 0001:0003c610       _sqlite3StatusHighwater    1003d610 f   interop.obj
 0001:0003c630       _sqlite3StatusDown         1003d630 f   interop.obj
 0001:0003c640       _sqlite3StatusUp           1003d640 f   interop.obj
 0001:0003c660       _sqlite3StatusValue        1003d660 f   interop.obj
 0001:0003c670       _sqlite3CompileOptions     1003d670 f   interop.obj
 0001:0003c680       _totypeAtoF                1003d680 f   interop.obj
 0001:0003cc70       _totypeAtoi64              1003dc70 f   interop.obj
 0001:0003cde0       _hash_step                 1003dde0 f   interop.obj
 0001:0003ce90       _re_esc_char               1003de90 f   interop.obj
 0001:0003cfa0       _re_next_char_nocase       1003dfa0 f   interop.obj
 0001:0003cfc0       _jsonEachNext              1003dfc0 f   interop.obj
 0001:0003d0b0       _jsonRemoveAllNulls        1003e0b0 f   interop.obj
 0001:0003d110       _jsonParseFillInParentage  1003e110 f   interop.obj
 0001:0003d1e0       _jsonInit                  1003e1e0 f   interop.obj
 0001:0003d210       _sqlite3Fts5PutVarint      1003e210 f   interop.obj
 0001:0003d280       _sqlite3Fts5UnicodeFold    1003e280 f   interop.obj
 0001:0003d350       _fts5Porter_Vowel          1003e350 f   interop.obj
 0001:0003d390       _fts5Porter_Ostar          1003e390 f   interop.obj
 0001:0003d400       _fts5PorterGobbleVC        1003e400 f   interop.obj
 0001:0003d490       _fts5UnicodeIsAlnum        1003e490 f   interop.obj
 0001:0003d4b0       _fts5Fts5Func              1003e4b0 f   interop.obj
 0001:0003d4e0       _fts5LocateTokenizer       1003e4e0 f   interop.obj
 0001:0003d520       _sqlite3Fts5IndexFromCsrid 1003e520 f   interop.obj
 0001:0003d550       _fts5ApiPhraseSize         1003e550 f   interop.obj
 0001:0003d580       _fts5ApiPhraseCount        1003e580 f   interop.obj
 0001:0003d5a0       _fts5ApiTokenize           1003e5a0 f   interop.obj
 0001:0003d5e0       _fts5CursorRowid           1003e5e0 f   interop.obj
 0001:0003d600       _fts5FindAuxiliary         1003e600 f   interop.obj
 0001:0003d640       _fts5SetUniqueFlag         1003e640 f   interop.obj
 0001:0003d650       _sqlite3Fts5IterTerm       1003e650 f   interop.obj
 0001:0003d670       _fts5DoclistIterInit       1003e670 f   interop.obj
 0001:0003d690       _fts5PoslistFilterCallback 1003e690 f   interop.obj
 0001:0003d850       _fts5PoslistOffsetsCallback 1003e850 f   interop.obj
 0001:0003d8f0       _fts5MultiIterDoCompare    1003e8f0 f   interop.obj
 0001:0003d9f0       _fts5DlidxIterFirst        1003e9f0 f   interop.obj
 0001:0003da20       _fts5HashAddPoslistSize    1003ea20 f   interop.obj
 0001:0003db00       _fts5ExprCheckPoslists     1003eb00 f   interop.obj
 0001:0003dc18       $LN46                      1003ec18     * CIL library *:* CIL module *
 0001:0003dc28       $LN44                      1003ec28     * CIL library *:* CIL module *
 0001:0003dc40       _sqlite3Fts5ExprNext       1003ec40 f   interop.obj
 0001:0003dcc0       _fts5ExprNodeTest_AND      1003ecc0 f   interop.obj
 0001:0003ddf0       _fts5NodeCompare           1003edf0 f   interop.obj
 0001:0003de70       _fts5LookaheadReaderNext   1003ee70 f   interop.obj
 0001:0003ded0       _fts5ConfigSetEnum         1003eed0 f   interop.obj
 0001:0003df50       _sqlite3Fts5Dequote        1003ef50 f   interop.obj
 0001:0003df70       _fts5ConfigSkipLiteral     1003ef70 f   interop.obj
 0001:0003e058       $LN95                      1003f058     * CIL library *:* CIL module *
 0001:0003e068       $LN84                      1003f068     * CIL library *:* CIL module *
 0001:0003e0c0       _fts5ConfigSkipBareword    1003f0c0 f   interop.obj
 0001:0003e0f0       _fts5ConfigSkipWhitespace  1003f0f0 f   interop.obj
 0001:0003e110       _sqlite3Fts5PoslistSafeAppend 1003f110 f   interop.obj
 0001:0003e1a0       _sqlite3Fts5PoslistReaderNext 1003f1a0 f   interop.obj
 0001:0003e1d0       _fts5CInstIterInit         1003f1d0 f   interop.obj
 0001:0003e220       _sqlite3Fts5ParserAlloc    1003f220 f   interop.obj
 0001:0003e640       __substr                   1003f640 f   interop.obj
 0001:0003e770       _sessionPrepare            1003f770 f   interop.obj
 0001:0003e790       _sessionDiffCount          1003f790 f   interop.obj
 0001:0003e7b0       _sessionPreupdateDepth     1003f7b0 f   interop.obj
 0001:0003e7d0       _sessionPreupdateCount     1003f7d0 f   interop.obj
 0001:0003e7f0       _sessionStat1New           1003f7f0 f   interop.obj
 0001:0003e860       _sessionStat1Old           1003f860 f   interop.obj
 0001:0003e8d0       _sessionVarintLen          1003f8d0 f   interop.obj
 0001:0003e910       _statSizeAndOffset         1003f910 f   interop.obj
 0001:0003e9b0       _cellGrowth                1003f9b0 f   interop.obj
 0001:0003ea20       _rtreeCallbackConstraint   1003fa20 f   interop.obj
 0001:0003ed0c       $LN71                      1003fd0c     * CIL library *:* CIL module *
 0001:0003ed28       $LN72                      1003fd28     * CIL library *:* CIL module *
 0001:0003ed50       _nodeGetCoord              1003fd50 f   interop.obj
 0001:0003ed80       _nodeGetRowid              1003fd80 f   interop.obj
 0001:0003edb0       _nodeDeleteCell            1003fdb0 f   interop.obj
 0001:0003ee20       _nodeOverwriteCell         1003fe20 f   interop.obj
 0001:0003ee80       _nodeHashDelete            1003fe80 f   interop.obj
 0001:0003eed0       _nodeHashInsert            1003fed0 f   interop.obj
 0001:0003ef00       _nodeHashLookup            1003ff00 f   interop.obj
 0001:0003ef40       _sqlite3FtsUnicodeFold     1003ff40 f   interop.obj
 0001:0003f010       _unicodeIsAlnum            10040010 f   interop.obj
 0001:0003f030       _fts3LcsIteratorAdvance    10040030 f   interop.obj
 0001:0003f090       _fts3ExprLHits             10040090 f   interop.obj
 0001:0003f170       _fts3SnippetShift          10040170 f   interop.obj
 0001:0003f2f0       _fts3ExprIterate           100402f0 f   interop.obj
 0001:0003f310       _fts3GetDeltaPosition      10040310 f   interop.obj
 0001:0003f350       _fts3IncrmergeHintPop      10040350 f   interop.obj
 0001:0003f3e0       _fts3StartNode             100403e0 f   interop.obj
 0001:0003f400       _fts3DecodeIntArray        10040400 f   interop.obj
 0001:0003f440       _fts3EncodeIntArray        10040440 f   interop.obj
 0001:0003f480       _fts3ColumnFilter          10040480 f   interop.obj
 0001:0003f560       _fts3TreeFinishNode        10040560 f   interop.obj
 0001:0003f5c0       _sqlite3Fts3NextToken      100405c0 f   interop.obj
 0001:0003f660       $LN55                      10040660     * CIL library *:* CIL module *
 0001:0003f670       $LN48                      10040670     * CIL library *:* CIL module *
 0001:0003f6e0       _star_oh                   100406e0 f   interop.obj
 0001:0003f720       _doubleConsonant           10040720 f   interop.obj
 0001:0003f740       _hasVowel                  10040740 f   interop.obj
 0001:0003f770       _m_gt_1                    10040770 f   interop.obj
 0001:0003f800       _m_eq_1                    10040800 f   interop.obj
 0001:0003f890       _m_gt_0                    10040890 f   interop.obj
 0001:0003f8e0       _ftsCompareFunction        100408e0 f   interop.obj
 0001:0003f900       _ftsHashFunction           10040900 f   interop.obj
 0001:0003f920       _insertBinaryOperator      10040920 f   interop.obj
 0001:0003f9a0       _fts3EvalUpdateCounts      100409a0 f   interop.obj
 0001:0003fa90       _fts3EvalDlPhraseNext      10040a90 f   interop.obj
 0001:0003fb40       _sqlite3Fts3DoclistNext    10040b40 f   interop.obj
 0001:0003fbf0       _fts3DoclistCountDocids    10040bf0 f   interop.obj
 0001:0003fc40       _sqlite3Fts3FirstFilter    10040c40 f   interop.obj
 0001:0003fd20       _fts3PutDeltaVarint3       10040d20 f   interop.obj
 0001:0003fd90       _fts3GetDeltaVarint3       10040d90 f   interop.obj
 0001:0003fdd0       _fts3PutColNumber          10040dd0 f   interop.obj
 0001:0003fe10       _fts3PutDeltaVarint        10040e10 f   interop.obj
 0001:0003fe50       _fts3SetUniqueFlag         10040e50 f   interop.obj
 0001:0003fe60       _fts3SetEstimatedRows      10040e60 f   interop.obj
 0001:0003fe70       _fts3GetReverseVarint      10040e70 f   interop.obj
 0001:0003feb0       _fts3GetDeltaVarint        10040eb0 f   interop.obj
 0001:00040060       _sqliteDefaultBusyCallback 10041060 f   interop.obj
 0001:000400d0       _connectionIsBusy          100410d0 f   interop.obj
 0001:00040110       _nocaseCollatingFunc       10041110 f   interop.obj
 0001:00040140       _binCollFunc               10041140 f   interop.obj
 0001:00040210       _sqlite3GetToken           10041210 f   interop.obj
 0001:000407cc       $LN246                     100417cc     * CIL library *:* CIL module *
 0001:00040840       _sqlite3KeywordCode        10041840 f   interop.obj
 0001:00040860       _whereLoopOutputAdjust     10041860 f   interop.obj
 0001:00040990       _whereLoopAdjustCost       10041990 f   interop.obj
 0001:00040a00       _translateColumnToCopy     10041a00 f   interop.obj
 0001:00040ab0       _estLog                    10041ab0 f   interop.obj
 0001:00040ad0       _sqlite3WhereExprUsage     10041ad0 f   interop.obj
 0001:00040c20       _isAuxiliaryVtabOperator   10041c20 f   interop.obj
 0001:00040d20       _whereLikeOptimizationStringFixup 10041d20 f   interop.obj
 0001:00040d60       _addToVTrans               10041d60 f   interop.obj
 0001:00040d80       _sqlite3TriggerList        10041d80 f   interop.obj
 0001:00040df0       _selectPopWith             10041df0 f   interop.obj
 0001:00040e30       _searchWith                10041e30 f   interop.obj
 0001:00040ea0       _substSelect               10041ea0 f   interop.obj
 0001:00040f40       _columnTypeImpl            10041f40 f   interop.obj
 0001:00041110       _columnIndex               10042110 f   interop.obj
 0001:00041170       _pragmaLocate              10042170 f   interop.obj
 0001:000411e0       _getTempStore              100421e0 f   interop.obj
 0001:00041230       _getLockingMode            10042230 f   interop.obj
 0001:00041340       _fkParentIsModified        10042340 f   interop.obj
 0001:000413f0       _patternCompare            100423f0 f   interop.obj
 0001:00041770       _functionSearch            10042770 f   interop.obj
 0001:000417a0       _collationMatch            100427a0 f   interop.obj
 0001:000417f0       _sqlite3IdListIndex        100427f0 f   interop.obj
 0001:00041830       _estimateIndexWidth        10042830 f   interop.obj
 0001:000418b0       _estimateTableWidth        100428b0 f   interop.obj
 0001:00041930       _identPut                  10042930 f   interop.obj
 0001:000419f0       _sqlite3AffinityType       100429f0 f   interop.obj
 0001:00041b20       _sqlite3FindDbName         10042b20 f   interop.obj
 0001:00041b80       _sampleIsBetter            10042b80 f   interop.obj
 0001:00041bd0       _sqlite3GetTempRange       10042bd0 f   interop.obj
 0001:00041c10       _sqlite3FunctionUsesThisSrc 10042c10 f   interop.obj
 0001:00041c70       _sqlite3ExprCachePop       10042c70 f   interop.obj
 0001:00041cb0       _sqlite3ExprCacheRemove    10042cb0 f   interop.obj
 0001:00041d00       _sqlite3IsRowid            10042d00 f   interop.obj
 0001:00041d40       _sqlite3ExprIdToTrueFalse  10042d40 f   interop.obj
 0001:00041d80       _dupedExprNodeSize         10042d80 f   interop.obj
 0001:00041de0       _heightOfExprList          10042de0 f   interop.obj
 0001:00041e10       _sqlite3VectorFieldSubexpr 10042e10 f   interop.obj
 0001:00041e50       _sqlite3ExprAffinity       10042e50 f   interop.obj
 0001:00041f00       _resolveAsName             10042f00 f   interop.obj
 0001:00041f50       _sqlite3MatchSpanName      10042f50 f   interop.obj
 0001:00041ff0       _nameInUsingClause         10042ff0 f   interop.obj
 0001:00042030       _sqlite3WalkSelectFrom     10043030 f   interop.obj
 0001:00042080       _sqlite3WalkSelectExpr     10043080 f   interop.obj
 0001:000420f0       _sqlite3JournalOpen        100430f0 f   interop.obj
 0001:00042160       _vdbePmaWriteBlob          10043160 f   interop.obj
 0001:00042230       _vdbeSorterExtendFile      10043230 f   interop.obj
 0001:000422b0       _vdbeSorterMapFile         100432b0 f   interop.obj
 0001:000422e0       _findNextHostParameter     100432e0 f   interop.obj
 0001:00042330       _sqlite3VdbeParameterIndex 10043330 f   interop.obj
 0001:00042370       _sqlite3StmtCurrentTime    10043370 f   interop.obj
 0001:000423f0       _invokeProfileCallback     100433f0 f   interop.obj
 0001:00042490       _sqlite3BlobCompare        10043490 f   interop.obj
 0001:000425a0       _serialGet                 100435a0 f   interop.obj
 0001:000426a0       _sqlite3VdbeUsesBtree      100436a0 f   interop.obj
 0001:000426e0       _sqlite3VdbeJumpHere       100436e0 f   interop.obj
 0001:00042710       _sqlite3VdbeExplainPop     10043710 f   interop.obj
 0001:00042720       _sqlite3VdbeMemSetPointer  10043720 f   interop.obj
 0001:00042760       _sqlite3VdbeIntegerAffinity 10043760 f   interop.obj
 0001:000427c0       _attachBackupObject        100437c0 f   interop.obj
 0001:000427e0       _backupTruncateFile        100437e0 f   interop.obj
 0001:00042820       _sqlite3BtreeGetJournalname 10043820 f   interop.obj
 0001:00042830       _sqlite3BtreeGetFilename   10043830 f   interop.obj
 0001:00042850       _cachedCellSize            10043850 f   interop.obj
 0001:00042870       _sqlite3BtreePayloadFetch  10043870 f   interop.obj
 0001:00042880       _getCellInfo               10043880 f   interop.obj
 0001:000428a0       _finalDbSize               100438a0 f   interop.obj
 0001:00042920       _removeFromSharingList     10043920 f   interop.obj
 0001:000429b0       _btreeInvokeBusyHandler    100439b0 f   interop.obj
 0001:000429d0       _sqlite3BtreeLastPage      100439d0 f   interop.obj
 0001:000429e0       _btreePageFromDbPage       100439e0 f   interop.obj
 0001:00042a20       _btreeParseCellPtrIndex    10043a20 f   interop.obj
 0001:00042ab0       _btreeParseCellPtr         10043ab0 f   interop.obj
 0001:00042bd0       _btreeParseCellPtrNoPayload 10043bd0 f   interop.obj
 0001:00042c10       _unlockBtreeMutex          10043c10 f   interop.obj
 0001:00042c30       _lockBtreeMutex            10043c30 f   interop.obj
 0001:00042c60       _walWriteToLog             10043c60 f   interop.obj
 0001:00042d30       _sqlite3WalReadFrame       10043d30 f   interop.obj
 0001:00042d80       _walMergesort              10043d80 f   interop.obj
 0001:00042ea0       _walFramePgno              10043ea0 f   interop.obj
 0001:00042ed0       _walUnlockExclusive        10043ed0 f   interop.obj
 0001:00042ef0       _walLockExclusive          10043ef0 f   interop.obj
 0001:00042f20       _walUnlockShared           10043f20 f   interop.obj
 0001:00042f40       _walLockShared             10043f40 f   interop.obj
 0001:00042f60       _walDecodeFrame            10043f60 f   interop.obj
 0001:00043000       _walEncodeFrame            10044000 f   interop.obj
 0001:00043080       _walShmBarrier             10044080 f   interop.obj
 0001:000430a0       _sqlite3PagerPageRefcount  100440a0 f   interop.obj
 0001:000430b0       _sqlite3PagerMemUsed       100440b0 f   interop.obj
 0001:00043100       _sqlite3PagerSync          10044100 f   interop.obj
 0001:00043150       _openSubJournal            10044150 f   interop.obj
 0001:00043190       _sqlite3PagerRef           10044190 f   interop.obj
 0001:000431a0       _databaseIsUnmoved         100441a0 f   interop.obj
 0001:000431f0       _pagerReleaseMapPage       100441f0 f   interop.obj
 0001:00043240       _pagerSyncHotJournal       10044240 f   interop.obj
 0001:00043280       _sqlite3PagerReadFileheader 10044280 f   interop.obj
 0001:000432d0       _sqlite3PagerSetBusyHandler 100442d0 f   interop.obj
 0001:00043300       _pagerOpentemp             10044300 f   interop.obj
 0001:00043330       _sqlite3PagerShrink        10044330 f   interop.obj
 0001:00043350       _pagerFixMaplimit          10044350 f   interop.obj
 0001:000433c0       _pagerPagecount            100443c0 f   interop.obj
 0001:00043450       _pager_write_changecounter 10044450 f   interop.obj
 0001:00043480       _sqlite3SectorSize         10044480 f   interop.obj
 0001:000434b0       _pager_truncate            100444b0 f   interop.obj
 0001:000435c0       _sqlite3PagerAlignReserve  100445c0 f   interop.obj
 0001:00043600       _zeroJournalHdr            10044600 f   interop.obj
 0001:000436d0       _pagerLockDb               100446d0 f   interop.obj
 0001:00043720       _pagerUnlockDb             10044720 f   interop.obj
 0001:00043760       _write32bits               10044760 f   interop.obj
 0001:00043790       _read32bits                10044790 f   interop.obj
 0001:000437c0       _subjRequiresPage          100447c0 f   interop.obj
 0001:00043820       _rowSetListToTree          10044820 f   interop.obj
 0001:00043880       _rowSetEntrySort           10044880 f   interop.obj
 0001:00043950       _pcache1Rekey              10044950 f   interop.obj
 0001:000439d0       _pcache1Pagecount          100449d0 f   interop.obj
 0001:00043a10       _pcache1Init               10044a10 f   interop.obj
 0001:00043ab0       _pcache1UnderMemoryPressure 10044ab0 f   interop.obj
 0001:00043ae0       _pcache1MemSize            10044ae0 f   interop.obj
 0001:00043b10       _sqlite3PCachePercentDirty 10044b10 f   interop.obj
 0001:00043b90       _sqlite3PcacheSetSpillsize 10044b90 f   interop.obj
 0001:00043bf0       _sqlite3PcacheSetCachesize 10044bf0 f   interop.obj
 0001:00043c30       _pcacheSortDirtyList       10044c30 f   interop.obj
 0001:00043d00       _sqlite3PcacheMove         10044d00 f   interop.obj
 0001:00043d40       _sqlite3PcacheMakeClean    10044d40 f   interop.obj
 0001:00043d80       _sqlite3PcacheMakeDirty    10044d80 f   interop.obj
 0001:00043db0       _sqlite3PcacheDrop         10044db0 f   interop.obj
 0001:00043de0       _sqlite3PcacheRelease      10044de0 f   interop.obj
 0001:00043e20       _sqlite3PcacheFetchFinish  10044e20 f   interop.obj
 0001:00043e30       _sqlite3PcacheSetPageSize  10044e30 f   interop.obj
 0001:00043ec0       _sqlite3PcacheOpen         10044ec0 f   interop.obj
 0001:00043f20       _sqlite3BitvecTest         10044f20 f   interop.obj
 0001:00043f30       _winCurrentTime            10044f30 f   interop.obj
 0001:00043f80       _winSleep                  10044f80 f   interop.obj
 0001:00043fb0       _winRandomness             10044fb0 f   interop.obj
 0001:00044080       _winIsVerbatimPathname     10045080 f   interop.obj
 0001:000440a0       _winMakeEndInDirSep        100450a0 f   interop.obj
 0001:000440f0       _winShmSystemLock          100450f0 f   interop.obj
 0001:00044150       _winShmLeaveMutex          10045150 f   interop.obj
 0001:00044170       _winShmEnterMutex          10045170 f   interop.obj
 0001:00044190       _winCheckReservedLock      10045190 f   interop.obj
 0001:00044200       _winRetryIoerr             10045200 f   interop.obj
 0001:00044270       _findElementWithHash       10045270 f   interop.obj
 0001:000442e0       _sqlite3LogEstFromDouble   100452e0 f   interop.obj
 0001:00044350       _sqlite3SubInt64           10045350 f   interop.obj
 0001:00044430       _sqlite3GetVarint32        10045430 f   interop.obj
 0001:000444b0       _sqlite3PutVarint          100454b0 f   interop.obj
 0001:00044520       _sqlite3Atoi               10045520 f   interop.obj
 0001:00044550       _sqlite3Atoi64             10045550 f   interop.obj
 0001:000447b0       _sqlite3AtoF               100457b0 f   interop.obj
 0001:00044c00       _sqlite3TokenInit          10045c00 f   interop.obj
 0001:00044c30       _sqlite3SystemError        10045c30 f   interop.obj
 0001:00044f30       _sqlite3DbMallocSize       10045f30 f   interop.obj
 0001:00044f60       _sqlite3NoopMutex          10045f60 f   interop.obj
 0001:00044fc0       _sqlite3OsCloseFree        10045fc0 f   interop.obj
 0001:00044ff0       _osLocaltime               10045ff0 f   interop.obj
 0001:00045010       _computeYMD                10046010 f   interop.obj
 0001:00045150       _setDateTimeToCurrent      10046150 f   interop.obj
 0001:00045180       _computeJD                 10046180 f   interop.obj
 0001:000452e0       _parseTimezone             100462e0 f   interop.obj
 0001:000453c0       _sqlite3LookasideUsed      100463c0 f   interop.obj
 0001:00045410       _hash_finish               10046410 f   interop.obj
 0001:00045520       _hash_step_vformat         10046520 f   interop.obj
 0001:000455b0       _jsonEachDisconnect        100465b0 f   interop.obj
 0001:000455d0       _jsonParseReset            100465d0 f   interop.obj
 0001:00045610       _jsonReset                 10046610 f   interop.obj
 0001:00045650       _fts5VocabDestroyMethod    10046650 f   interop.obj
 0001:00045670       _fts5VocabDisconnectMethod 10046670 f   interop.obj
 0001:00045690       _fts5Porter_MEq1           10046690 f   interop.obj
 0001:000456d0       _fts5Porter_MGt1           100466d0 f   interop.obj
 0001:00045710       _fts5Porter_MGt0           10046710 f   interop.obj
 0001:00045730       _fts5PorterDelete          10046730 f   interop.obj
 0001:00045760       _fts5UnicodeDelete         10046760 f   interop.obj
 0001:00045790       _fts5AsciiDelete           10046790 f   interop.obj
 0001:000457a0       _fts5ModuleDestroy         100467a0 f   interop.obj
 0001:00045810       _fts5FindTokenizer         10046810 f   interop.obj
 0001:00045860       _fts5ApiRowid              10046860 f   interop.obj
 0001:00045890       _fts5BestIndexMethod       10046890 f   interop.obj
 0001:00045ae0       _fts5MultiIterAdvanced     10046ae0 f   interop.obj
 0001:00045b50       _fts5StructureRelease      10046b50 f   interop.obj
 0001:00045b90       _fts5DataRelease           10046b90 f   interop.obj
 0001:00045ba0       _sqlite3Fts5HashScanEntry  10046ba0 f   interop.obj
 0001:00045c10       _sqlite3Fts5HashQuery      10046c10 f   interop.obj
 0001:00045d20       _sqlite3Fts5HashClear      10046d20 f   interop.obj
 0001:00045d80       _sqlite3Fts5HashFree       10046d80 f   interop.obj
 0001:00045da0       _sqlite3Fts5ExprCheckPoslists 10046da0 f   interop.obj
 0001:00045dc0       _fts5ExprAddChildren       10046dc0 f   interop.obj
 0001:00045e10       _fts5ExprNodeTest_NOT      10046e10 f   interop.obj
 0001:00045ed0       _fts5ExprNodeNext_AND      10046ed0 f   interop.obj
 0001:00045f20       _fts5ExprNodeTest_OR       10046f20 f   interop.obj
 0001:00045fa0       _fts5LookaheadReaderInit   10046fa0 f   interop.obj
 0001:00045fd0       _fts5ParseFree             10046fd0 f   interop.obj
 0001:00045fe0       _fts5ConfigSkipArgs        10046fe0 f   interop.obj
 0001:00046030       _sqlite3Fts5ConfigFree     10047030 f   interop.obj
 0001:000460d0       _sqlite3Fts5TermsetFree    100470d0 f   interop.obj
 0001:00046110       _sqlite3Fts5PoslistReaderInit 10047110 f   interop.obj
 0001:00046140       _sqlite3Fts5BufferFree     10047140 f   interop.obj
 0001:00046160       _vtshimAuxDestructor       10047160 f   interop.obj
 0001:000461a0       _vtshimDestroy             100471a0 f   interop.obj
 0001:000461f0       _vtshimDisconnect          100471f0 f   interop.obj
 0001:00046290       _sqlite3CodecFree          10047290 f   interop.obj
 0001:00046300       _stmtClose                 10047300 f   interop.obj
 0001:00046320       _stmtDisconnect            10047320 f   interop.obj
 0001:00046340       _sessionDeleteTable        10047340 f   interop.obj
 0001:000463c0       _sessionVarintGet          100473c0 f   interop.obj
 0001:000463e0       _sessionVarintPut          100473e0 f   interop.obj
 0001:00046410       _statDisconnect            10047410 f   interop.obj
 0001:00046430       _rtreeFreeCallback         10047430 f   interop.obj
 0001:00046460       _nodeRowidIndex            10047460 f   interop.obj
 0001:000464d0       _freeCursorConstraints     100474d0 f   interop.obj
 0001:00046540       _nodeGetCell               10047540 f   interop.obj
 0001:000465c0       _nodeInsertCell            100475c0 f   interop.obj
 0001:00046630       _unicodeClose              10047630 f   interop.obj
 0001:00046650       _unicodeDestroy            10047650 f   interop.obj
 0001:00046680       _fts3ExprLHitGather        10047680 f   interop.obj
 0001:000466d0       _fts3SnippetDetails        100476d0 f   interop.obj
 0001:00046870       _fts3SnippetAdvance        10047870 f   interop.obj
 0001:000468d0       _fts3ExprPhraseCount       100478d0 f   interop.obj
 0001:00046900       _fts3ExprLoadDoclists      10047900 f   interop.obj
 0001:00046960       _sqlite3Fts3MIBufferFree   10047960 f   interop.obj
 0001:00046980       _fts3MIBufferFree          10047980 f   interop.obj
 0001:000469c0       _nodeReaderRelease         100479c0 f   interop.obj
 0001:000469d0       _fts3NodeFree              100479d0 f   interop.obj
 0001:00046a10       _fts3PendingListDelete     10047a10 f   interop.obj
 0001:00046a20       _fts3tokResetCursor        10047a20 f   interop.obj
 0001:00046a80       _fts3tokDisconnectMethod   10047a80 f   interop.obj
 0001:00046aa0       _simpleClose               10047aa0 f   interop.obj
 0001:00046ac0       _simpleDestroy             10047ac0 f   interop.obj
 0001:00046ae0       _porter_stemmer            10047ae0 f   interop.obj
 0001:00047390       $LN619                     10048390     * CIL library *:* CIL module *
 0001:000473b4       $LN599                     100483b4     * CIL library *:* CIL module *
 0001:000473c8       $LN620                     100483c8     * CIL library *:* CIL module *
 0001:000473dc       $LN600                     100483dc     * CIL library *:* CIL module *
 0001:000473ec       $LN621                     100483ec     * CIL library *:* CIL module *
 0001:0004741c       $LN601                     1004841c     * CIL library *:* CIL module *
 0001:00047440       _porterClose               10048440 f   interop.obj
 0001:00047460       _porterDestroy             10048460 f   interop.obj
 0001:00047480       _fts3FindElementByHash     10048480 f   interop.obj
 0001:000474f0       _fts3HashFree              100484f0 f   interop.obj
 0001:00047500       _fts3EvalInvalidatePoslist 10048500 f   interop.obj
 0001:00047530       _sqlite3Fts3DoclistPrev    10048530 f   interop.obj
 0001:00047690       _fts3PoslistPhraseMerge    10048690 f   interop.obj
 0001:00047a10       _fts3ReadNextPos           10048a10 f   interop.obj
 0001:00047a60       _fts3BestIndexMethod       10048a60 f   interop.obj
 0001:00047c40       $LN50                      10048c40     * CIL library *:* CIL module *
 0001:00047c4c       $LN44                      10048c4c     * CIL library *:* CIL module *
 0001:00047c70       _sqlite3DbNameToBtree      10048c70 f   interop.obj
 0001:00047cd0       _whereSortingCost          10048cd0 f   interop.obj
 0001:00047d40       _checkColumnOverlap        10048d40 f   interop.obj
 0001:00047e20       _tableAndColumnIndex       10048e20 f   interop.obj
 0001:00047ec0       _pragmaVtabDisconnect      10048ec0 f   interop.obj
 0001:00047ee0       _getAutoVacuum             10048ee0 f   interop.obj
 0001:00047f60       _getSafetyLevel            10048f60 f   interop.obj
 0001:00048050       _sqlite3ResolvePartIdxLabel 10049050 f   interop.obj
 0001:00048080       _sqlite3InsertBuiltinFuncs 10049080 f   interop.obj
 0001:00048140       _decodeIntArray            10049140 f   interop.obj
 0001:00048280       _sqlite3ReleaseTempRange   10049280 f   interop.obj
 0001:000482c0       _sqlite3ExprCacheAffinityChange 100492c0 f   interop.obj
 0001:000482d0       _exprNodeIsConstant        100492d0 f   interop.obj
 0001:00048360       $LN42                      10049360     * CIL library *:* CIL module *
 0001:00048378       $LN38                      10049378     * CIL library *:* CIL module *
 0001:000483e0       _dupedExprSize             100493e0 f   interop.obj
 0001:00048430       _heightOfSelect            10049430 f   interop.obj
 0001:000484a0       _sqlite3CompareAffinity    100494a0 f   interop.obj
 0001:000484d0       _exprProbability           100494d0 f   interop.obj
 0001:00048540       _sqlite3WalkSelect         10049540 f   interop.obj
 0001:000485a0       _walkExpr                  100495a0 f   interop.obj
 0001:00048630       _sqlite3MemJournalOpen     10049630 f   interop.obj
 0001:00048650       _memjrnlFreeChunks         10049650 f   interop.obj
 0001:00048680       _vdbePmaWriteVarint        10049680 f   interop.obj
 0001:000486c0       _vdbePmaWriterFinish       100496c0 f   interop.obj
 0001:00048750       _computeNumericType        10049750 f   interop.obj
 0001:000487a0       _applyNumericAffinity      100497a0 f   interop.obj
 0001:00048890       _sqlite3VdbeSerialGet      10049890 f   interop.obj
 0001:00048a40       $LN17                      10049a40     * CIL library *:* CIL module *
 0001:00048a70       _sqlite3VdbeMemNumerify    10049a70 f   interop.obj
 0001:00048b30       _memRealValue              10049b30 f   interop.obj
 0001:00048b70       _memIntValue               10049b70 f   interop.obj
 0001:00048ba0       _sqlite3BtreePayloadSize   10049ba0 f   interop.obj
 0001:00048bb0       _sqlite3BtreeIntegerKey    10049bb0 f   interop.obj
 0001:00048bc0       _btreeGetPage              10049bc0 f   interop.obj
 0001:00048c20       _sqlite3BtreeClearCursor   10049c20 f   interop.obj
 0001:00048c40       _btreeGetHasContent        10049c40 f   interop.obj
 0001:00048c60       _clearAllSharedCacheTableLocks 10049c60 f   interop.obj
 0001:00048cd0       _sqlite3BtreeLeave         10049cd0 f   interop.obj
 0001:00048cf0       _btreeLockCarefully        10049cf0 f   interop.obj
 0001:00048d60       _sqlite3BtreeEnter         10049d60 f   interop.obj
 0001:00048d80       _sqlite3WalExclusiveMode   10049d80 f   interop.obj
 0001:00048df0       _walWriteOneFrame          10049df0 f   interop.obj
 0001:00048e90       _sqlite3WalEndWriteTransaction 10049e90 f   interop.obj
 0001:00048ed0       _sqlite3WalBeginWriteTransaction 10049ed0 f   interop.obj
 0001:00048f60       _sqlite3WalEndReadTransaction 10049f60 f   interop.obj
 0001:00048fa0       _walIndexTryHdr            10049fa0 f   interop.obj
 0001:00049100       _walBusyLock               1004a100 f   interop.obj
 0001:00049150       _walIteratorFree           1004a150 f   interop.obj
 0001:00049160       _walIndexClose             1004a160 f   interop.obj
 0001:000491c0       _walIndexWriteHdr          1004a1c0 f   interop.obj
 0001:00049240       _pagerExclusiveLock        1004a240 f   interop.obj
 0001:00049270       _sqlite3PagerRekey         1004a270 f   interop.obj
 0001:00049290       _sqlite3PagerUnrefNotNull  1004a290 f   interop.obj
 0001:000492b0       _sqlite3PagerLookup        1004a2b0 f   interop.obj
 0001:00049300       _hasHotJournal             1004a300 f   interop.obj
 0001:000494a0       _pagerFreeMapHdrs          1004a4a0 f   interop.obj
 0001:000494d0       _pager_wait_on_lock        1004a4d0 f   interop.obj
 0001:00049510       _sqlite3PagerSetMmapLimit  1004a510 f   interop.obj
 0001:00049530       _sqlite3PagerSetSpillsize  1004a530 f   interop.obj
 0001:00049540       _sqlite3PagerSetCachesize  1004a540 f   interop.obj
 0001:00049550       _setSectorSize             1004a550 f   interop.obj
 0001:00049590       _pagerFlushOnCommit        1004a590 f   interop.obj
 0001:000495d0       _writeMasterJournal        1004a5d0 f   interop.obj
 0001:00049790       _writeJournalHdr           1004a790 f   interop.obj
 0001:000498c0       _readMasterJournal         1004a8c0 f   interop.obj
 0001:00049a80       _pcache1Free               1004aa80 f   interop.obj
 0001:00049b40       _sqlite3PcacheDirtyList    1004ab40 f   interop.obj
 0001:00049b60       _sqlite3PcacheTruncate     1004ab60 f   interop.obj
 0001:00049bd0       _sqlite3PcacheCleanAll     1004abd0 f   interop.obj
 0001:00049bf0       _sqlite3BitvecDestroy      1004abf0 f   interop.obj
 0001:00049c30       _winIsDir                  1004ac30 f   interop.obj
 0001:00049cc0       _winShmBarrier             1004acc0 f   interop.obj
 0001:00049cf0       _winShmLock                1004acf0 f   interop.obj
 0001:00049e70       _winGetReadLock            1004ae70 f   interop.obj
 0001:00049eb0       _sqlite3HashFind           1004aeb0 f   interop.obj
 0001:00049ec0       _sqlite3HashClear          1004aec0 f   interop.obj
 0001:00049f10       _sqlite3DecOrHexToI64      1004af10 f   interop.obj
 0001:0004a020       _sqlite3ThreadJoin         1004b020 f   interop.obj
 0001:0004a0b0       _measureAllocationSize     1004b0b0 f   interop.obj
 0001:0004a0f0       _computeHMS                1004b0f0 f   interop.obj
 0001:0004a1a0       _parseHhMmSs               1004b1a0 f   interop.obj
 0001:0004a2d0       _jsonEachCursorReset       1004b2d0 f   interop.obj
 0001:0004a320       _jsonParseFree             1004b320 f   interop.obj
 0001:0004a340       _fts5PorterStep1B          1004b340 f   interop.obj
 0001:0004a410       _fts5PorterStep3           1004b410 f   interop.obj
 0001:0004a5d0       $LN185                     1004b5d0     * CIL library *:* CIL module *
 0001:0004a5ec       $LN180                     1004b5ec     * CIL library *:* CIL module *
 0001:0004a610       _fts5PorterStep2           1004b610 f   interop.obj
 0001:0004ac48       $LN536                     1004bc48     * CIL library *:* CIL module *
 0001:0004ac6c       $LN530                     1004bc6c     * CIL library *:* CIL module *
 0001:0004ac80       _fts5Porter_MGt1_and_S_or_T 1004bc80 f   interop.obj
 0001:0004aca0       _fts5IndexDiscardData      1004bca0 f   interop.obj
 0001:0004acc0       _fts5MultiIterNext2        1004bcc0 f   interop.obj
 0001:0004ad60       _fts5DlidxIterFree         1004bd60 f   interop.obj
 0001:0004ada0       _fts5StructureInvalidate   1004bda0 f   interop.obj
 0001:0004adc0       _fts5ExprNodeNext_NOT      1004bdc0 f   interop.obj
 0001:0004ae10       _fts5ExprNodeNext_OR       1004be10 f   interop.obj
 0001:0004af00       _sessionSkipRecord         1004bf00 f   interop.obj
 0001:0004af70       _sessionSerialLen          1004bf70 f   interop.obj
 0001:0004afe0       _nodeParentIndex           1004bfe0 f   interop.obj
 0001:0004b010       _fts3SnippetNextCandidate  1004c010 f   interop.obj
 0001:0004b1b0       _sqlite3Fts3FreeDeferredTokens 1004c1b0 f   interop.obj
 0001:0004b1f0       _sqlite3Fts3FreeDeferredDoclists 1004c1f0 f   interop.obj
 0001:0004b220       _fts3SegWriterFree         1004c220 f   interop.obj
 0001:0004b250       _fts3tokNextMethod         1004c250 f   interop.obj
 0001:0004b2a0       _fts3tokCloseMethod        1004c2a0 f   interop.obj
 0001:0004b2c0       _sqlite3Fts3HashFindElem   1004c2c0 f   interop.obj
 0001:0004b310       _sqlite3Fts3HashClear      1004c310 f   interop.obj
 0001:0004b380       _hashDestroy               1004c380 f   interop.obj
 0001:0004b3a0       _fts3PoslistMerge          1004c3a0 f   interop.obj
 0001:0004b5e0       _updateRangeAffinityStr    1004c5e0 f   interop.obj
 0001:0004b640       _sqlite3TriggerColmask     1004c640 f   interop.obj
 0001:0004b6b0       _sqlite3TriggersExist      1004c6b0 f   interop.obj
 0001:0004b710       _tableOfTrigger            1004c710 f   interop.obj
 0001:0004b730       _sqlite3GetBoolean         1004c730 f   interop.obj
 0001:0004b750       _sqlite3FkReferences       1004c750 f   interop.obj
 0001:0004b770       _sqlite3FindIndex          1004c770 f   interop.obj
 0001:0004b7e0       _sqlite3FindTable          1004c7e0 f   interop.obj
 0001:0004b8a0       _findIndexOrPrimaryKey     1004c8a0 f   interop.obj
 0001:0004b900       _sqlite3SelectExprHeight   1004c900 f   interop.obj
 0001:0004b920       _exprSetHeight             1004c920 f   interop.obj
 0001:0004b9b0       _binaryCompareP5           1004c9b0 f   interop.obj
 0001:0004b9d0       _comparisonAffinity        1004c9d0 f   interop.obj
 0001:0004ba10       _sqlite3WalkExpr           1004ca10 f   interop.obj
 0001:0004ba20       _memjrnlClose              1004ca20 f   interop.obj
 0001:0004ba50       _memjrnlTruncate           1004ca50 f   interop.obj
 0001:0004bac0       _memjrnlCreateFile         1004cac0 f   interop.obj
 0001:0004bc50       _vdbeSorterJoinThread      1004cc50 f   interop.obj
 0001:0004bc90       _numericType               1004cc90 f   interop.obj
 0001:0004bcf0       _doWalCallbacks            1004ccf0 f   interop.obj
 0001:0004bdb0       _sqlite3VdbeRecordUnpack   1004cdb0 f   interop.obj
 0001:0004bec0       _vdbeLeave                 1004cec0 f   interop.obj
 0001:0004bf30       _sqlite3VdbeEnter          1004cf30 f   interop.obj
 0001:0004bf90       _sqlite3VdbeRealValue      1004cf90 f   interop.obj
 0001:0004bfc0       _sqlite3VdbeIntValue       1004cfc0 f   interop.obj
 0001:0004c000       _sqlite3BtreeSchemaLocked  1004d000 f   interop.obj
 0001:0004c040       _sqlite3BtreeGetMeta       1004d040 f   interop.obj
 0001:0004c0a0       _sqlite3BtreeGetAutoVacuum 1004d0a0 f   interop.obj
 0001:0004c0e0       _sqlite3BtreeSetAutoVacuum 1004d0e0 f   interop.obj
 0001:0004c150       _sqlite3BtreeSecureDelete  1004d150 f   interop.obj
 0001:0004c1b0       _sqlite3BtreeMaxPageCount  1004d1b0 f   interop.obj
 0001:0004c1f0       _sqlite3BtreeGetOptimalReserve 1004d1f0 f   interop.obj
 0001:0004c230       _sqlite3BtreeSetPagerFlags 1004d230 f   interop.obj
 0001:0004c270       _sqlite3BtreeSetMmapLimit  1004d270 f   interop.obj
 0001:0004c2c0       _sqlite3BtreeSetSpillSize  1004d2c0 f   interop.obj
 0001:0004c300       _sqlite3BtreeSetCacheSize  1004d300 f   interop.obj
 0001:0004c340       _releasePageNotNull        1004d340 f   interop.obj
 0001:0004c360       _btreePageLookup           1004d360 f   interop.obj
 0001:0004c3a0       _btreeReleaseAllCursorPages 1004d3a0 f   interop.obj
 0001:0004c400       _btreeClearHasContent      1004d400 f   interop.obj
 0001:0004c420       _sqlite3BtreeLeaveCursor   1004d420 f   interop.obj
 0001:0004c440       _sqlite3BtreeEnterCursor   1004d440 f   interop.obj
 0001:0004c450       _btreeLeaveAll             1004d450 f   interop.obj
 0001:0004c490       _btreeEnterAll             1004d490 f   interop.obj
 0001:0004c4d0       _walRestartHdr             1004d4d0 f   interop.obj
 0001:0004c530       _sqlite3PagerExclusiveLock 1004d530 f   interop.obj
 0001:0004c570       _sqlite3PagerBegin         1004d570 f   interop.obj
 0001:0004c660       _sqlite3PagerUnref         1004d660 f   interop.obj
 0001:0004c680       _syncJournal               1004d680 f   interop.obj
 0001:0004c850       _releaseAllSavepoints      1004d850 f   interop.obj
 0001:0004c8d0       _sqlite3PageFree           1004d8d0 f   interop.obj
 0001:0004c8e0       _pcache1FreePage           1004d8e0 f   interop.obj
 0001:0004c910       _sqlite3PcacheClear        1004d910 f   interop.obj
 0001:0004c920       _removeElementGivenHash    1004d920 f   interop.obj
 0001:0004c980       _sqlite3DbFreeNN           1004d980 f   interop.obj
 0001:0004c9c0       _computeYMD_HMS            1004d9c0 f   interop.obj
 0001:0004c9d0       _parseYyyyMmDd             1004d9d0 f   interop.obj
 0001:0004ca90       _jsonEachClose             1004da90 f   interop.obj
 0001:0004cab0       _fts5PorterStep4           1004dab0 f   interop.obj
 0001:0004cd04       $LN714                     1004dd04     * CIL library *:* CIL module *
 0001:0004cd38       $LN704                     1004dd38     * CIL library *:* CIL module *
 0001:0004cd60       _fts5SegIterClear          1004dd60 f   interop.obj
 0001:0004cdb0       _sessionMergeValue         1004ddb0 f   interop.obj
 0001:0004ce10       _sessionMergeRecord        1004de10 f   interop.obj
 0001:0004ce90       _sessionChangeEqual        1004de90 f   interop.obj
 0001:0004cf80       _sessionChangeHash         1004df80 f   interop.obj
 0001:0004d080       _statClearPage             1004e080 f   interop.obj
 0001:0004d0f0       _fixBoundingBox            1004e0f0 f   interop.obj
 0001:0004d1e0       _AdjustTree                1004e1e0 f   interop.obj
 0001:0004d2a0       _sqlite3Fts3PendingTermsClear 1004e2a0 f   interop.obj
 0001:0004d320       _sqlite3Fts3HashFind       1004e320 f   interop.obj
 0001:0004d340       _fts3RemoveElementByHash   1004e340 f   interop.obj
 0001:0004d3c0       _fts3RollbackToMethod      1004e3c0 f   interop.obj
 0001:0004d3d0       _fts3RollbackMethod        1004e3d0 f   interop.obj
 0001:0004d3e0       _fts3PoslistNearMerge      1004e3e0 f   interop.obj
 0001:0004d4d0       _exprIsDeterministic       1004e4d0 f   interop.obj
 0001:0004d520       _sqlite3KeyInfoUnref       1004e520 f   interop.obj
 0001:0004d540       _setAllPagerFlags          1004e540 f   interop.obj
 0001:0004d580       _checkConstraintUnchanged  1004e580 f   interop.obj
 0001:0004d5d0       _sqlite3FkRequired         1004e5d0 f   interop.obj
 0001:0004d710       _sqlite3ExprCoveredByIndex 1004e710 f   interop.obj
 0001:0004d760       _sqlite3ExprImpliesNonNullRow 1004e760 f   interop.obj
 0001:0004d7a0       _exprIsConst               1004e7a0 f   interop.obj
 0001:0004d7e0       _sqlite3IndexAffinityOk    1004e7e0 f   interop.obj
 0001:0004d810       _incrAggFunctionDepth      1004e810 f   interop.obj
 0001:0004d850       _vdbeIncrFree              1004e850 f   interop.obj
 0001:0004d8d0       _vdbeSorterJoinAll         1004e8d0 f   interop.obj
 0001:0004d910       _vdbePmaReaderClear        1004e910 f   interop.obj
 0001:0004d9b0       _sqlite3VdbeLeave          1004e9b0 f   interop.obj
 0001:0004d9c0       _freeEphemeralFunction     1004e9c0 f   interop.obj
 0001:0004d9d0       _sqlite3VdbeMemRealify     1004e9d0 f   interop.obj
 0001:0004da00       _sqlite3VdbeMemIntegerify  1004ea00 f   interop.obj
 0001:0004da30       _sqlite3VdbeBooleanValue   1004ea30 f   interop.obj
 0001:0004da70       _sqlite3VdbeMemFinalize    1004ea70 f   interop.obj
 0001:0004db00       _moveToParent              1004eb00 f   interop.obj
 0001:0004db50       _freeTempSpace             1004eb50 f   interop.obj
 0001:0004db70       _releasePage               1004eb70 f   interop.obj
 0001:0004db90       _sqlite3BtreeLeaveAll      1004eb90 f   interop.obj
 0001:0004dba0       _sqlite3BtreeEnterAll      1004eba0 f   interop.obj
 0001:0004dbb0       _pager_end_transaction     1004ebb0 f   interop.obj
 0001:0004ddf0       _pager_reset               1004edf0 f   interop.obj
 0001:0004de20       _pcache1TruncateUnsafe     1004ee20 f   interop.obj
 0001:0004dec0       _pcache1RemoveFromHash     1004eec0 f   interop.obj
 0001:0004df00       _getDoubleArg              1004ef00 f   interop.obj
 0001:0004df30       _getIntArg                 1004ef30 f   interop.obj
 0001:0004df60       _sqlite3DbFree             1004ef60 f   interop.obj
 0001:0004df70       _fts5PorterCb              1004ef70 f   interop.obj
 0001:0004e100       _fts5GetRowidLimit         1004f100 f   interop.obj
 0001:0004e130       _fts5MultiIterFree         1004f130 f   interop.obj
 0001:0004e2d0       _sessionMergeUpdate        1004f2d0 f   interop.obj
 0001:0004e4e0       _rtreeValueUp              1004f4e0 f   interop.obj
 0001:0004e530       _rtreeValueDown            1004f530 f   interop.obj
 0001:0004e580       _fts3EvalNearTrim          1004f580 f   interop.obj
 0001:0004e600       _fts3DocidRange            1004f600 f   interop.obj
 0001:0004e630       _functionDestroy           1004f630 f   interop.obj
 0001:0004e660       _sqlite3CloseSavepoints    1004f660 f   interop.obj
 0001:0004e6b0       _whereLoopClearUnion       1004f6b0 f   interop.obj
 0001:0004e720       _termCanDriveIndex         1004f720 f   interop.obj
 0001:0004e7b0       _whereAndInfoDelete        1004f7b0 f   interop.obj
 0001:0004e7d0       _whereOrInfoDelete         1004f7d0 f   interop.obj
 0001:0004e7f0       _sqlite3VtabClear          1004f7f0 f   interop.obj
 0001:0004e850       _sqlite3VtabUnlock         1004f850 f   interop.obj
 0001:0004e880       _transferParseError        1004f880 f   interop.obj
 0001:0004e8b0       _sqlite3CloseExtensions    1004f8b0 f   interop.obj
 0001:0004e900       _sqlite3IdListDelete       1004f900 f   interop.obj
 0001:0004e950       _sqlite3DeleteColumnNames  1004f950 f   interop.obj
 0001:0004e9d0       _sqlite3CollapseDatabaseArray 1004f9d0 f   interop.obj
 0001:0004ea80       _sqlite3DeleteIndexSamples 1004fa80 f   interop.obj
 0001:0004eaf0       _sampleSetRowidInt64       1004faf0 f   interop.obj
 0001:0004eb20       _sampleClear               1004fb20 f   interop.obj
 0001:0004eb40       _sqlite3ExprIsConstantOrFunction 1004fb40 f   interop.obj
 0001:0004eb80       _sqlite3ExprIsTableConstant 1004fb80 f   interop.obj
 0001:0004ebc0       _sqlite3ExprIsConstantNotJoin 1004fbc0 f   interop.obj
 0001:0004ec00       _sqlite3ExprIsConstant     1004fc00 f   interop.obj
 0001:0004ec40       _exprListDeleteNN          1004fc40 f   interop.obj
 0001:0004eca0       _vdbeMergeEngineFree       1004fca0 f   interop.obj
 0001:0004ecf0       _vdbeSorterRecordFree      1004fcf0 f   interop.obj
 0001:0004ed20       _sqlite3VdbeDeleteAuxData  1004fd20 f   interop.obj
 0001:0004ed90       _freeP4FuncCtx             1004fd90 f   interop.obj
 0001:0004edb0       _freeP4Mem                 1004fdb0 f   interop.obj
 0001:0004ede0       _sqlite3PagerClearCache    1004fde0 f   interop.obj
 0001:0004edf0       _pager_unlock              1004fdf0 f   interop.obj
 0001:0004ef00       _sqlite3RowSetClear        1004ff00 f   interop.obj
 0001:0004ef50       _sqlite3PcacheReleaseMemory 1004ff50 f   interop.obj
 0001:0004efe0       _pcache1Truncate           1004ffe0 f   interop.obj
 0001:0004f030       _pcache1Unpin              10050030 f   interop.obj
 0001:0004f0a0       _pcache1EnforceMaxPage     100500a0 f   interop.obj
 0001:0004f150       _fts5PorterTokenize        10050150 f   interop.obj
 0001:0004f190       _whereLoopClear            10050190 f   interop.obj
 0001:0004f1d0       _callFinaliser             100501d0 f   interop.obj
 0001:0004f260       _sqlite3VtabCallDestroy    10050260 f   interop.obj
 0001:0004f2e0       _sqlite3VtabUnlockList     100502e0 f   interop.obj
 0001:0004f320       _sqlite3VtabDisconnect     10050320 f   interop.obj
 0001:0004f350       _sqliteViewResetAll        10050350 f   interop.obj
 0001:0004f3c0       _stat4Destructor           100503c0 f   interop.obj
 0001:0004f470       _sqlite3InRhsIsConstant    10050470 f   interop.obj
 0001:0004f490       _sqlite3ExprListDelete     10050490 f   interop.obj
 0001:0004f4a0       _vdbeSortSubtaskCleanup    100504a0 f   interop.obj
 0001:0004f540       _vdbeMemClearExternAndSetNull 10050540 f   interop.obj
 0001:0004f5b0       _sqlite3RowSetNext         100505b0 f   interop.obj
 0001:0004f610       _pcache1Destroy            10050610 f   interop.obj
 0001:0004f690       _pcache1Shrink             10050690 f   interop.obj
 0001:0004f6e0       _pcache1Cachesize          100506e0 f   interop.obj
 0001:0004f750       _sqlite3MallocAlarm        10050750 f   interop.obj
 0001:0004f7a0       _disconnectAllVtab         100507a0 f   interop.obj
 0001:0004f870       _whereLoopDelete           10050870 f   interop.obj
 0001:0004f890       _sqlite3VtabCommit         10050890 f   interop.obj
 0001:0004f8a0       _sqlite3VtabRollback       100508a0 f   interop.obj
 0001:0004f8b0       _sqlite3ParserReset        100508b0 f   interop.obj
 0001:0004f8f0       _fkTriggerDelete           100508f0 f   interop.obj
 0001:0004f950       _sqlite3WithDelete         10050950 f   interop.obj
 0001:0004f9c0       _sqlite3SrcListFuncArgs    100509c0 f   interop.obj
 0001:0004f9f0       _freeIndex                 100509f0 f   interop.obj
 0001:0004fa60       _sqlite3VdbeSorterReset    10050a60 f   interop.obj
 0001:0004fb30       _vdbeClrCopy               10050b30 f   interop.obj
 0001:0004fb60       _sqlite3VdbeMemSetNull     10050b60 f   interop.obj
 0001:0004fb80       _vdbeMemClear              10050b80 f   interop.obj
 0001:0004fbc0       _mallocWithAlarm           10050bc0 f   interop.obj
 0001:0004fca0       _sqlite3VdbeSorterClose    10050ca0 f   interop.obj
 0001:0004fce0       _out2PrereleaseWithClear   10050ce0 f   interop.obj
 0001:0004fda0       _sqlite3VdbeMemShallowCopy 10050da0 f   interop.obj
 0001:0004fdf0       _sqlite3VdbeMemSetDouble   10050df0 f   interop.obj
 0001:0004fe50       _vdbeReleaseAndSetInt64    10050e50 f   interop.obj
 0001:0004fe90       _sqlite3ValueSetNull       10050e90 f   interop.obj
 0001:0004feb0       _sqlite3VdbeMemRelease     10050eb0 f   interop.obj
 0001:0004fed0       _sqlite3ErrorFinish        10050ed0 f   interop.obj
 0001:0004ff20       _sqlite3Malloc             10050f20 f   interop.obj
 0001:0004ff90       _jsonOom                   10050f90 f   interop.obj
 0001:0004ffb0       _setupLookaside            10050fb0 f   interop.obj
 0001:00050170       _vdbePmaWriterInit         10051170 f   interop.obj
 0001:00050240       _vdbePmaReaderSeek         10051240 f   interop.obj
 0001:00050400       _out2Prerelease            10051400 f   interop.obj
 0001:00050540       _vdbeFreeUnpacked          10051540 f   interop.obj
 0001:000505a0       _releaseMemArray           100515a0 f   interop.obj
 0001:00050640       _sqlite3ValueFree          10051640 f   interop.obj
 0001:00050670       _sqlite3Stat4ProbeFree     10051670 f   interop.obj
 0001:000506e0       _sqlite3VdbeMemMove        100516e0 f   interop.obj
 0001:00050730       _sqlite3VdbeMemSetInt64    10051730 f   interop.obj
 0001:00050770       _sqlite3VdbeMemSetZeroBlob 10051770 f   interop.obj
 0001:000507c0       _pcache1Alloc              100517c0 f   interop.obj
 0001:00050920       _pcache1InitBulk           10051920 f   interop.obj
 0001:00050a50       _rehash                    10051a50 f   interop.obj
 0001:00050b90       _sqlite3Error              10051b90 f   interop.obj
 0001:00050bb0       _sqlite3ThreadCreate       10051bb0 f   interop.obj
 0001:00050cb0       _apiOomError               10051cb0 f   interop.obj
 0001:00050ce0       _dbMallocRawFinish         10051ce0 f   interop.obj
 0001:00050d70       _sqlite3MallocZero         10051d70 f   interop.obj
 0001:00050e00       _sqlite3Realloc            10051e00 f   interop.obj
 0001:00051050       _sqlite3OsOpenMalloc       10052050 f   interop.obj
 0001:000510f0       _atn2Func                  100520f0 f   interop.obj
 0001:00051190       _piFunc                    10052190 f   interop.obj
 0001:00051220       _statDecodePage            10052220 f   interop.obj
 0001:00051540       _statOpen                  10052540 f   interop.obj
 0001:00051590       _deserializeGeometry       10052590 f   interop.obj
 0001:00051700       _analysisLoader            10052700 f   interop.obj
 0001:00051850       _vdbeIncrMergerNew         10052850 f   interop.obj
 0001:000518d0       _vdbeIncrPopulate          100528d0 f   interop.obj
 0001:00051a50       _vdbeSorterOpenTempFile    10052a50 f   interop.obj
 0001:00051b90       _vdbeMergeEngineNew        10052b90 f   interop.obj
 0001:00051c10       _vdbeSorterCreateThread    10052c10 f   interop.obj
 0001:00051c30       _vdbePmaReadBlob           10052c30 f   interop.obj
 0001:00051da0       _sqlite3TransferBindings   10052da0 f   interop.obj
 0001:00051e60       _columnMem                 10052e60 f   interop.obj
 0001:00051fa0       _sqlite3VdbePreUpdateHook  10052fa0 f   interop.obj
 0001:00052150       _freeP4                    10053150 f   interop.obj
 0001:000521e8       $LN170                     100531e8     * CIL library *:* CIL module *
 0001:00052220       _setSharedCacheTableLock   10053220 f   interop.obj
 0001:00052280       _walBeginShmUnreliable     10053280 f   interop.obj
 0001:000524e0       _sqlite3WalOpen            100534e0 f   interop.obj
 0001:000525f0       _pagerOpenWal              100535f0 f   interop.obj
 0001:00052660       _pagerAcquireMapPage       10053660 f   interop.obj
 0001:00052720       _pager_delmaster           10053720 f   interop.obj
 0001:000529b0       _pcache1ResizeHash         100539b0 f   interop.obj
 0001:00052aa0       _sqlite3PageMalloc         10053aa0 f   interop.obj
 0001:00052ab0       _pcache1AllocPage          10053ab0 f   interop.obj
 0001:00052b80       _sqlite3BitvecCreate       10053b80 f   interop.obj
 0001:00052ba0       _winUnicodeToMbcs          10053ba0 f   interop.obj
 0001:00052c20       _winMbcsToUnicode          10053c20 f   interop.obj
 0001:00052c90       _winUnicodeToUtf8          10053c90 f   interop.obj
 0001:00052d10       _winUtf8ToUnicode          10053d10 f   interop.obj
 0001:00052d80       _sqlite3HashInsert         10053d80 f   interop.obj
 0001:00052f10       _sqlite3ApiExit            10053f10 f   interop.obj
 0001:00052f30       _sqlite3DbMallocRawNN      10053f30 f   interop.obj
 0001:00052fd0       _sqlite3DbMallocRaw        10053fd0 f   interop.obj
 0001:00053060       _sqlite3DbMallocZero       10054060 f   interop.obj
 0001:000530c0       _jsonGrow                  100540c0 f   interop.obj
 0001:000531f0       _floorFunc                 100541f0 f   interop.obj
 0001:000532a0       _ceilFunc                  100542a0 f   interop.obj
 0001:00053350       _signFunc                  10054350 f   interop.obj
 0001:00053450       _squareFunc                10054450 f   interop.obj
 0001:00053500       _rtreeMatchArgFree         10054500 f   interop.obj
 0001:00053530       _fts3TokenizerEnabled      10054530 f   interop.obj
 0001:00053560       _tokenExpr                 10054560 f   interop.obj
 0001:000535f0       _whereLoopResize           100545f0 f   interop.obj
 0001:00053670       _sqlite3VtabMakeWritable   10054670 f   interop.obj
 0001:00053700       _sqlite3VtabOverloadFunction 10054700 f   interop.obj
 0001:00053830       _sqlite3VtabCreateModule   10054830 f   interop.obj
 0001:00053950       _sqlite3KeyInfoAlloc       10054950 f   interop.obj
 0001:000539e0       _sqlite3PragmaVtabRegister 100549e0 f   interop.obj
 0001:00053a20       _autoIncBegin              10054a20 f   interop.obj
 0001:00053ae0       _sqlite3IndexAffinityStr   10054ae0 f   interop.obj
 0001:00053bb0       _sqlite3FkDelete           10054bb0 f   interop.obj
 0001:00053c40       _randomFunc                10054c40 f   interop.obj
 0001:00053cc0       _sqlite3FindFunction       10054cc0 f   interop.obj
 0001:00053e80       _findCollSeqEntry          10054e80 f   interop.obj
 0001:00053f70       _sqlite3AllocateIndexObject 10054f70 f   interop.obj
 0001:00054000       _resizeIndexObject         10055000 f   interop.obj
 0001:000540a0       _createTableStmt           100550a0 f   interop.obj
 0001:000542d0       _deleteTable               100552d0 f   interop.obj
 0001:00054390       _sqlite3UnlinkAndDeleteIndex 10055390 f   interop.obj
 0001:00054420       _sampleSetRowid            10055420 f   interop.obj
 0001:00054480       _exprINAffinity            10055480 f   interop.obj
 0001:00054520       _sqlite3ExprAlloc          10055520 f   interop.obj
 0001:00054620       _sqlite3ExprAddCollateToken 10055620 f   interop.obj
 0001:00054660       _sqlite3CreateColumnExpr   10055660 f   interop.obj
 0001:000546e0       _vdbeSorterAddToTree       100556e0 f   interop.obj
 0001:000547f0       _vdbeIncrPopulateThread    100557f0 f   interop.obj
 0001:00054810       _sqlite3VdbeSorterInit     10055810 f   interop.obj
 0001:00054a20       _vdbePmaReadVarint         10055a20 f   interop.obj
 0001:00054b40       _columnMallocFailure       10055b40 f   interop.obj
 0001:00054c60       _sqlite3VdbeAllocUnpackedRecord 10055c60 f   interop.obj
 0001:00054cc0       _sqlite3VdbeSetNumCols     10055cc0 f   interop.obj
 0001:00054d50       _sqlite3VdbeAppendP4       10055d50 f   interop.obj
 0001:00054d90       _sqlite3VdbeChangeToNoop   10055d90 f   interop.obj
 0001:00054de0       _vdbeFreeOpArray           10055de0 f   interop.obj
 0001:00054e30       _sqlite3ValueNew           10055e30 f   interop.obj
 0001:00054e70       _sqlite3VdbeMemSetRowSet   10055e70 f   interop.obj
 0001:00054f00       _sqlite3BtreeLockTable     10055f00 f   interop.obj
 0001:00054f70       _sqlite3BtreeSchema        10055f70 f   interop.obj
 0001:00054fe0       _allocateTempSpace         10055fe0 f   interop.obj
 0001:00055010       _walIndexPageRealloc       10056010 f   interop.obj
 0001:00055120       _sqlite3PagerOpenWal       10056120 f   interop.obj
 0001:00055180       _pagerOpenSavepoint        10056180 f   interop.obj
 0001:00055290       _pager_open_journal        10056290 f   interop.obj
 0001:000553c0       _sqlite3PagerSetPagesize   100563c0 f   interop.obj
 0001:000554f0       _pagerOpenWalIfPresent     100564f0 f   interop.obj
 0001:00055570       _readJournalHdr            10056570 f   interop.obj
 0001:000557a0       _rowSetEntryAlloc          100567a0 f   interop.obj
 0001:000557f0       _pcache1FetchStage2        100567f0 f   interop.obj
 0001:00055930       _pcache1Create             10056930 f   interop.obj
 0001:00055a20       _sqlite3BitvecSet          10056a20 f   interop.obj
 0001:00055ba0       _winUtf8ToMbcs             10056ba0 f   interop.obj
 0001:00055be0       _winMbcsToUtf8             10056be0 f   interop.obj
 0001:00055c20       _sqlite3HexToBlob          10056c20 f   interop.obj
 0001:00055cb0       _strAccumFinishRealloc     10056cb0 f   interop.obj
 0001:00055d10       _sqlite3DbStrNDup          10056d10 f   interop.obj
 0001:00055d60       _sqlite3DbStrDup           10056d60 f   interop.obj
 0001:00055db0       _dbReallocFinish           10056db0 f   interop.obj
 0001:00055e60       _sqlite3DbRealloc          10056e60 f   interop.obj
 0001:00055ec0       _jsonAppendString          10056ec0 f   interop.obj
 0001:00056080       _jsonAppendChar            10057080 f   interop.obj
 0001:000560c0       _jsonPrintf                100570c0 f   interop.obj
 0001:00056130       _jsonAppendRaw             10057130 f   interop.obj
 0001:00056180       _whereLoopXfer             10057180 f   interop.obj
 0001:00056220       _sqlite3IndexColumnAffinity 10057220 f   interop.obj
 0001:00056250       _growVTrans                10057250 f   interop.obj
 0001:000562c0       _addModuleArgument         100572c0 f   interop.obj
 0001:00056320       _sqlite3IsLikeFunction     10057320 f   interop.obj
 0001:000563c0       _setLikeOptFlag            100573c0 f   interop.obj
 0001:000563e0       _sqlite3FindCollSeq        100573e0 f   interop.obj
 0001:00056420       _synthCollSeq              10057420 f   interop.obj
 0001:000564a0       _sqlite3SrcListEnlarge     100574a0 f   interop.obj
 0001:000565d0       _sqlite3ArrayAllocate      100575d0 f   interop.obj
 0001:00056650       _sqlite3NameFromToken      10057650 f   interop.obj
 0001:000566b0       _sqlite3DeleteTable        100576b0 f   interop.obj
 0001:000566d0       _sampleCopy                100576d0 f   interop.obj
 0001:00056780       _addAggInfoFunc            10057780 f   interop.obj
 0001:000567b0       _addAggInfoColumn          100577b0 f   interop.obj
 0001:000567e0       _sqlite3ExprListSetName    100577e0 f   interop.obj
 0001:00056860       _sqlite3IdListDup          10057860 f   interop.obj
 0001:00056900       _sqlite3ExprListDup        10057900 f   interop.obj
 0001:00056a50       _withDup                   10057a50 f   interop.obj
 0001:00056b20       _sqlite3Expr               10057b20 f   interop.obj
 0001:00056b70       _sqlite3ExprAddCollateString 10057b70 f   interop.obj
 0001:00056bd0       _vdbeIncrBgPopulate        10057bd0 f   interop.obj
 0001:00056bf0       _vdbeSortAllocUnpacked     10057bf0 f   interop.obj
 0001:00056c30       _vdbeUnpackRecord          10057c30 f   interop.obj
 0001:00056d80       _sqlite3VtabImportErrmsg   10057d80 f   interop.obj
 0001:00056dc0       _sqlite3VdbeClearObject    10057dc0 f   interop.obj
 0001:00056e90       _vdbeChangeP4Full          10057e90 f   interop.obj
 0001:00056f70       _sqlite3VdbeDeletePriorOpcode 10057f70 f   interop.obj
 0001:00056fa0       _growOpArray               10057fa0 f   interop.obj
 0001:00057040       _sqlite3VdbeSetSql         10058040 f   interop.obj
 0001:000570c0       _btreeCursor               100580c0 f   interop.obj
 0001:00057160       _sqlite3BtreeSetPageSize   10058160 f   interop.obj
 0001:00057220       _btreeSetHasContent        10058220 f   interop.obj
 0001:00057400       _walIndexPage              10058400 f   interop.obj
 0001:00057430       _sqlite3PagerOpenSavepoint 10058430 f   interop.obj
 0001:00057450       _addToSavepointBitvecs     10058450 f   interop.obj
 0001:00057640       _sqlite3RowSetTest         10058640 f   interop.obj
 0001:00057760       _sqlite3RowSetInsert       10058760 f   interop.obj
 0001:000577c0       _pcache1FetchNoMutex       100587c0 f   interop.obj
 0001:00057810       _sqlite3BitvecBuiltinTest  10058810 f   interop.obj
 0001:00057a20       _winConvertFromUtf8Filename 10058a20 f   interop.obj
 0001:00057a30       _winGetLastErrorMsg        10058a30 f   interop.obj
 0001:00057ae0       _sqlite3VListAdd           10058ae0 f   interop.obj
 0001:00057b80       _sqlite3StrAccumFinish     10058b80 f   interop.obj
 0001:00057bb0       _sqlite3StrAccumEnlarge    10058bb0 f   interop.obj
 0001:00057d00       _sqlite3SetString          10058d00 f   interop.obj
 0001:00057d30       _sqlite3DbSpanDup          10058d30 f   interop.obj
 0001:00057dc0       _sqlite3DbReallocOrFree    10058dc0 f   interop.obj
 0001:00057e00       _jsonEachComputePath       10058e00 f   interop.obj
 0001:00057ea0       _jsonAppendSeparator       10058ea0 f   interop.obj
 0001:00057ed0       _fts5RowidMethod           10058ed0 f   interop.obj
 0001:00057f70       $LN54                      10058f70     * CIL library *:* CIL module *
 0001:00058050       _sessionDiffNew            10059050 f   interop.obj
 0001:00058070       _sessionDiffOld            10059070 f   interop.obj
 0001:00058090       _langidFromSelect          10059090 f   interop.obj
 0001:000580d0       _whereLoopInsert           100590d0 f   interop.obj
 0001:000581f0       _sqlite3VtabEponymousTableClear 100591f0 f   interop.obj
 0001:00058220       _sqlite3VtabBegin          10059220 f   interop.obj
 0001:000582f0       _sqlite3VtabSync           100592f0 f   interop.obj
 0001:00058360       _addArgumentToVtab         10059360 f   interop.obj
 0001:000583e0       _triggerSpanDup            100593e0 f   interop.obj
 0001:00058420       _minMaxQuery               10059420 f   interop.obj
 0001:000584a0       _exprTableColumn           100594a0 f   interop.obj
 0001:000584f0       _exprTableRegister         100594f0 f   interop.obj
 0001:00058590       _sqlite3SrcListIndexedBy   10059590 f   interop.obj
 0001:000585d0       _sqlite3SrcListDelete      100595d0 f   interop.obj
 0001:000586c0       _sqlite3SrcListAppend      100596c0 f   interop.obj
 0001:00058780       _sqlite3IdListAppend       10059780 f   interop.obj
 0001:000587f0       _sqlite3FindDb             100597f0 f   interop.obj
 0001:00058820       _sqlite3UnlinkAndDeleteTable 10059820 f   interop.obj
 0001:00058870       _sqlite3TableLock          10059870 f   interop.obj
 0001:00058970       _sampleInsert              10059970 f   interop.obj
 0001:00058b40       _sqlite3ExprListSetSpan    10059b40 f   interop.obj
 0001:00058b80       _sqlite3SrcListDup         10059b80 f   interop.obj
 0001:00058d00       _vdbeIncrSwap              10059d00 f   interop.obj
 0001:00058d80       _vdbePmaReaderNext         10059d80 f   interop.obj
 0001:00058e20       _sqlite3VdbeDelete         10059e20 f   interop.obj
 0001:00058e70       _sqlite3VdbeChangeP4       10059e70 f   interop.obj
 0001:00058f00       _sqlite3VdbeAddOpList      10059f00 f   interop.obj
 0001:00058fc0       _sqlite3VdbeMakeLabel      10059fc0 f   interop.obj
 0001:00059030       _growOp3                   1005a030 f   interop.obj
 0001:00059070       _sqlite3VdbeMemGrow        1005a070 f   interop.obj
 0001:000591b0       _setDestPgsz               1005a1b0 f   interop.obj
 0001:000591d0       _sqlite3BtreeBeginStmt     1005a1d0 f   interop.obj
 0001:00059220       _walHashGet                1005a220 f   interop.obj
 0001:00059290       _pagerAddPageToRollbackJournal 1005a290 f   interop.obj
 0001:000595a0       _subjournalPage            1005a5a0 f   interop.obj
 0001:00059690       _pcache1FetchWithMutex     1005a690 f   interop.obj
 0001:000596e0       _winGetLastError           1005a6e0 f   interop.obj
 0001:00059710       _winDlError                1005a710 f   interop.obj
 0001:00059730       _winDlOpen                 1005a730 f   interop.obj
 0001:000597a0       _enlargeAndAppend          1005a7a0 f   interop.obj
 0001:00059830       _sessionDiffHooks          1005a830 f   interop.obj
 0001:00059850       _sqlite3VtabArgInit        1005a850 f   interop.obj
 0001:00059870       _targetSrcList             1005a870 f   interop.obj
 0001:000598f0       _triggerStepAllocate       1005a8f0 f   interop.obj
 0001:00059970       _clearSelect               1005a970 f   interop.obj
 0001:00059a20       _samplePushPrevious        1005aa20 f   interop.obj
 0001:00059af0       _sqlite3SelectDup          1005aaf0 f   interop.obj
 0001:00059c60       _exprDup                   1005ac60 f   interop.obj
 0001:00059ed0       _sqlite3VdbeSorterNext     1005aed0 f   interop.obj
 0001:00059f70       _vdbePmaReaderIncrMergeInit 1005af70 f   interop.obj
 0001:0005a080       _vdbePmaReaderInit         1005b080 f   interop.obj
 0001:0005a0f0       _sqlite3VdbeAddOp3         1005b0f0 f   interop.obj
 0001:0005a160       _sqlite3VdbeMemExpandBlob  1005b160 f   interop.obj
 0001:0005a1b0       _vdbeMemAddTerminator      1005b1b0 f   interop.obj
 0001:0005a1f0       _sqlite3VdbeMemClearAndResize 1005b1f0 f   interop.obj
 0001:0005a200       _walIteratorInit           1005b200 f   interop.obj
 0001:0005a3a0       _walCleanupHash            1005b3a0 f   interop.obj
 0001:0005a430       _subjournalPageIfRequired  1005b430 f   interop.obj
 0001:0005a450       _pcache1Fetch              1005b450 f   interop.obj
 0001:0005a4d0       _codeExprOrVector          1005b4d0 f   interop.obj
 0001:0005a570       _codeDeferredSeek          1005b570 f   interop.obj
 0001:0005a650       _codeOffset                1005b650 f   interop.obj
 0001:0005a670       _sqlite3SelectDelete       1005b670 f   interop.obj
 0001:0005a690       _sqlite3ChangeCookie       1005b690 f   interop.obj
 0001:0005a6c0       _sqlite3ExprCodeMove       1005b6c0 f   interop.obj
 0001:0005a6f0       _sqlite3ExprDup            1005b6f0 f   interop.obj
 0001:0005a720       _sqlite3ExprDeleteNN       1005b720 f   interop.obj
 0001:0005a7b0       _sqlite3VdbeSorterRowkey   1005b7b0 f   interop.obj
 0001:0005a830       _vdbeMergeEngineLevel0     1005b830 f   interop.obj
 0001:0005a900       _vdbePmaReaderBgIncrInit   1005b900 f   interop.obj
 0001:0005a930       _createAggContext          1005b930 f   interop.obj
 0001:0005a9c0       _sqlite3VdbeAddOp4Int      1005b9c0 f   interop.obj
 0001:0005aa00       _sqlite3VdbeAddOp4         1005ba00 f   interop.obj
 0001:0005aa30       _sqlite3VdbeLoadString     1005ba30 f   interop.obj
 0001:0005aa70       _sqlite3VdbeGoto           1005ba70 f   interop.obj
 0001:0005aa90       _sqlite3VdbeAddOp2         1005ba90 f   interop.obj
 0001:0005aab0       _sqlite3VdbeAddOp1         1005bab0 f   interop.obj
 0001:0005aad0       _sqlite3VdbeAddOp0         1005bad0 f   interop.obj
 0001:0005aae0       _sqlite3VdbeCreate         1005bae0 f   interop.obj
 0001:0005ab60       _sqlite3VdbeMemNulTerminate 1005bb60 f   interop.obj
 0001:0005ab80       _sqlite3VdbeMemMakeWriteable 1005bb80 f   interop.obj
 0001:0005abd0       _sqlite3WalSavepointUndo   1005bbd0 f   interop.obj
 0001:0005ac10       _sqlite3WalUndo            1005bc10 f   interop.obj
 0001:0005ac90       _walCheckpoint             1005bc90 f   interop.obj
 0001:0005b090       _pager_write               1005c090 f   interop.obj
 0001:0005b120       _sqlite3VdbeMemHandleBom   1005c120 f   interop.obj
 0001:0005b1a0       _sqlite3VdbeMemTranslate   1005c1a0 f   interop.obj
 0001:0005b6b0       _codeApplyAffinity         1005c6b0 f   interop.obj
 0001:0005b730       _explainAppendTerm         1005c730 f   interop.obj
 0001:0005b880       _sqlite3TriggerSelectStep  1005c880 f   interop.obj
 0001:0005b8f0       _finalizeAggFunctions      1005c8f0 f   interop.obj
 0001:0005b960       _generateOutputSubroutine  1005c960 f   interop.obj
 0001:0005bcbc       $LN138                     1005ccbc     * CIL library *:* CIL module *
 0001:0005bcd0       _sqlite3GetVdbe            1005ccd0 f   interop.obj
 0001:0005bcf0       _generateSortTail          1005ccf0 f   interop.obj
 0001:0005c174       $LN182                     1005d174     * CIL library *:* CIL module *
 0001:0005c190       _codeDistinct              1005d190 f   interop.obj
 0001:0005c250       _integrityCheckResultRow   1005d250 f   interop.obj
 0001:0005c2b0       _returnSingleText          1005d2b0 f   interop.obj
 0001:0005c300       _reorderConstraintChecks   1005d300 f   interop.obj
 0001:0005c380       _autoIncStep               1005d380 f   interop.obj
 0001:0005c3b0       _readsTable                1005d3b0 f   interop.obj
 0001:0005c480       _sqlite3TableAffinity      1005d480 f   interop.obj
 0001:0005c560       _sqlite3HaltConstraint     1005d560 f   interop.obj
 0001:0005c5d0       _sqlite3OpenMasterTable    1005d5d0 f   interop.obj
 0001:0005c640       _codeTableLocks            1005d640 f   interop.obj
 0001:0005c6b0       _loadAnalysis              1005d6b0 f   interop.obj
 0001:0005c6e0       _callStatGet               1005d6e0 f   interop.obj
 0001:0005c750       _sqlite3SetHasNullFlag     1005d750 f   interop.obj
 0001:0005c7d0       _sqlite3ExprDelete         1005d7d0 f   interop.obj
 0001:0005c7f0       _sqlite3ExprAttachSubtrees 1005d7f0 f   interop.obj
 0001:0005c860       _resolveAlias              1005d860 f   interop.obj
 0001:0005c940       _vdbeSorterMergeTreeBuild  1005d940 f   interop.obj
 0001:0005cb20       _vdbePmaReaderIncrInit     1005db20 f   interop.obj
 0001:0005cb50       _vdbeMergeEngineInit       1005db50 f   interop.obj
 0001:0005cc20       _sqlite3VdbeEndCoroutine   1005dc20 f   interop.obj
 0001:0005cc50       _sqlite3VdbeAddParseSchemaOp 1005dc50 f   interop.obj
 0001:0005cca0       _sqlite3VdbeAddOp4Dup8     1005dca0 f   interop.obj
 0001:0005cd00       _sqlite3VdbeMultiLoad      1005dd00 f   interop.obj
 0001:0005cdb0       _sqlite3VdbeMemSetStr      1005ddb0 f   interop.obj
 0001:0005cfd0       _sqlite3VdbeMemCopy        1005dfd0 f   interop.obj
 0001:0005d040       _sqlite3VdbeChangeEncoding 1005e040 f   interop.obj
 0001:0005d060       _pagerWriteLargeSector     1005e060 f   interop.obj
 0001:0005d1d0       _sqlite3Utf16to8           1005e1d0 f   interop.obj
 0001:0005d250       _percentFinal              1005e250 f   interop.obj
 0001:0005d360       _varianceFinalize          1005e360 f   interop.obj
 0001:0005d3d0       _stdevFinalize             1005e3d0 f   interop.obj
 0001:0005d450       __medianFinalize           1005e450 f   interop.obj
 0001:0005d560       _modeFinalize              1005e560 f   interop.obj
 0001:0005d630       _modeStep                  1005e630 f   interop.obj
 0001:0005d750       _varianceStep              1005e750 f   interop.obj
 0001:0005d7f0       _binaryToUnaryIfNull       1005e7f0 f   interop.obj
 0001:0005d830       _sqlite3WhereClauseClear   1005e830 f   interop.obj
 0001:0005d8c0       _whereClauseInsert         1005e8c0 f   interop.obj
 0001:0005da10       _sqlite3UpsertNew          1005ea10 f   interop.obj
 0001:0005daa0       _sqlite3UpsertDup          1005eaa0 f   interop.obj
 0001:0005db30       _sqlite3UpsertDelete       1005eb30 f   interop.obj
 0001:0005db90       _sqlite3TriggerDeleteStep  1005eb90 f   interop.obj
 0001:0005dbf0       _sqlite3TriggerUpdateStep  1005ebf0 f   interop.obj
 0001:0005dc80       _sqlite3TriggerInsertStep  1005ec80 f   interop.obj
 0001:0005dd00       _sqlite3DeleteTriggerStep  1005ed00 f   interop.obj
 0001:0005dd80       _computeLimitRegisters     1005ed80 f   interop.obj
 0001:0005dec0       _returnSingleInt           1005eec0 f   interop.obj
 0001:0005df20       _sqlite3CompleteInsertion  1005ef20 f   interop.obj
 0001:0005e160       _countFinalize             1005f160 f   interop.obj
 0001:0005e1e0       _countStep                 1005f1e0 f   interop.obj
 0001:0005e230       _totalFinalize             1005f230 f   interop.obj
 0001:0005e280       _avgFinalize               1005f280 f   interop.obj
 0001:0005e2e0       _sumStep                   1005f2e0 f   interop.obj
 0001:0005e410       _sqlite3ExprIfFalseDup     1005f410 f   interop.obj
 0001:0005e460       _sqlite3ExprCodeCopy       1005f460 f   interop.obj
 0001:0005e4b0       _codeReal                  1005f4b0 f   interop.obj
 0001:0005e570       _sqlite3ExprListAppend     1005f570 f   interop.obj
 0001:0005e610       _sqlite3ExprAnd            1005f610 f   interop.obj
 0001:0005e7e0       _invokeValueDestructor     1005f7e0 f   interop.obj
 0001:0005e820       _setResultStrOrError       1005f820 f   interop.obj
 0001:0005e860       _sqlite3NotPureFunc        1005f860 f   interop.obj
 0001:0005e8a0       _sqlite3VdbeSetColName     1005f8a0 f   interop.obj
 0001:0005e8f0       _sqlite3ValueSetStr        1005f8f0 f   interop.obj
 0001:0005e910       _sqlite3VdbeMemStringify   1005f910 f   interop.obj
 0001:0005e9f0       _sqlite3PagerWrite         1005f9f0 f   interop.obj
 0001:0005ea50       _localtimeOffset           1005fa50 f   interop.obj
 0001:0005ec00       _parseDateOrTime           1005fc00 f   interop.obj
 0001:0005ecf0       _fts5ExprFold              1005fcf0 f   interop.obj
 0001:0005ed70       _fts5ExprIsAlnum           1005fd70 f   interop.obj
 0001:0005edc0       _upper_quartileFinalize    1005fdc0 f   interop.obj
 0001:0005ee30       _lower_quartileFinalize    1005fe30 f   interop.obj
 0001:0005ee80       _medianFinalize            1005fe80 f   interop.obj
 0001:0005eed0       _powerFunc                 1005fed0 f   interop.obj
 0001:0005efc0       _deg2radFunc               1005ffc0 f   interop.obj
 0001:0005f090       _rad2degFunc               10060090 f   interop.obj
 0001:0005f160       _expFunc                   10060160 f   interop.obj
 0001:0005f220       _log10Func                 10060220 f   interop.obj
 0001:0005f2e0       _logFunc                   100602e0 f   interop.obj
 0001:0005f3a0       _cothFunc                  100603a0 f   interop.obj
 0001:0005f470       _tanhFunc                  10060470 f   interop.obj
 0001:0005f540       _coshFunc                  10060540 f   interop.obj
 0001:0005f610       _sinhFunc                  10060610 f   interop.obj
 0001:0005f6e0       _cotFunc                   100606e0 f   interop.obj
 0001:0005f7b0       _tanFunc                   100607b0 f   interop.obj
 0001:0005f870       _cosFunc                   10060870 f   interop.obj
 0001:0005f930       _sinFunc                   10060930 f   interop.obj
 0001:0005f9f0       _atanhFunc                 100609f0 f   interop.obj
 0001:0005fad0       _asinhFunc                 10060ad0 f   interop.obj
 0001:0005fbb0       _acoshFunc                 10060bb0 f   interop.obj
 0001:0005fc90       _atanFunc                  10060c90 f   interop.obj
 0001:0005fd50       _asinFunc                  10060d50 f   interop.obj
 0001:0005fe10       _acosFunc                  10060e10 f   interop.obj
 0001:0005fed0       _sqrtFunc                  10060ed0 f   interop.obj
 0001:0005ff90       _yy_destructor             10060f90 f   interop.obj
 0001:00060050       $LN337                     10061050     * CIL library *:* CIL module *
 0001:00060074       $LN334                     10061074     * CIL library *:* CIL module *
 0001:000600d0       _whereInfoFree             100610d0 f   interop.obj
 0001:00060170       _sqlite3WhereSplit         10061170 f   interop.obj
 0001:000601e0       _removeUnindexableInClauseTerms 100611e0 f   interop.obj
 0001:00060360       _sqlite3DeleteTrigger      10061360 f   interop.obj
 0001:000603c0       _generateColumnTypes       100613c0 f   interop.obj
 0001:000604f0       _sqlite3SelectNew          100614f0 f   interop.obj
 0001:00060620       _setPragmaResultColumnNames 10061620 f   interop.obj
 0001:000606c0       _minMaxFinalize            100616c0 f   interop.obj
 0001:00060720       _sumFinalize               10061720 f   interop.obj
 0001:000607d0       _zeroblobFunc              100617d0 f   interop.obj
 0001:00060840       _contextMalloc             10061840 f   interop.obj
 0001:00060900       _absFunc                   10061900 f   interop.obj
 0001:00060a00       _sqlite3SchemaClear        10061a00 f   interop.obj
 0001:00060ae0       _sqlite3AddCheckConstraint 10061ae0 f   interop.obj
 0001:00060b60       _sqlite3ResetAllSchemasOfConnection 10061b60 f   interop.obj
 0001:00060bd0       _sqlite3ResetOneSchema     10061bd0 f   interop.obj
 0001:00060c30       _applyAffinity             10061c30 f   interop.obj
 0001:00060ed0       _sqlite3VdbeTransferError  10061ed0 f   interop.obj
 0001:00060f70       _recordFunc                10061f70 f   interop.obj
 0001:00061080       _valueToText               10062080 f   interop.obj
 0001:00061120       _backupOnePage             10062120 f   interop.obj
 0001:00061310       _sqlite3BtreeUpdateMeta    10062310 f   interop.obj
 0001:00061380       _btreeOverwriteContent     10062380 f   interop.obj
 0001:000614a0       _copyPayload               100624a0 f   interop.obj
 0001:000614d0       _sqlite3PagerMovepage      100624d0 f   interop.obj
 0001:00061700       _pager_incr_changecounter  10062700 f   interop.obj
 0001:00061780       _parseModifier             10062780 f   interop.obj
 0001:00061dc0       $LN265                     10062dc0     * CIL library *:* CIL module *
 0001:00061dd8       $LN251                     10062dd8     * CIL library *:* CIL module *
 0001:00061e30       _jsonObjectFinal           10062e30 f   interop.obj
 0001:00061f30       _jsonArrayFinal            10062f30 f   interop.obj
 0001:00062030       _jsonResult                10063030 f   interop.obj
 0001:00062090       _fts5VocabColumnMethod     10063090 f   interop.obj
 0001:00062240       _fts5SourceIdFunc          10063240 f   interop.obj
 0001:00062280       _statColumn                10063280 f   interop.obj
 0001:0006244c       $LN227                     1006344c     * CIL library *:* CIL module *
 0001:00062480       _fts3tokColumnMethod       10063480 f   interop.obj
 0001:00062530       $LN48                      10063530     * CIL library *:* CIL module *
 0001:00062540       _fts3auxColumnMethod       10063540 f   interop.obj
 0001:00062640       $LN57                      10063640     * CIL library *:* CIL module *
 0001:00062874       $LN334                     10063874     * CIL library *:* CIL module *
 0001:000628d0       _yy_pop_parser_stack       100638d0 f   interop.obj
 0001:000628f0       _sqlite3WhereEnd           100638f0 f   interop.obj
 0001:00062e50       _sqlite3UnlinkAndDeleteTrigger 10063e50 f   interop.obj
 0001:00062ed0       _pragmaVtabColumn          10063ed0 f   interop.obj
 0001:00062f40       _groupConcatFinalize       10063f40 f   interop.obj
 0001:00062fc0       _charFunc                  10063fc0 f   interop.obj
 0001:000630f0       _compileoptiongetFunc      100640f0 f   interop.obj
 0001:00063150       _sourceidFunc              10064150 f   interop.obj
 0001:00063190       _versionFunc               10064190 f   interop.obj
 0001:000631d0       _randomBlob                100641d0 f   interop.obj
 0001:00063250       _typeofFunc                10064250 f   interop.obj
 0001:000632b0       _sqlite3SchemaGet          100642b0 f   interop.obj
 0001:00063380       _statInit                  10064380 f   interop.obj
 0001:00063530       _sqlite3ValueApplyAffinity 10064530 f   interop.obj
 0001:00063550       _sqlite3VdbeGetBoundValue  10064550 f   interop.obj
 0001:000635a0       _valueBytes                100645a0 f   interop.obj
 0001:000635c0       _sqlite3AnalyzeFunctions   100645c0 f   interop.obj
 0001:000635d0       _sqlite3ValueText          100645d0 f   interop.obj
 0001:00063610       _sqlite3VdbeMemCast        10064610 f   interop.obj
 0001:000636ec       $LN106                     100646ec     * CIL library *:* CIL module *
 0001:00063700       _backupUpdate              10064700 f   interop.obj
 0001:00063780       _sqlite3ParserFinalize     10064780 f   interop.obj
 0001:000637a0       _callCollNeeded            100647a0 f   interop.obj
 0001:000638f0       _vdbeCompareMemString      100648f0 f   interop.obj
 0001:000639f0       _sqlite3ValueBytes         100649f0 f   interop.obj
 0001:00063a30       _sqlite3BackupUpdate       10064a30 f   interop.obj
 0001:00063a50       _pager_write_pagelist      10064a50 f   interop.obj
 0001:00063bd0       _pager_playback_one_page   10064bd0 f   interop.obj
 0001:000641e0       _getTextArg                100651e0 f   interop.obj
 0001:00064210       _fts5RowidFunction         10065210 f   interop.obj
 0001:000642e0       _fts5ValueToText           100652e0 f   interop.obj
 0001:00064300       _differenceFunc            10065300 f   interop.obj
 0001:00064420       _charindexFunc             10065420 f   interop.obj
 0001:000644f0       _isLikeOrGlob              100654f0 f   interop.obj
 0001:000647b0       _soundexFunc               100657b0 f   interop.obj
 0001:00064900       _unicodeFunc               10065900 f   interop.obj
 0001:00064940       _statGet                   10065940 f   interop.obj
 0001:00064c60       _sqlite3MemCompare         10065c60 f   interop.obj
 0001:00066180       $LN1215                    10067180     * CIL library *:* CIL module *
 0001:000661a0       $LN1111                    100671a0     * CIL library *:* CIL module *
 0001:000661b4       $LN1216                    100671b4     * CIL library *:* CIL module *
 0001:00066200       _isDate                    10067200 f   interop.obj
 0001:00066360       _torealFunc                10067360 f   interop.obj
 0001:0006659c       $LN21                      1006759c     * CIL library *:* CIL module *
 0001:000665b0       _tointegerFunc             100675b0 f   interop.obj
 0001:0006675c       $LN151                     1006775c     * CIL library *:* CIL module *
 0001:00066770       _sha1Func                  10067770 f   interop.obj
 0001:00066840       _jsonAppendValue           10067840 f   interop.obj
 0001:00066900       $LN153                     10067900     * CIL library *:* CIL module *
 0001:00066980       _sessionPreupdateEqual     10067980 f   interop.obj
 0001:00066b20       _sessionPreupdateHash      10067b20 f   interop.obj
 0001:00066c80       _sessionSerializeValue     10067c80 f   interop.obj
 0001:00066e00       _rtreedepth                10067e00 f   interop.obj
 0001:00066e80       _fts3ReadEndBlockField     10067e80 f   interop.obj
 0001:00066fb0       _groupConcatStep           10067fb0 f   interop.obj
 0001:00067070       _minmaxStep                10068070 f   interop.obj
 0001:00067140       _trimFunc                  10068140 f   interop.obj
 0001:00067450       _replaceFunc               10068450 f   interop.obj
 0001:00067750       _hexFunc                   10068750 f   interop.obj
 0001:00067820       _quoteFunc                 10068820 f   interop.obj
 0001:00067ab0       $LN240                     10068ab0     * CIL library *:* CIL module *
 0001:00067ac0       _nullifFunc                10068ac0 f   interop.obj
 0001:00067b00       _likeFunc                  10068b00 f   interop.obj
 0001:00067c00       _lowerFunc                 10068c00 f   interop.obj
 0001:00067cb0       _upperFunc                 10068cb0 f   interop.obj
 0001:00067d70       _substrFunc                10068d70 f   interop.obj
 0001:00068090       _instrFunc                 10069090 f   interop.obj
 0001:00068230       _lengthFunc                10069230 f   interop.obj
 0001:000682e0       $LN58                      100692e0     * CIL library *:* CIL module *
 0001:000682f0       _minmaxFunc                100692f0 f   interop.obj
 0001:000683b0       _statPush                  100693b0 f   interop.obj
 0001:00068650       _renderLogMsg              10069650 f   interop.obj
 0001:000686e0       _sqlite3VMPrintf           100696e0 f   interop.obj
 0001:00068760       _strftimeFunc              10069760 f   interop.obj
 0001:00068c0c       $LN231                     10069c0c     * CIL library *:* CIL module *
 0001:00068c24       $LN218                     10069c24     * CIL library *:* CIL module *
 0001:00068c78       $LN232                     10069c78     * CIL library *:* CIL module *
 0001:00068ca8       $LN221                     10069ca8     * CIL library *:* CIL module *
 0001:00068ce0       _dateFunc                  10069ce0 f   interop.obj
 0001:00068d90       _timeFunc                  10069d90 f   interop.obj
 0001:00068e40       _datetimeFunc              10069e40 f   interop.obj
 0001:00068f00       _juliandayFunc             10069f00 f   interop.obj
 0001:00068f70       _jsonObjectStep            10069f70 f   interop.obj
 0001:00069030       _jsonArrayStep             1006a030 f   interop.obj
 0001:000690d0       _jsonObjectFunc            1006a0d0 f   interop.obj
 0001:00069250       _jsonArrayFunc             1006a250 f   interop.obj
 0001:00069310       _jsonQuoteFunc             1006a310 f   interop.obj
 0001:000693a0       _jsonRenderNode            1006a3a0 f   interop.obj
 0001:00069574       $LN214                     1006a574     * CIL library *:* CIL module *
 0001:00069650       _explainIndexRange         1006a650 f   interop.obj
 0001:00069780       _printfFunc                1006a780 f   interop.obj
 0001:00069860       _sqlite3UniqueConstraint   1006a860 f   interop.obj
 0001:000699c0       _sqlite3NestedParse        1006a9c0 f   interop.obj
 0001:00069ab0       _openStatTable             1006aab0 f   interop.obj
 0001:00069c90       _sqlite3VdbeExpandSql      1006ac90 f   interop.obj
 0001:0006a050       _displayP4                 1006b050 f   interop.obj
 0001:0006a38c       $LN67                      1006b38c     * CIL library *:* CIL module *
 0001:0006a3d0       _sqlite3VdbeExplain        1006b3d0 f   interop.obj
 0001:0006a440       _sqlite3VdbeError          1006b440 f   interop.obj
 0001:0006a470       _checkAppendMsg            1006b470 f   interop.obj
 0001:0006a4e0       _sqlite3ErrorMsg           1006b4e0 f   interop.obj
 0001:0006a540       _sqlite3ErrorWithMsg       1006b540 f   interop.obj
 0001:0006a5f0       _sqlite3MPrintf            1006b5f0 f   interop.obj
 0001:0006a610       _ctimestampFunc            1006b610 f   interop.obj
 0001:0006a630       _cdateFunc                 1006b630 f   interop.obj
 0001:0006a650       _ctimeFunc                 1006b650 f   interop.obj
 0001:0006a670       _jsonReturnJson            1006b670 f   interop.obj
 0001:0006a700       _sqlite3ReportError        1006b700 f   interop.obj
 0001:0006a730       _yy_syntax_error           1006b730 f   interop.obj
 0001:0006a770       _yyStackOverflow           1006b770 f   interop.obj
 0001:0006a7a0       _parserAddExprIdListTerm   1006b7a0 f   interop.obj
 0001:0006a800       _parserDoubleLinkSelect    1006b800 f   interop.obj
 0001:0006a850       _vtabBestIndex             1006b850 f   interop.obj
 0001:0006a8d0       _allocateIndexInfo         1006b8d0 f   interop.obj
 0001:0006ab30       _sqlite3WhereExplainOneScan 1006bb30 f   interop.obj
 0001:0006ae00       _vtabCallConstructor       1006be00 f   interop.obj
 0001:0006b140       _sqlite3VtabFinishParse    1006c140 f   interop.obj
 0001:0006b2f0       _explainSimpleCount        1006c2f0 f   interop.obj
 0001:0006b350       _cannotBeFunction          1006c350 f   interop.obj
 0001:0006b380       _sqlite3IndexedByLookup    1006c380 f   interop.obj
 0001:0006b3f0       _sqlite3SelectWrongNumTermsError 1006c3f0 f   interop.obj
 0001:0006b480       _sqlite3ColumnsFromExprList 1006c480 f   interop.obj
 0001:0006b6d0       _generateColumnNames       1006c6d0 f   interop.obj
 0001:0006b890       _explainTempTable          1006c890 f   interop.obj
 0001:0006b8b0       _sqlite3JoinType           1006c8b0 f   interop.obj
 0001:0006b9f0       _sqlite3AutoLoadExtensions 1006c9f0 f   interop.obj
 0001:0006bac0       _sqlite3FkLocateIndex      1006cac0 f   interop.obj
 0001:0006bcd0       _errlogFunc                1006ccd0 f   interop.obj
 0001:0006bd00       _sqlite3IsReadOnly         1006cd00 f   interop.obj
 0001:0006bd80       _sqlite3GetCollSeq         1006cd80 f   interop.obj
 0001:0006be50       _sqlite3WithAdd            1006ce50 f   interop.obj
 0001:0006bf80       _sqlite3RowidConstraint    1006cf80 f   interop.obj
 0001:0006bff0       _sqlite3SrcListAppendFromTerm 1006cff0 f   interop.obj
 0001:0006c0c0       _sqlite3CreateForeignKey   1006d0c0 f   interop.obj
 0001:0006c3a0       _sqlite3ClearStatTables    1006d3a0 f   interop.obj
 0001:0006c430       _destroyRootPage           1006d430 f   interop.obj
 0001:0006c4b0       _sqlite3LocateCollSeq      1006d4b0 f   interop.obj
 0001:0006c510       _sqlite3AddCollateType     1006d510 f   interop.obj
 0001:0006c5b0       _sqlite3AddDefaultValue    1006d5b0 f   interop.obj
 0001:0006c6b0       _sqlite3AddColumn          1006d6b0 f   interop.obj
 0001:0006c860       _sqlite3CheckObjectName    1006d860 f   interop.obj
 0001:0006c8b0       _sqlite3TwoPartName        1006d8b0 f   interop.obj
 0001:0006c920       _sqliteAuthBadReturnCode   1006d920 f   interop.obj
 0001:0006c940       _sqlite3FixExpr            1006d940 f   interop.obj
 0001:0006c9d0       _sqlite3FixSelect          1006d9d0 f   interop.obj
 0001:0006cab0       _sqlite3FixSrcList         1006dab0 f   interop.obj
 0001:0006cb90       _isSystemTable             1006db90 f   interop.obj
 0001:0006cbd0       _whereOrName               1006dbd0 f   interop.obj
 0001:0006cc20       _renameTriggerFunc         1006dc20 f   interop.obj
 0001:0006cd10       _renameParentFunc          1006dd10 f   interop.obj
 0001:0006cef0       _renameTableFunc           1006def0 f   interop.obj
 0001:0006cfc0       _codeInteger               1006dfc0 f   interop.obj
 0001:0006d100       _sqlite3SubselectError     1006e100 f   interop.obj
 0001:0006d120       _sqlite3ExprListCheckLength 1006e120 f   interop.obj
 0001:0006d150       _sqlite3ExprAssignVarNumber 1006e150 f   interop.obj
 0001:0006d2b0       _sqlite3ExprCheckHeight    1006e2b0 f   interop.obj
 0001:0006d2e0       _resolveOutOfRangeError    1006e2e0 f   interop.obj
 0001:0006d300       _notValid                  1006e300 f   interop.obj
 0001:0006d340       _vdbeSafety                1006e340 f   interop.obj
 0001:0006d360       _sqlite3VdbeCheckFk        1006e360 f   interop.obj
 0001:0006d3c0       _sqlite3VdbeList           1006e3c0 f   interop.obj
 0001:0006d860       _checkReadTransaction      1006e860 f   interop.obj
 0001:0006d880       _checkRef                  1006e880 f   interop.obj
 0001:0006d8f0       _walLimitSize              1006e8f0 f   interop.obj
 0001:0006d970       _pager_playback            1006e970 f   interop.obj
 0001:0006dc60       _winLogIoerr               1006ec60 f   interop.obj
 0001:0006dc90       _winLogErrorAtLine         1006ec90 f   interop.obj
 0001:0006dd60       _winMemShutdown            1006ed60 f   interop.obj
 0001:0006ddb0       _winMemInit                1006edb0 f   interop.obj
 0001:0006de20       _winMemSize                1006ee20 f   interop.obj
 0001:0006de60       _winMemRealloc             1006ee60 f   interop.obj
 0001:0006ded0       _winMemFree                1006eed0 f   interop.obj
 0001:0006df10       _winMemMalloc              1006ef10 f   interop.obj
 0001:0006dfc0       _logBadConnection          1006efc0 f   interop.obj
 0001:0006dfe0       _sqlite3RegisterDateTimeFunctions 1006efe0 f   interop.obj
 0001:0006dff0       _sqlite3CantopenError      1006eff0 f   interop.obj
 0001:0006e020       _sqlite3MisuseError        1006f020 f   interop.obj
 0001:0006e050       _sqlite3CorruptError       1006f050 f   interop.obj
 0001:0006e080       _createCollation           1006f080 f   interop.obj
 0001:0006e230       _sqlite3CreateFunc         1006f230 f   interop.obj
 0001:0006e66c       $LN167                     1006f66c     * CIL library *:* CIL module *
 0001:0006e688       $LN150                     1006f688     * CIL library *:* CIL module *
 0001:0006e6e0       $LN168                     1006f6e0     * CIL library *:* CIL module *
 0001:0006e6f0       $LN151                     1006f6f0     * CIL library *:* CIL module *
 0001:0006e730       _yy_shift                  1006f730 f   interop.obj
 0001:0006e790       _whereLoopAddVirtualOne    1006f790 f   interop.obj
 0001:0006eb40       _sqlite3VtabEponymousTableInit 1006fb40 f   interop.obj
 0001:0006ec70       _sqlite3VtabCallCreate     1006fc70 f   interop.obj
 0001:0006ed50       _sqlite3VtabCallConnect    1006fd50 f   interop.obj
 0001:0006ee20       _createModule              1006fe20 f   interop.obj
 0001:0006eee0       _sqlite3Vacuum             1006fee0 f   interop.obj
 0001:0006ef40       _withExpand                1006ff40 f   interop.obj
 0001:0006f1f0       _convertCompoundSelectToSubquery 100701f0 f   interop.obj
 0001:0006f380       _corruptSchema             10070380 f   interop.obj
 0001:0006f420       _sqlite3FkOldmask          10070420 f   interop.obj
 0001:0006f510       _sqlite3RegisterLikeFunctions 10070510 f   interop.obj
 0001:0006f5e0       _sqlite3CheckCollSeq       100705e0 f   interop.obj
 0001:0006f610       _sqlite3KeyInfoOfIndex     10070610 f   interop.obj
 0001:0006f6d0       _destroyTable              100706d0 f   interop.obj
 0001:0006f760       _sqlite3AuthCheck          10070760 f   interop.obj
 0001:0006f800       _sqlite3FixTriggerStep     10070800 f   interop.obj
 0001:0006f890       _whereTempTriggers         10070890 f   interop.obj
 0001:0006f920       _whereForeignKeys          10070920 f   interop.obj
 0001:0006f960       _sqlite3AlterFunctions     10070960 f   interop.obj
 0001:0006f970       _sqlite3VectorErrorMsg     10070970 f   interop.obj
 0001:0006f9b0       _sqlite3PExpr              100709b0 f   interop.obj
 0001:0006fa40       _sqlite3ExprSetHeightAndFlags 10070a40 f   interop.obj
 0001:0006fa80       _sqlite3ExprForVectorField 10070a80 f   interop.obj
 0001:0006faf0       _sqlite3ExprCollSeq        10070af0 f   interop.obj
 0001:0006fc60       _sqlite3ResolveOrderGroupBy 10070c60 f   interop.obj
 0001:00070040       _columnName                10071040 f   interop.obj
 0001:000700f0       _vdbeSafetyNotNull         100710f0 f   interop.obj
 0001:00070130       _sqlite3VdbeRecordCompareWithSkip 10071130 f   interop.obj
 0001:000707c0       _sqlite3VdbeSetP4KeyInfo   100717c0 f   interop.obj
 0001:000707e0       _sqlite3Stat4Column        100717e0 f   interop.obj
 0001:00070930       _valueNew                  10071930 f   interop.obj
 0001:00070aa0       _btreeOverwriteCell        10071aa0 f   interop.obj
 0001:00070c00       _rebuildPage               10071c00 f   interop.obj
 0001:00070d30       _sqlite3BtreeCursor        10071d30 f   interop.obj
 0001:00070da0       _btreeGetUnusedPage        10071da0 f   interop.obj
 0001:00070e10       _decodeFlags               10071e10 f   interop.obj
 0001:00070ef0       _freeSpace                 10071ef0 f   interop.obj
 0001:00071250       _pageFindSlot              10072250 f   interop.obj
 0001:00071350       _defragmentPage            10072350 f   interop.obj
 0001:000716c0       _ptrmapGet                 100726c0 f   interop.obj
 0001:000717a0       _ptrmapPut                 100727a0 f   interop.obj
 0001:000718a0       _sqlite3WalFindFrame       100728a0 f   interop.obj
 0001:000719d0       _walIndexAppend            100729d0 f   interop.obj
 0001:00071ac0       _readDbPage                10072ac0 f   interop.obj
 0001:00071bb0       _winFullPathname           10072bb0 f   interop.obj
 0001:00071d20       _winAccess                 10072d20 f   interop.obj
 0001:00071e90       _winDelete                 10072e90 f   interop.obj
 0001:00071f90       _winGetTempname            10072f90 f   interop.obj
 0001:00072250       _winUnmapfile              10073250 f   interop.obj
 0001:00072300       _winUnlockReadLock         10073300 f   interop.obj
 0001:00072360       _winFileSize               10073360 f   interop.obj
 0001:000723d0       _winSync                   100733d0 f   interop.obj
 0001:00072450       _winWrite                  10073450 f   interop.obj
 0001:000725a0       _winRead                   100735a0 f   interop.obj
 0001:00072710       _winClose                  10073710 f   interop.obj
 0001:00072790       _winSeekFile               10073790 f   interop.obj
 0001:00072800       _sqlite3MemGetWin32        10073800 f   interop.obj
 0001:000728d0       _sqlite3SafetyCheckSickOrOk 100738d0 f   interop.obj
 0001:00072910       _sqlite3SafetyCheckOk      10073910 f   interop.obj
 0001:00072a40       _winMutexFree              10073a40 f   interop.obj
 0001:00072a90       _winMutexAlloc             10073a90 f   interop.obj
 0001:00072f98       $LN280                     10073f98     * CIL library *:* CIL module *
 0001:000730a0       _fts5SetVtabError          100740a0 f   interop.obj
 0001:000730c0       _sqlite3Fts5ParseError     100740c0 f   interop.obj
 0001:000730f0       _sqlite3Fts5Mprintf        100740f0 f   interop.obj
 0001:00073120       _fts5yy_syntax_error       10074120 f   interop.obj
 0001:00073150       _stmtColumn                10074150 f   interop.obj
 0001:0007327c       $LN150                     1007427c     * CIL library *:* CIL module *
 0001:000732b0       _sessionPreupdateNew       100742b0 f   interop.obj
 0001:000732c0       _rtreeCheckPrepare         100742c0 f   interop.obj
 0001:00073340       _sqlite3Fts3ErrMsg         10074340 f   interop.obj
 0001:00074700       _whereLoopAddVirtual       10075700 f   interop.obj
 0001:00074a00       _sqlite3WhereTabFuncArgs   10075a00 f   interop.obj
 0001:00074b40       _exprCommute               10075b40 f   interop.obj
 0001:00074d90       _sqlite3DropTriggerPtr     10075d90 f   interop.obj
 0001:00074eb0       _flattenSubquery           10075eb0 f   interop.obj
 0001:000753f0       _substExpr                 100763f0 f   interop.obj
 0001:00075580       _multiSelectCollSeq        10076580 f   interop.obj
 0001:000755c0       _sqlite3SelectAddColumnTypeAndCollation 100765c0 f   interop.obj
 0001:00075730       _addWhereTerm              10076730 f   interop.obj
 0001:000757b0       _sqlite3OpenTable          100767b0 f   interop.obj
 0001:00075880       _fkActionTrigger           10076880 f   interop.obj
 0001:00075e10       _fkLookupParent            10076e10 f   interop.obj
 0001:00076210       _compileoptionusedFunc     10077210 f   interop.obj
 0001:00076240       _total_changes             10077240 f   interop.obj
 0001:00076260       _changes                   10077260 f   interop.obj
 0001:00076280       _last_insert_rowid         10077280 f   interop.obj
 0001:000762d0       _sqlite3Savepoint          100772d0 f   interop.obj
 0001:00076360       _sqlite3EndTransaction     10077360 f   interop.obj
 0001:000763c0       _sqlite3BeginTransaction   100773c0 f   interop.obj
 0001:00076500       _reloadTableSchema         10077500 f   interop.obj
 0001:00076630       _sqlite3ExprCheckIN        10077630 f   interop.obj
 0001:00076690       _sqlite3ExprListAppendVector 10077690 f   interop.obj
 0001:000767b0       _sqlite3ExprFunction       100777b0 f   interop.obj
 0001:00076810       _sqlite3PExprAddSelect     10077810 f   interop.obj
 0001:00076850       _sqlite3BinaryCompareCollSeq 10077850 f   interop.obj
 0001:00076890       _sqlite3ExprNNCollSeq      10077890 f   interop.obj
 0001:000768b0       _vdbeSorterCompareTail     100778b0 f   interop.obj
 0001:00076970       _vdbeUnbind                10077970 f   interop.obj
 0001:00076c30       _vdbeRecordCompareString   10077c30 f   interop.obj
 0001:00076d90       _sqlite3VdbeRecordCompare  10077d90 f   interop.obj
 0001:00076db0       _valueFromFunction         10077db0 f   interop.obj
 0001:00077020       _checkPtrmap               10078020 f   interop.obj
 0001:000770a0       _pageFreeArray             100780a0 f   interop.obj
 0001:00077160       _pageInsertArray           10078160 f   interop.obj
 0001:00077240       _dropCell                  10078240 f   interop.obj
 0001:00077370       _freePage2                 10078370 f   interop.obj
 0001:00077620       _allocateBtreePage         10078620 f   interop.obj
 0001:00077c70       _getOverflowPage           10078c70 f   interop.obj
 0001:00077d60       _zeroPage                  10078d60 f   interop.obj
 0001:00077e30       _btreeInitPage             10078e30 f   interop.obj
 0001:000781a0       _allocateSpace             100791a0 f   interop.obj
 0001:000782d0       _ptrmapPutOvflPtr          100792d0 f   interop.obj
 0001:00078320       _walIndexRecover           10079320 f   interop.obj
 0001:000786b0       _pagerUndoCallback         100796b0 f   interop.obj
 0001:00078730       _winOpen                   10079730 f   interop.obj
 0001:00078a80       _winUnfetch                10079a80 f   interop.obj
 0001:00078aa0       _winMapfile                10079aa0 f   interop.obj
 0001:00078c10       _winShmPurge               10079c10 f   interop.obj
 0001:00078cf0       _winUnlock                 10079cf0 f   interop.obj
 0001:00078dc0       _winLock                   10079dc0 f   interop.obj
 0001:00078fb0       _winTruncate               10079fb0 f   interop.obj
 0001:00079090       _sqlite3MemSetDefault      1007a090 f   interop.obj
 0001:00079130       _sqlite3MallocInit         1007a130 f   interop.obj
 0001:000791d0       _sqlite3DefaultMutex       1007a1d0 f   interop.obj
 0001:000791e0       _sqlite3MutexInit          1007a1e0 f   interop.obj
 0001:00079320       _jsonWrongNumArgs          1007a320 f   interop.obj
 0001:00079360       _jsonPathSyntaxError       1007a360 f   interop.obj
 0001:00079380       _sqlite3Fts5GetTokenizer   1007a380 f   interop.obj
 0001:00079420       _fts5ApiCallback           1007a420 f   interop.obj
 0001:000794d0       _fts5SpecialMatch          1007a4d0 f   interop.obj
 0001:00079580       _fts5PrintfAppend          1007a580 f   interop.obj
 0001:000795d0       _sqlite3Fts5ParseSetDistance 1007a5d0 f   interop.obj
 0001:00079660       _sqlite3Fts5ParseNear      1007a660 f   interop.obj
 0001:00079690       _fts5ExprGetToken          1007a690 f   interop.obj
 0001:000798e8       $LN64                      1007a8e8     * CIL library *:* CIL module *
 0001:0007991c       $LN57                      1007a91c     * CIL library *:* CIL module *
 0001:000799a0       _fts5ConfigParseColumn     1007a9a0 f   interop.obj
 0001:00079a40       _fts5ConfigDefaultTokenizer 1007aa40 f   interop.obj
 0001:00079a60       _fts5HighlightAppend       1007aa60 f   interop.obj
 0001:00079ab0       _vtshimRollbackTo          1007aab0 f   interop.obj
 0001:00079b10       _vtshimRelease             1007ab10 f   interop.obj
 0001:00079b70       _vtshimSavepoint           1007ab70 f   interop.obj
 0001:00079bd0       _vtshimRename              1007abd0 f   interop.obj
 0001:00079c30       _vtshimFindFunction        1007ac30 f   interop.obj
 0001:00079c90       _vtshimRollback            1007ac90 f   interop.obj
 0001:00079cf0       _vtshimCommit              1007acf0 f   interop.obj
 0001:00079d50       _vtshimSync                1007ad50 f   interop.obj
 0001:00079db0       _vtshimBegin               1007adb0 f   interop.obj
 0001:00079e10       _vtshimUpdate              1007ae10 f   interop.obj
 0001:00079e70       _vtshimRowid               1007ae70 f   interop.obj
 0001:00079ed0       _vtshimColumn              1007aed0 f   interop.obj
 0001:00079f30       _vtshimEof                 1007af30 f   interop.obj
 0001:00079f80       _vtshimNext                1007af80 f   interop.obj
 0001:00079fe0       _vtshimFilter              1007afe0 f   interop.obj
 0001:0007a040       _vtshimClose               1007b040 f   interop.obj
 0001:0007a0b0       _vtshimBestIndex           1007b0b0 f   interop.obj
 0001:0007a5f0       _lastRowsFunc              1007b5f0 f   interop.obj
 0001:0007a640       _sqlite3StmtVtabInit       1007b640 f   interop.obj
 0001:0007a6a0       _stmtNext                  1007b6a0 f   interop.obj
 0001:0007a7e0       _sessionSelectFindNew      1007b7e0 f   interop.obj
 0001:0007a800       _sessionExprCompareOther   1007b800 f   interop.obj
 0001:0007a890       _sessionExprComparePK      1007b890 f   interop.obj
 0001:0007a900       _rtreeCheckAppendMsg       1007b900 f   interop.obj
 0001:0007a960       _rtreenode                 1007b960 f   interop.obj
 0001:0007ab50       _rtreeBestIndex            1007bb50 f   interop.obj
 0001:0007ad58       $LN44                      1007bd58     * CIL library *:* CIL module *
 0001:0007ad70       $LN40                      1007bd70     * CIL library *:* CIL module *
 0001:0007ad90       _fts3MatchinfoCheck        1007bd90 f   interop.obj
 0001:0007ae00       _fts3tokQueryTokenizer     1007be00 f   interop.obj
 0001:0007ae60       _fts3FunctionArg           1007be60 f   interop.obj
 0001:0007aed0       _fts3Appendf               1007bed0 f   interop.obj
 0001:0007af40       _fts3IsSpecialColumn       1007bf40 f   interop.obj
 0001:0007afa0       _sqlite3ParseUri           1007bfa0 f   interop.obj
 0001:0007b550       _sqlite3InvalidFunction    1007c550 f   interop.obj
 0001:0007b92c       $LN62                      1007c92c     * CIL library *:* CIL module *
 0001:0007ba00       _whereRangeVectorLen       1007ca00 f   interop.obj
 0001:0007bb40       _whereKeyStats             1007cb40 f   interop.obj
 0001:0007bcf0       _findIndexCol              1007ccf0 f   interop.obj
 0001:0007bd90       _sqlite3_get_table_cb      1007cd90 f   interop.obj
 0001:0007bf00       _selectAddSubqueryTypeInfo 1007cf00 f   interop.obj
 0001:0007bf70       _pushDownWhereTerms        1007cf70 f   interop.obj
 0001:0007c0c0       _multiSelectOrderByKeyInfo 1007d0c0 f   interop.obj
 0001:0007c190       _sqlite3ResultSetOfSelect  1007d190 f   interop.obj
 0001:0007c270       _keyInfoFromExprList       1007d270 f   interop.obj
 0001:0007c2f0       _sqliteProcessJoin         1007d2f0 f   interop.obj
 0001:0007c550       _sqlite3LoadExtension      1007d550 f   interop.obj
 0001:0007c960       _sqlite3OpenTableAndIndices 1007d960 f   interop.obj
 0001:0007cad0       _autoIncrementEnd          1007dad0 f   interop.obj
 0001:0007cbb0       _sqlite3AutoincrementBegin 1007dbb0 f   interop.obj
 0001:0007cc90       _sqlite3FkActions          1007dc90 f   interop.obj
 0001:0007cd20       _roundFunc                 1007dd20 f   interop.obj
 0001:0007cea0       _sqlite3ViewGetColumnNames 1007dea0 f   interop.obj
 0001:0007d050       _sqlite3AuthReadCol        1007e050 f   interop.obj
 0001:0007d120       _codeCompare               1007e120 f   interop.obj
 0001:0007d1b0       _sqlite3ExprCollSeqMatch   1007e1b0 f   interop.obj
 0001:0007d1f0       _sqlite3VdbeSorterCompare  1007e1f0 f   interop.obj
 0001:0007d2a0       _vdbeSorterCompareInt      1007e2a0 f   interop.obj
 0001:0007d3c0       _vdbeSorterCompareText     1007e3c0 f   interop.obj
 0001:0007d4f0       _vdbeSorterCompare         1007e4f0 f   interop.obj
 0001:0007d760       _bindText                  1007e760 f   interop.obj
 0001:0007d830       _vdbeRecordCompareInt      1007e830 f   interop.obj
 0001:0007da34       $LN154                     1007ea34     * CIL library *:* CIL module *
 0001:0007da60       _valueFromExpr             1007ea60 f   interop.obj
 0001:0007df20       _checkList                 1007ef20 f   interop.obj
 0001:0007e0e0       _editPage                  1007f0e0 f   interop.obj
 0001:0007e330       _insertCell                1007f330 f   interop.obj
 0001:0007e470       _fillInCell                1007f470 f   interop.obj
 0001:0007e710       _clearCell                 1007f710 f   interop.obj
 0001:0007e8b0       _freePage                  1007f8b0 f   interop.obj
 0001:0007e8d0       _accessPayload             1007f8d0 f   interop.obj
 0001:0007ec20       _modifyPagePointer         1007fc20 f   interop.obj
 0001:0007edc0       _setChildPtrmaps           1007fdc0 f   interop.obj
 0001:0007eea0       _newDatabase               1007fea0 f   interop.obj
 0001:0007ef40       _pageReinit                1007ff40 f   interop.obj
 0001:0007ef70       _getAndInitPage            1007ff70 f   interop.obj
 0001:0007f080       _walIndexReadHdr           10080080 f   interop.obj
 0001:0007f240       _pagerRollbackWal          10080240 f   interop.obj
 0001:0007f2b0       _sqlite3PCacheSetDefault   100802b0 f   interop.obj
 0001:0007f2d0       _sqlite3PcacheInitialize   100802d0 f   interop.obj
 0001:0007f3a0       _winFetch                  100803a0 f   interop.obj
 0001:0007f410       _winShmUnmap               10080410 f   interop.obj
 0001:0007f4c0       _winLockSharedMemory       100804c0 f   interop.obj
 0001:0007f570       _winFileControl            10080570 f   interop.obj
 0001:0007f794       $LN154                     10080794     * CIL library *:* CIL module *
 0001:0007f7c4       $LN146                     100807c4     * CIL library *:* CIL module *
 0001:0007f8d0       _sqlite3OsInit             100808d0 f   interop.obj
 0001:0007f900       _fts5FindFunctionMethod    10080900 f   interop.obj
 0001:0007f930       _fts5ExprPrintTcl          10080930 f   interop.obj
 0001:0007fb80       _fts5HighlightCb           10080b80 f   interop.obj
 0001:0007fe60       _stmtFilter                10080e60 f   interop.obj
 0001:0007fe90       _rtreeCheckCellCoord       10080e90 f   interop.obj
 0001:000800a0       _termIsEquivalence         100810a0 f   interop.obj
 0001:00080130       _resetAccumulator          10081130 f   interop.obj
 0001:000801f0       _sqlite3SelectAddTypeInfo  100811f0 f   interop.obj
 0001:00080220       _multiSelectOrderBy        10081220 f   interop.obj
 0001:00080b70       _sqlite3AutoincrementEnd   10081b70 f   interop.obj
 0001:00080b80       _sqlite3RegisterPerConnectionBuiltinFunctions 10081b80 f   interop.obj
 0001:00080bb0       _loadExt                   10081bb0 f   interop.obj
 0001:00080c60       _sqlite3AuthRead           10081c60 f   interop.obj
 0001:00080d30       _lookupName                10081d30 f   interop.obj
 0001:00081490       _vdbeSorterGetCompare      10082490 f   interop.obj
 0001:00081670       _sqlite3VdbeFindCompare    10082670 f   interop.obj
 0001:000816c0       _stat4ValueFromExpr        100826c0 f   interop.obj
 0001:00081820       _sqlite3ValueFromExpr      10082820 f   interop.obj
 0001:00081850       _checkTreePage             10082850 f   interop.obj
 0001:00081d50       _clearDatabasePage         10082d50 f   interop.obj
 0001:00081ef0       _copyNodeContent           10082ef0 f   interop.obj
 0001:00081fc0       _balance_quick             10082fc0 f   interop.obj
 0001:00082150       _moveToChild               10083150 f   interop.obj
 0001:000821e0       _sqlite3BtreePayload       100831e0 f   interop.obj
 0001:00082200       _relocatePage              10083200 f   interop.obj
 0001:00082310       _sqlite3BtreeNewDb         10083310 f   interop.obj
 0001:00082350       _saveCursorKey             10083350 f   interop.obj
 0001:00082440       _sqlite3WalCheckpoint      10083440 f   interop.obj
 0001:00082610       _walTryBeginRead           10083610 f   interop.obj
 0001:00082930       _sqlite3WalClose           10083930 f   interop.obj
 0001:00082a60       _sqlite3PagerCloseWal      10083a60 f   interop.obj
 0001:00082b40       _sqlite3PagerCheckpoint    10083b40 f   interop.obj
 0001:00082ba0       _pagerPlaybackSavepoint    10083ba0 f   interop.obj
 0001:00082e10       _fts5HighlightFunction     10083e10 f   interop.obj
 0001:00082f90       _sessionSelectBind         10083f90 f   interop.obj
 0001:00083128       $LN185                     10084128     * CIL library *:* CIL module *
 0001:00083140       _sqlite3ColumnDefault      10084140 f   interop.obj
 0001:000831d0       _sqlite3RegisterBuiltinFunctions 100841d0 f   interop.obj
 0001:00083210       _sqlite3AlterFinishAddColumn 10084210 f   interop.obj
 0001:00083510       _exprCompareVariable       10084510 f   interop.obj
 0001:000835e0       _sqlite3ExprCodeGetColumnOfTable 100845e0 f   interop.obj
 0001:000836d0       _sqlite3ExprCodeLoadIndexColumn 100846d0 f   interop.obj
 0001:00083730       _resolveExprStep           10084730 f   interop.obj
 0001:00083b90       $LN262                     10084b90     * CIL library *:* CIL module *
 0001:00083bac       $LN256                     10084bac     * CIL library *:* CIL module *
 0001:00083c30       _vdbeSorterSetupMerge      10084c30 f   interop.obj
 0001:00083e00       _vdbeSorterSort            10084e00 f   interop.obj
 0001:00084264       $LN274                     10085264     * CIL library *:* CIL module *
 0001:00084280       _sqlite3Stat4ValueFromExpr 10085280 f   interop.obj
 0001:000842a0       _sqlite3Stat4ProbeSetValue 100852a0 f   interop.obj
 0001:00084390       _vdbeMemFromBtreeResize    10085390 f   interop.obj
 0001:00084430       _sqlite3BtreeCheckpoint    10085430 f   interop.obj
 0001:00084490       _sqlite3BtreeIntegrityCheck 10085490 f   interop.obj
 0001:000847c0       _balance_deeper            100857c0 f   interop.obj
 0001:000848d0       _balance_nonroot           100858d0 f   interop.obj
 0001:00085be0       _moveToRightmost           10086be0 f   interop.obj
 0001:00085c30       _moveToLeftmost            10086c30 f   interop.obj
 0001:00085c80       _moveToRoot                10086c80 f   interop.obj
 0001:00085df0       _incrVacuumStep            10086df0 f   interop.obj
 0001:00085fa0       _saveCursorPosition        10086fa0 f   interop.obj
 0001:00085fe0       _walRestartLog             10086fe0 f   interop.obj
 0001:000860a0       _sqlite3WalBeginReadTransaction 100870a0 f   interop.obj
 0001:000860d0       _sqlite3PagerSavepoint     100870d0 f   interop.obj
 0001:000861b0       _sqlite3PagerRollback      100871b0 f   interop.obj
 0001:00086290       _pagerBeginReadTransaction 10087290 f   interop.obj
 0001:00086320       _pagerUnlockAndRollback    10087320 f   interop.obj
 0001:00086380       _sessionBindValue          10087380 f   interop.obj
 0001:000863c0       _sessionPreupdateOld       100873c0 f   interop.obj
 0001:000863d0       _sqlite3Checkpoint         100873d0 f   interop.obj
 0001:00086840       _whereEqualScanEst         10087840 f   interop.obj
 0001:000868e0       _whereRangeSkipScanEst     100878e0 f   interop.obj
 0001:00086c00       _sqlite3GenerateIndexKey   10087c00 f   interop.obj
 0001:00086d80       _sqlite3GenerateRowIndexDelete 10087d80 f   interop.obj
 0001:00086e60       _sqlite3RefillIndex        10087e60 f   interop.obj
 0001:000871e0       _analyzeOneTable           100881e0 f   interop.obj
 0001:00087bb0       _sqlite3ExprCompare        10088bb0 f   interop.obj
 0001:00087dd0       _sqlite3ExprCodeAtInit     10088dd0 f   interop.obj
 0001:00087e90       _sqlite3ExprCodeGetColumn  10088e90 f   interop.obj
 0001:00087f70       _exprNodeIsConstantOrGroupBy 10088f70 f   interop.obj
 0001:00088020       _sqlite3ResolveExprNames   10089020 f   interop.obj
 0001:000880f0       _resolveOrderGroupBy       100890f0 f   interop.obj
 0001:00088270       _resolveOrderByTermToExprList 10089270 f   interop.obj
 0001:00088310       _vdbeSorterListToPMA       10089310 f   interop.obj
 0001:000884f0       _sqlite3VdbeMemFromBtree   100894f0 f   interop.obj
 0001:00088550       _sqlite3BtreeCount         10089550 f   interop.obj
 0001:00088640       _balance                   10089640 f   interop.obj
 0001:000887b0       _btreeNext                 100897b0 f   interop.obj
 0001:00088870       _sqlite3BtreeLast          10089870 f   interop.obj
 0001:000888c0       _sqlite3BtreeFirst         100898c0 f   interop.obj
 0001:000888f0       _sqlite3BtreeTripAllCursors 100898f0 f   interop.obj
 0001:00088990       _saveCursorsOnList         10089990 f   interop.obj
 0001:000889e0       _saveAllCursors            100899e0 f   interop.obj
 0001:00088a20       _pagerUnlockIfUnused       10089a20 f   interop.obj
 0001:00088f50       _re_resize                 10089f50 f   interop.obj
 0001:00088fd0       _sqlite3re_match           10089fd0 f   interop.obj
 0001:000894e4       $LN286                     1008a4e4     * CIL library *:* CIL module *
 0001:00089530       _percentStep               1008a530 f   interop.obj
 0001:00089730       _jsonEachOpenEach          1008a730 f   interop.obj
 0001:00089770       _jsonParseFindParents      1008a770 f   interop.obj
 0001:000897b0       _jsonParseAddNodeExpand    1008a7b0 f   interop.obj
 0001:00089830       _jsonReturn                1008a830 f   interop.obj
 0001:00089c2c       $LN355                     1008ac2c     * CIL library *:* CIL module *
 0001:00089c50       _fts5PorterCreate          1008ac50 f   interop.obj
 0001:00089d30       _fts5UnicodeTokenize       1008ad30 f   interop.obj
 0001:0008a090       _fts5UnicodeAddExceptions  1008b090 f   interop.obj
 0001:0008a220       _fts5AsciiTokenize         1008b220 f   interop.obj
 0001:0008a3c0       _fts5AsciiCreate           1008b3c0 f   interop.obj
 0001:0008a4c0       _fts5CreateTokenizer       1008b4c0 f   interop.obj
 0001:0008a550       _fts5CreateAux             1008b550 f   interop.obj
 0001:0008a5f0       _fts5WriteDlidxGrow        1008b5f0 f   interop.obj
 0001:0008a690       _fts5SegIterReverseInitPage 1008b690 f   interop.obj
 0001:0008a7f0       _fts5StructureExtendLevel  1008b7f0 f   interop.obj
 0001:0008a8b0       _fts5StructureAddLevel     1008b8b0 f   interop.obj
 0001:0008a930       _fts5HashEntrySort         1008b930 f   interop.obj
 0001:0008aa90       _fts5HashResize            1008ba90 f   interop.obj
 0001:0008ab90       _sqlite3Fts5HashNew        1008bb90 f   interop.obj
 0001:0008ac10       _sqlite3Fts5ExprClearPoslists 1008bc10 f   interop.obj
 0001:0008acc0       _fts5ExprTermPrint         1008bcc0 f   interop.obj
 0001:0008ad70       _fts5ParseColset           1008bd70 f   interop.obj
 0001:0008ae20       _fts5ParseAlloc            1008be20 f   interop.obj
 0001:0008ae30       _fts5ConfigGobbleWord      1008be30 f   interop.obj
 0001:0008af10       _sqlite3Fts5Strndup        1008bf10 f   interop.obj
 0001:0008af80       _sqlite3Fts5MallocZero     1008bf80 f   interop.obj
 0001:0008afd0       _sqlite3Fts5BufferSize     1008bfd0 f   interop.obj
 0001:0008b050       _fts5Bm25GetData           1008c050 f   interop.obj
 0001:0008b220       _fts5SentenceFinderAdd     1008c220 f   interop.obj
 0001:0008b2a0       _vtshimCopyModule          1008c2a0 f   interop.obj
 0001:0008b2e0       _vtshimOpen                1008c2e0 f   interop.obj
 0001:0008b3a0       _vtshimConnect             1008c3a0 f   interop.obj
 0001:0008b460       _vtshimCreate              1008c460 f   interop.obj
 0001:0008b520       _CreateCryptBlock          1008c520 f   interop.obj
 0001:0008b5e0       _InitializeProvider        1008c5e0 f   interop.obj
 0001:0008b660       _reverseFunc               1008c660 f   interop.obj
 0001:0008b770       _rightFunc                 1008c770 f   interop.obj
 0001:0008b8b0       _leftFunc                  1008c8b0 f   interop.obj
 0001:0008b9e0       _strfilterFunc             1008c9e0 f   interop.obj
 0001:0008bb60       _replicateFunc             1008cb60 f   interop.obj
 0001:0008bd10       _sqlite3StrDup             1008cd10 f   interop.obj
 0001:0008bd40       _stmtOpen                  1008cd40 f   interop.obj
 0001:0008be00       _sessionChangeMerge        1008ce00 f   interop.obj
 0001:0008c1e0       _sessionBindRow            1008d1e0 f   interop.obj
 0001:0008c2a0       _sessionValueSetStr        1008d2a0 f   interop.obj
 0001:0008c300       _sessionChangesetStart     1008d300 f   interop.obj
 0001:0008c360       _sessionBufferGrow         1008d360 f   interop.obj
 0001:0008c4e0       _sessionPreupdateHooks     1008d4e0 f   interop.obj
 0001:0008c510       _sessionFindTable          1008d510 f   interop.obj
 0001:0008c5c0       _sessionGrowHash           1008d5c0 f   interop.obj
 0001:0008c6b0       _splitNodeStartree         1008d6b0 f   interop.obj
 0001:0008cb00       _rtreeOpen                 1008db00 f   interop.obj
 0001:0008cb50       _nodeNew                   1008db50 f   interop.obj
 0001:0008cbb0       _unicodeNext               1008dbb0 f   interop.obj
 0001:0008ce90       _unicodeOpen               1008de90 f   interop.obj
 0001:0008cf10       _unicodeAddExceptions      1008df10 f   interop.obj
 0001:0008d100       _fts3StringAppend          1008e100 f   interop.obj
 0001:0008d1b0       _fts3MIBufferAlloc         1008e1b0 f   interop.obj
 0001:0008d250       _fts3MIBufferNew           1008e250 f   interop.obj
 0001:0008d2e0       _sqlite3Fts3DeferToken     1008e2e0 f   interop.obj
 0001:0008d330       _sqlite3Fts3DeferredTokenList 1008e330 f   interop.obj
 0001:0008d3b0       _blobGrowBuffer            1008e3b0 f   interop.obj
 0001:0008d410       _fts3MsrBufferData         1008e410 f   interop.obj
 0001:0008d490       _fts3NodeAddTerm           1008e490 f   interop.obj
 0001:0008d760       _sqlite3Fts3SegReaderPending 1008e760 f   interop.obj
 0001:0008d980       _sqlite3Fts3SegReaderNew   1008e980 f   interop.obj
 0001:0008da60       _fts3PendingListAppendVarint 1008ea60 f   interop.obj
 0001:0008db20       _fts3tokFilterMethod       1008eb20 f   interop.obj
 0001:0008dbc0       _fts3tokOpenMethod         1008ebc0 f   interop.obj
 0001:0008dc00       _fts3tokDequoteArray       1008ec00 f   interop.obj
 0001:0008dcc0       _simpleNext                1008ecc0 f   interop.obj
 0001:0008de00       _simpleOpen                1008ee00 f   interop.obj
 0001:0008de70       _simpleCreate              1008ee70 f   interop.obj
 0001:0008df50       _sqlite3Fts3InitTokenizer  1008ef50 f   interop.obj
 0001:0008e110       _porterNext                1008f110 f   interop.obj
 0001:0008e230       _porterOpen                1008f230 f   interop.obj
 0001:0008e2a0       _porterCreate              1008f2a0 f   interop.obj
 0001:0008e2d0       _fts3HashMalloc            1008f2d0 f   interop.obj
 0001:0008e300       _fts3ReallocOrFree         1008f300 f   interop.obj
 0001:0008e360       _fts3MallocZero            1008f360 f   interop.obj
 0001:0008e390       _fts3auxGrowStatArray      1008f390 f   interop.obj
 0001:0008e410       _fts3auxOpenMethod         1008f410 f   interop.obj
 0001:0008e450       _fts3EvalNearTest          1008f450 f   interop.obj
 0001:0008e590       _fts3EvalDeferredPhrase    1008f590 f   interop.obj
 0001:0008e760       _fts3DoclistPhraseMerge    1008f760 f   interop.obj
 0001:0008ea50       _fts3DoclistOrMerge        1008fa50 f   interop.obj
 0001:0008edc0       _fts3ScanInteriorNode      1008fdc0 f   interop.obj
 0001:0008f020       _fts3OpenMethod            10090020 f   interop.obj
 0001:0008f050       _fts3PrefixParameter       10090050 f   interop.obj
 0001:0008f120       _fts3QuoteId               10090120 f   interop.obj
 0001:0008f190       _sqlite3WalDefaultHook     10090190 f   interop.obj
 0001:0008f290       _whereInScanEst            10090290 f   interop.obj
 0001:0008f340       _whereRangeScanEst         10090340 f   interop.obj
 0001:0008f630       _constructAutomaticIndex   10090630 f   interop.obj
 0001:0008fd50       _whereCombineDisjuncts     10090d50 f   interop.obj
 0001:0008fe60       _whereIndexExprTransNode   10090e60 f   interop.obj
 0001:0008feb0       _isSelfJoinView            10090eb0 f   interop.obj
 0001:0008ff40       _pragmaVtabOpen            10090f40 f   interop.obj
 0001:0008ff80       _xferCompatibleIndex       10090f80 f   interop.obj
 0001:00090070       _resolveAttachExpr         10091070 f   interop.obj
 0001:00090090       _analyzeAggregate          10091090 f   interop.obj
 0001:00090310       _sqlite3ExprImpliesExpr    10091310 f   interop.obj
 0001:000903b0       _sqlite3ExprCompareSkip    100913b0 f   interop.obj
 0001:000903e0       _sqlite3ExprCodeExprList   100913e0 f   interop.obj
 0001:00090540       _sqlite3ExprCodeFactorable 10091540 f   interop.obj
 0001:00090590       _sqlite3ExprCodeTemp       10091590 f   interop.obj
 0001:00090620       _sqlite3ExprCodeGetColumnToReg 10091620 f   interop.obj
 0001:00090660       _sqlite3ExprIsConstantOrGroupBy 10091660 f   interop.obj
 0001:000906a0       _exprVectorRegister        100916a0 f   interop.obj
 0001:00090710       _sqlite3ResolveExprListNames 10091710 f   interop.obj
 0001:00090760       _resolveCompoundOrderBy    10091760 f   interop.obj
 0001:00090a30       _memjrnlWrite              10091a30 f   interop.obj
 0001:00090b40       _vdbeSorterFlushThread     10091b40 f   interop.obj
 0001:00090bf0       _sqlite3VdbeIdxKeyCompare  10091bf0 f   interop.obj
 0001:00090cb0       _sqlite3VdbeIdxRowid       10091cb0 f   interop.obj
 0001:00090df0       _sqlite3BtreeClearTable    10091df0 f   interop.obj
 0001:00090e60       _btreeCreateTable          10091e60 f   interop.obj
 0001:00091100       _sqlite3BtreeNext          10092100 f   interop.obj
 0001:00091150       _sqlite3BtreeMovetoUnpacked 10092150 f   interop.obj
 0001:00091610       _sqlite3BtreeSavepoint     10092610 f   interop.obj
 0001:000916c0       _autoVacuumCommit          100926c0 f   interop.obj
 0001:00091830       _sqlite3BtreeIncrVacuum    10092830 f   interop.obj
 0001:00091920       _btreeMoveto               10092920 f   interop.obj
 0001:000919c0       _walRewriteChecksums       100929c0 f   interop.obj
 0001:00091b10       _sqlite3PagerUnrefPageOne  10092b10 f   interop.obj
 0001:00091b30       _getPageNormal             10092b30 f   interop.obj
 0001:00091e90       _winOpenSharedMemory       10092e90 f   interop.obj
 0001:00092140       _re_copy                   10093140 f   interop.obj
 0001:000921b0       _re_insert                 100931b0 f   interop.obj
 0001:00092250       _jsonEachColumn            10093250 f   interop.obj
 0001:00092660       $LN265                     10093660     * CIL library *:* CIL module *
 0001:00092690       _jsonEachOpenTree          10093690 f   interop.obj
 0001:000926d0       _jsonParseAddNode          100936d0 f   interop.obj
 0001:00092720       _fts5VocabTableType        10093720 f   interop.obj
 0001:00092810       _fts5UnicodeCreate         10093810 f   interop.obj
 0001:00092980       _fts5ApiSetAuxdata         10093980 f   interop.obj
 0001:00092a10       _fts5MergeRowidLists       10093a10 f   interop.obj
 0001:00092c60       _fts5AppendPoslist         10093c60 f   interop.obj
 0001:00092ce0       _fts5IndexOptimizeStruct   10093ce0 f   interop.obj
 0001:00092eb0       _fts5StructurePromoteTo    10093eb0 f   interop.obj
 0001:00092f90       _fts5StructureDecode       10093f90 f   interop.obj
 0001:00093180       _fts5IdxMalloc             10094180 f   interop.obj
 0001:000931d0       _sqlite3Fts5HashScanInit   100941d0 f   interop.obj
 0001:000931f0       _sqlite3Fts5HashWrite      100941f0 f   interop.obj
 0001:000935b0       _fts5ExprPrint             100945b0 f   interop.obj
 0001:00093800       _fts5CloneColset           10094800 f   interop.obj
 0001:00093880       _sqlite3Fts5ParseColset    10094880 f   interop.obj
 0001:00093950       _sqlite3Fts5ParseColsetInvert 10094950 f   interop.obj
 0001:00093a00       _fts5ParseTokenize         10094a00 f   interop.obj
 0001:00093b70       _fts5ParseStringFromToken  10094b70 f   interop.obj
 0001:00093ba0       _sqlite3Fts5ConfigParseRank 10094ba0 f   interop.obj
 0001:00093d30       _fts5ConfigParseSpecial    10094d30 f   interop.obj
 0001:00094250       _sqlite3Fts5TermsetAdd     10095250 f   interop.obj
 0001:00094390       _sqlite3Fts5TermsetNew     10095390 f   interop.obj
 0001:000943d0       _sqlite3Fts5PoslistWriterAppend 100953d0 f   interop.obj
 0001:00094430       _sqlite3Fts5BufferAppendBlob 10095430 f   interop.obj
 0001:00094470       _sqlite3Fts5BufferAppendVarint 10095470 f   interop.obj
 0001:000944b0       _fts5Bm25Function          100954b0 f   interop.obj
 0001:00094660       _fts5SentenceFinderCb      10095660 f   interop.obj
 0001:00094a30       _DeriveKey                 10095a30 f   interop.obj
 0001:00094b30       _padcFunc                  10095b30 f   interop.obj
 0001:00094d80       _padrFunc                  10095d80 f   interop.obj
 0001:00094f70       _padlFunc                  10095f70 f   interop.obj
 0001:00095150       _properFunc                10096150 f   interop.obj
 0001:00095260       _sessionAppendPartialUpdate 10096260 f   interop.obj
 0001:000953d0       _sessionAppendRecordMerge  100963d0 f   interop.obj
 0001:00095480       _sessionInputBuffer        10096480 f   interop.obj
 0001:000955f0       _sessionAppendIdent        100965f0 f   interop.obj
 0001:00095660       _sessionAppendStr          10096660 f   interop.obj
 0001:000956c0       _sessionAppendBlob         100966c0 f   interop.obj
 0001:00095700       _sessionAppendVarint       10096700 f   interop.obj
 0001:00095740       _sessionAppendByte         10096740 f   interop.obj
 0001:00095750       _sessionAppendValue        10096750 f   interop.obj
 0001:000957c0       _geomCallback              100967c0 f   interop.obj
 0001:000958c0       _unicodeCreate             100968c0 f   interop.obj
 0001:00095a90       _fts3SnippetText           10096a90 f   interop.obj
 0001:00095d60       _fts3IncrmergeHintPush     10096d60 f   interop.obj
 0001:00095db0       _fts3AppendToNode          10096db0 f   interop.obj
 0001:00095eb0       _nodeReaderNext            10096eb0 f   interop.obj
 0001:00095fe0       _fts3PendingListAppend     10096fe0 f   interop.obj
 0001:00096130       _fts3Rehash                10097130 f   interop.obj
 0001:000961f0       _getNextString             100971f0 f   interop.obj
 0001:00096450       _getNextToken              10097450 f   interop.obj
 0001:00096610       _fts3EvalTestExpr          10097610 f   interop.obj
 0001:00096820       $LN205                     10097820     * CIL library *:* CIL module *
 0001:00096830       _fts3EvalPhraseMergeToken  10097830 f   interop.obj
 0001:00096900       _fts3TermSelectMerge       10097900 f   interop.obj
 0001:00096a00       _fts3TermSelectFinishMerge 10097a00 f   interop.obj
 0001:00096aa0       _fts3WriteExprList         10097aa0 f   interop.obj
 0001:00096b40       _fts3ReadExprList          10097b40 f   interop.obj
 0001:00096d00       _whereUsablePartialIndex   10097d00 f   interop.obj
 0001:00096db0       _indexMightHelpWithOrderBy 10097db0 f   interop.obj
 0001:00096eb0       _whereScanNext             10097eb0 f   interop.obj
 0001:000970e0       _exprMightBeIndexed2       100980e0 f   interop.obj
 0001:000971b0       _exprAnalyzeOrTerm         100981b0 f   interop.obj
 0001:00097920       _whereIndexExprTrans       10098920 f   interop.obj
 0001:000979c0       _sqlite3UpsertAnalyzeTarget 100989c0 f   interop.obj
 0001:00097bf0       _havingToWhereExprCb       10098bf0 f   interop.obj
 0001:00097cb0       _updateAccumulator         10098cb0 f   interop.obj
 0001:00097f20       _innerLoopLoadRow          10098f20 f   interop.obj
 0001:00097f40       _sqlite3ExprAnalyzeAggregates 10098f40 f   interop.obj
 0001:00097f80       _sqlite3ResolveSelfReference 10098f80 f   interop.obj
 0001:00098040       _resolveSelectStep         10099040 f   interop.obj
 0001:00098490       _vdbeSorterFlushPMA        10099490 f   interop.obj
 0001:000985f0       _handleDeferredMoveto      100995f0 f   interop.obj
 0001:00098660       _vdbeCloseStatement        10099660 f   interop.obj
 0001:00098770       _btreeDropTable            10099770 f   interop.obj
 0001:00098930       _sqlite3BtreeClearTableOfCursor 10099930 f   interop.obj
 0001:00098950       _sqlite3BtreeCreateTable   10099950 f   interop.obj
 0001:00098990       _sqlite3BtreeInsert        10099990 f   interop.obj
 0001:00098d50       _releasePageOne            10099d50 f   interop.obj
 0001:00098d60       _btreeRestoreCursorPosition 10099d60 f   interop.obj
 0001:00098dd0       _sqlite3WalFrames          10099dd0 f   interop.obj
 0001:000992a0       _getPageMMap               1009a2a0 f   interop.obj
 0001:00099460       _pagerWalFrames            1009a460 f   interop.obj
 0001:00099500       _setGetterMethod           1009a500 f   interop.obj
 0001:00099540       _winShmMap                 1009a540 f   interop.obj
 0001:000997b0       _re_append                 1009a7b0 f   interop.obj
 0001:000997d0       _jsonMergePatch            1009a7d0 f   interop.obj
 0001:00099a00       _jsonLookupAppend          1009aa00 f   interop.obj
 0001:00099aa0       _jsonLookupStep            1009aaa0 f   interop.obj
 0001:00099de0       _jsonParseValue            1009ade0 f   interop.obj
 0001:0009a2e0       _sqlite3Fts5TokenizerInit  1009b2e0 f   interop.obj
 0001:0009a380       _fts5StorageIntegrityCallback 1009b380 f   interop.obj
 0001:0009a4e0       _fts5CursorParseRank       1009b4e0 f   interop.obj
 0001:0009a5b0       _sqlite3Fts5IndexWrite     1009b5b0 f   interop.obj
 0001:0009a650       _fts5AppendRowid           1009b650 f   interop.obj
 0001:0009a680       _fts5WriteBtreeNoTerm      1009b680 f   interop.obj
 0001:0009a6b0       _fts5IndexExtractColset    1009b6b0 f   interop.obj
 0001:0009a750       _fts5MultiIterAlloc        1009b750 f   interop.obj
 0001:0009a7a0       _fts5StructurePromote      1009b7a0 f   interop.obj
 0001:0009a870       _fts5ExprPopulatePoslistsCb 1009b870 f   interop.obj
 0001:0009a9a0       _fts5ParseSetColset        1009b9a0 f   interop.obj
 0001:0009aa60       _fts5ExprNearIsMatch       1009ba60 f   interop.obj
 0001:0009adb0       _fts5ExprSynonymList       1009bdb0 f   interop.obj
 0001:0009b000       _sqlite3Fts5ConfigSetValue 1009c000 f   interop.obj
 0001:0009b1f0       _sqlite3Fts5BufferSet      1009c1f0 f   interop.obj
 0001:0009b230       _sqlite3Fts5BufferAppendString 1009c230 f   interop.obj
 0001:0009b290       _fts5SnippetFunction       1009c290 f   interop.obj
 0001:0009b960       _sessionRebaseAdd          1009c960 f   interop.obj
 0001:0009bb90       _sessionInsertRow          1009cb90 f   interop.obj
 0001:0009bcc0       _sessionChangesetBufferRecord 1009ccc0 f   interop.obj
 0001:0009bd70       _sessionChangesetBufferTblhdr 1009cd70 f   interop.obj
 0001:0009be70       _sessionReadRecord         1009ce70 f   interop.obj
 0001:0009c090       _sessionAppendTableHdr     1009d090 f   interop.obj
 0001:0009c190       _sessionAppendDelete       1009d190 f   interop.obj
 0001:0009c2f0       $LN246                     1009d2f0     * CIL library *:* CIL module *
 0001:0009c310       _sessionAppendCol          1009d310 f   interop.obj
 0001:0009c530       _sessionAppendInteger      1009d530 f   interop.obj
 0001:0009c640       _sqlite3Fts3UnicodeTokenizer 1009d640 f   interop.obj
 0001:0009c650       _sqlite3Fts3CacheDeferredDoclists 1009d650 f   interop.obj
 0001:0009c8f0       _nodeReaderInit            1009d8f0 f   interop.obj
 0001:0009c950       _sqlite3Fts3HashInsert     1009d950 f   interop.obj
 0001:0009cac0       _getNextNode               1009dac0 f   interop.obj
 0001:0009cd30       _whereScanInit             1009dd30 f   interop.obj
 0001:0009cde0       _exprMightBeIndexed        1009dde0 f   interop.obj
 0001:0009ce60       _havingToWhere             1009de60 f   interop.obj
 0001:0009cea0       _makeSorterRecord          1009dea0 f   interop.obj
 0001:0009cf00       _sqlite3ExprAnalyzeAggList 1009df00 f   interop.obj
 0001:0009cf60       _sqlite3ResolveSelectNames 1009df60 f   interop.obj
 0001:0009cf90       _sqlite3VdbeSorterRewind   1009df90 f   interop.obj
 0001:0009cff0       _sqlite3VdbeSorterWrite    1009dff0 f   interop.obj
 0001:0009d200       _sqlite3VdbeCloseStatement 1009e200 f   interop.obj
 0001:0009d220       _sqlite3BtreePutData       1009e220 f   interop.obj
 0001:0009d290       _sqlite3BtreeDropTable     1009e290 f   interop.obj
 0001:0009d2d0       _btreePrevious             1009e2d0 f   interop.obj
 0001:0009d3a0       _accessPayloadChecked      1009e3a0 f   interop.obj
 0001:0009d3e0       _unlockBtreeIfUnused       1009e3e0 f   interop.obj
 0001:0009d400       _sqlite3BtreeCursorRestore 1009e400 f   interop.obj
 0001:0009d430       _sqlite3PagerSetCodec      1009e430 f   interop.obj
 0001:0009d4b0       _sqlite3PagerCommitPhaseOne 1009e4b0 f   interop.obj
 0001:0009d730       _pager_error               1009e730 f   interop.obj
 0001:0009d750       _re_subcompile_string      1009e750 f   interop.obj
 0001:0009dc04       $LN248                     1009ec04     * CIL library *:* CIL module *
 0001:0009dc2c       $LN240                     1009ec2c     * CIL library *:* CIL module *
 0001:0009dc88       $LN249                     1009ec88     * CIL library *:* CIL module *
 0001:0009dca8       $LN241                     1009eca8     * CIL library *:* CIL module *
 0001:0009dce0       _re_subcompile_re          1009ece0 f   interop.obj
 0001:0009dd60       _jsonLookup                1009ed60 f   interop.obj
 0001:0009ddf0       _jsonParse                 1009edf0 f   interop.obj
 0001:0009dec0       _fts5VocabInstanceNewTerm  1009eec0 f   interop.obj
 0001:0009df90       _fts5StorageInsertCallback 1009ef90 f   interop.obj
 0001:0009dfd0       _fts5IntegrityCheckPgidx   1009efd0 f   interop.obj
 0001:0009e140       _fts5MergePrefixLists      1009f140 f   interop.obj
 0001:0009e760       _sqlite3Fts5ExprPhraseCollist 1009f760 f   interop.obj
 0001:0009e7f0       _sqlite3Fts5ExprPopulatePoslists 1009f7f0 f   interop.obj
 0001:0009e8c0       _sqlite3Fts5ParseSetColset 1009f8c0 f   interop.obj
 0001:0009e920       _fts5ExprPhraseIsMatch     1009f920 f   interop.obj
 0001:0009ec50       _sqlite3Fts5BufferAppendPrintf 1009fc50 f   interop.obj
 0001:0009eca0       _sqlite3Fts5AuxInit        1009fca0 f   interop.obj
 0001:0009ee40       _sessionChangegroupOutput  1009fe40 f   interop.obj
 0001:0009efe0       _sessionUpdateRow          1009ffe0 f   interop.obj
 0001:0009f370       _sessionDeleteRow          100a0370 f   interop.obj
 0001:0009f5a0       _sessionChangesetInvert    100a05a0 f   interop.obj
 0001:0009fa90       $LN366                     100a0a90     * CIL library *:* CIL module *
 0001:0009faa0       $LN357                     100a0aa0     * CIL library *:* CIL module *
 0001:0009faf0       _sessionChangesetReadTblhdr 100a0af0 f   interop.obj
 0001:0009fbe0       _sessionSelectStmt         100a0be0 f   interop.obj
 0001:0009fd90       _sessionAppendUpdate       100a0d90 f   interop.obj
 0001:000a01d0       _fts3TruncateNode          100a11d0 f   interop.obj
 0001:000a03b0       _fts3PendingTermsAddOne    100a13b0 f   interop.obj
 0001:000a0470       _fts3TokenizerFunc         100a1470 f   interop.obj
 0001:000a0600       _whereLoopAddBtreeIndex    100a1600 f   interop.obj
 0001:000a0e30       _sqlite3WhereFindTerm      100a1e30 f   interop.obj
 0001:000a0eb0       _exprAnalyze               100a1eb0 f   interop.obj
 0001:000a1a80       _pushOntoSorter            100a2a80 f   interop.obj
 0001:000a1e80       _handleMovedCursor         100a2e80 f   interop.obj
 0001:000a1eb0       _sqlite3BtreePrevious      100a2eb0 f   interop.obj
 0001:000a1ef0       _sqlite3BtreePayloadChecked 100a2ef0 f   interop.obj
 0001:000a1f20       _sqlite3BtreeCloseCursor   100a2f20 f   interop.obj
 0001:000a1fa0       _btreeEndTransaction       100a2fa0 f   interop.obj
 0001:000a2000       _sqlite3BtreeCommitPhaseOne 100a3000 f   interop.obj
 0001:000a2090       _sqlite3PagerCommitPhaseTwo 100a3090 f   interop.obj
 0001:000a20f0       _sqlite3PagerSharedLock    100a30f0 f   interop.obj
 0001:000a23e0       _pagerStress               100a33e0 f   interop.obj
 0001:000a24b0       _sqlite3PagerClose         100a34b0 f   interop.obj
 0001:000a27f0       _jsonEachFilter            100a37f0 f   interop.obj
 0001:000a2a60       _jsonValidFunc             100a3a60 f   interop.obj
 0001:000a2ab0       _jsonTypeFunc              100a3ab0 f   interop.obj
 0001:000a2b50       _jsonSetFunc               100a3b50 f   interop.obj
 0001:000a2c80       _jsonReplaceFunc           100a3c80 f   interop.obj
 0001:000a2d50       _jsonRemoveFunc            100a3d50 f   interop.obj
 0001:000a2df0       _jsonPatchFunc             100a3df0 f   interop.obj
 0001:000a2e80       _jsonParseCached           100a3e80 f   interop.obj
 0001:000a3010       _fts5PoslistBlob           100a4010 f   interop.obj
 0001:000a3230       _fts5DecodeRowidList       100a4230 f   interop.obj
 0001:000a32d0       _fts5DecodePoslist         100a42d0 f   interop.obj
 0001:000a3320       _fts5DecodeAverages        100a4320 f   interop.obj
 0001:000a3380       _fts5DebugStructure        100a4380 f   interop.obj
 0001:000a3420       _fts5DebugRowid            100a4420 f   interop.obj
 0001:000a34d0       _fts5ExprNearTest          100a44d0 f   interop.obj
 0001:000a35e0       _fts5ConfigMakeExprlist    100a45e0 f   interop.obj
 0001:000a36d0       _sessionSelectRow          100a46d0 f   interop.obj
 0001:000a3790       _sessionChangesetNext      100a4790 f   interop.obj
 0001:000a3a80       _fts3PendingTermsAdd       100a4a80 f   interop.obj
 0001:000a3be0       _sqlite3Fts3InitHashTable  100a4be0 f   interop.obj
 0001:000a3c30       _whereShortCut             100a4c30 f   interop.obj
 0001:000a3e00       _wherePathSatisfiesOrderBy 100a4e00 f   interop.obj
 0001:000a44e0       _whereLoopAddBtree         100a54e0 f   interop.obj
 0001:000a49f0       _isDistinctRedundant       100a59f0 f   interop.obj
 0001:000a4af0       _sqlite3WhereExprAnalyze   100a5af0 f   interop.obj
 0001:000a4b20       _selectInnerLoop           100a5b20 f   interop.obj
 0001:000a5384       $LN360                     100a6384     * CIL library *:* CIL module *
 0001:000a53c0       _sqlite3VdbeCursorMoveto   100a63c0 f   interop.obj
 0001:000a5410       _sqlite3VdbeCursorRestore  100a6410 f   interop.obj
 0001:000a5430       _resolveP2Values           100a6430 f   interop.obj
 0001:000a554c       $LN56                      100a654c     * CIL library *:* CIL module *
 0001:000a5580       _sqlite3BtreeDelete        100a6580 f   interop.obj
 0001:000a5890       _sqlite3BtreeRollback      100a6890 f   interop.obj
 0001:000a5960       _sqlite3BtreeCommitPhaseTwo 100a6960 f   interop.obj
 0001:000a59f0       _lockBtree                 100a69f0 f   interop.obj
 0001:000a5c90       _sqlite3BtreeClose         100a6c90 f   interop.obj
 0001:000a5d50       _sqlite3PagerSetJournalMode 100a6d50 f   interop.obj
 0001:000a5e60       _sqlite3PagerOpen          100a6e60 f   interop.obj
 0001:000a6350       _sqlite3PagerFlush         100a7350 f   interop.obj
 0001:000a63c0       _re_sql_func               100a73c0 f   interop.obj
 0001:000a64f0       _jsonExtractFunc           100a74f0 f   interop.obj
 0001:000a6650       _jsonArrayLengthFunc       100a7650 f   interop.obj
 0001:000a6730       _fts5DecodeDoclist         100a7730 f   interop.obj
 0001:000a6870       _fts5DecodeStructure       100a7870 f   interop.obj
 0001:000a68c0       _sqlite3Fts5ConfigParse    100a78c0 f   interop.obj
 0001:000a6cf0       _sessionRebase             100a7cf0 f   interop.obj
 0001:000a7310       _sessionChangesetToHash    100a8310 f   interop.obj
 0001:000a7600       _sessionStat1Sql           100a8600 f   interop.obj
 0001:000a76b0       _fts3InsertTerms           100a86b0 f   interop.obj
 0001:000a7740       _sqlite3RollbackAll        100a8740 f   interop.obj
 0001:000a7880       _sqlite3LeaveMutexAndCloseZombie 100a8880 f   interop.obj
 0001:000a7aa0       _sqlite3Close              100a8aa0 f   interop.obj
 0001:000a7c90       _wherePathSolver           100a8c90 f   interop.obj
 0001:000a82d0       _whereLoopAddOr            100a92d0 f   interop.obj
 0001:000a8700       _multiSelectValues         100a9700 f   interop.obj
 0001:000a8790       _generateWithRecursiveQuery 100a9790 f   interop.obj
 0001:000a8b20       _invalidateTempStorage     100a9b20 f   interop.obj
 0001:000a8b70       _detachFunc                100a9b70 f   interop.obj
 0001:000a8ca0       _vdbeCommit                100a9ca0 f   interop.obj
 0001:000a9230       _sqlite3VdbeFreeCursor     100aa230 f   interop.obj
 0001:000a9290       _sqlite3VdbeMakeReady      100aa290 f   interop.obj
 0001:000a94c0       _sqlite3VdbeFrameDelete    100aa4c0 f   interop.obj
 0001:000a9520       _sqlite3VdbeTakeOpArray    100aa520 f   interop.obj
 0001:000a9650       _sqlite3BtreeCommit        100aa650 f   interop.obj
 0001:000a9690       _sqlite3BtreeBeginTrans    100aa690 f   interop.obj
 0001:000a98a0       _sqlite3BtreeOpen          100aa8a0 f   interop.obj
 0001:000aa0b0       _fts5DecodeFunction        100ab0b0 f   interop.obj
 0001:000aaa80       _whereLoopAddAll           100aba80 f   interop.obj
 0001:000aacd0       _multiSelect               100abcd0 f   interop.obj
 0001:000ab5b0       _schemaIsValid             100ac5b0 f   interop.obj
 0001:000ab680       _changeTempStorage         100ac680 f   interop.obj
 0001:000ab6c0       _sqlite3OpenTempDatabase   100ac6c0 f   interop.obj
 0001:000ab760       _allocateCursor            100ac760 f   interop.obj
 0001:000ab850       _closeCursorsInFrame       100ac850 f   interop.obj
 0001:000ab890       _findBtree                 100ac890 f   interop.obj
 0001:000ab990       _sqlite3BtreeSetVersion    100ac990 f   interop.obj
 0001:000aba20       _sqlite3Fts5IndexInit      100aca20 f   interop.obj
 0001:000abc50       _sqlite3CodeVerifySchema   100acc50 f   interop.obj
 0001:000abc90       _sqlite3FindInIndex        100acc90 f   interop.obj
 0001:000ac1b0       _sqlite3VdbeFrameRestore   100ad1b0 f   interop.obj
 0001:000ac910       _codeEqualityTerm          100ad910 f   interop.obj
 0001:000accb0       _sqlite3BeginWriteOperation 100adcb0 f   interop.obj
 0001:000acce0       _sqlite3CodeVerifyNamedSchema 100adce0 f   interop.obj
 0001:000acd40       _sqlite3CodeDropTable      100add40 f   interop.obj
 0001:000ace80       _analyzeTable              100ade80 f   interop.obj
 0001:000acf30       _analyzeDatabase           100adf30 f   interop.obj
 0001:000acfd0       _closeAllCursors           100adfd0 f   interop.obj
 0001:000ad070       _sqlite3BtreeCopyFile      100ae070 f   interop.obj
 0001:000ad170       _codeAllEqualityTerms      100ae170 f   interop.obj
 0001:000ad3d0       _sqlite3FinishTrigger      100ae3d0 f   interop.obj
 0001:000ad620       _reindexTable              100ae620 f   interop.obj
 0001:000ad6b0       _sqlite3VdbeHalt           100ae6b0 f   interop.obj
 0001:000ad9b0       _sqlite3WhereCodeOneLoopStart 100ae9b0 f   interop.obj
 0001:000af5e0       _reindexDatabases          100b05e0 f   interop.obj
 0001:000af660       _sqlite3VdbeReset          100b0660 f   interop.obj
 0001:000af6f0       _sqlite3WhereBegin         100b06f0 f   interop.obj
 0001:000b0110       _fkScanChildren            100b1110 f   interop.obj
 0001:000b04a0       _sqlite3VdbeFinalize       100b14a0 f   interop.obj
 0001:000b04f0       _statResetCsr              100b14f0 f   interop.obj
 0001:000b0540       _rtreeCheckReset           100b1540 f   interop.obj
 0001:000b0920       _blobReadWrite             100b1920 f   interop.obj
 0001:000b0bb0       _sqlite3Fts5StorageStmtRelease 100b1bb0 f   interop.obj
 0001:000b0bf0       _sqlite3Fts5StorageClose   100b1bf0 f   interop.obj
 0001:000b0c30       _fts5ExecPrintf            100b1c30 f   interop.obj
 0001:000b0c80       _sqlite3Fts5IndexClose     100b1c80 f   interop.obj
 0001:000b0d40       _statClose                 100b1d40 f   interop.obj
 0001:000b0d70       _rtreeConstraintError      100b1d70 f   interop.obj
 0001:000b0e50       _fts3auxDisconnectMethod   100b1e50 f   interop.obj
 0001:000b0ea0       _fts3CursorFinalizeStmt    100b1ea0 f   interop.obj
 0001:000b0ee0       _fts3ContentColumns        100b1ee0 f   interop.obj
 0001:000b1050       _fts3DbExec                100b2050 f   interop.obj
 0001:000b10b0       _fts3DisconnectMethod      100b20b0 f   interop.obj
 0001:000b1140       _execSql                   100b2140 f   interop.obj
 0001:000b1450       _sqlite3InitCallback       100b2450 f   interop.obj
 0001:000b1600       _pragmaVtabCursorClear     100b2600 f   interop.obj
 0001:000b1640       _loadStatTbl               100b2640 f   interop.obj
 0001:000b1ab0       _sqlite3Fts5CreateTable    100b2ab0 f   interop.obj
 0001:000b1b30       _fts5StorageRenameOne      100b2b30 f   interop.obj
 0001:000b1b60       _sqlite3Fts5DropAll        100b2b60 f   interop.obj
 0001:000b1bd0       _fts5FreeVtab              100b2bd0 f   interop.obj
 0001:000b1c00       _fts5CloseReader           100b2c00 f   interop.obj
 0001:000b1c40       _nodeBlobReset             100b2c40 f   interop.obj
 0001:000b1c70       _sqlite3Fts3SegReaderFree  100b2c70 f   interop.obj
 0001:000b1cb0       _fts3SegReaderSetEof       100b2cb0 f   interop.obj
 0001:000b1ce0       _fts3SegReaderIncrRead     100b2ce0 f   interop.obj
 0001:000b1d50       _sqlite3Fts3SegmentsClose  100b2d50 f   interop.obj
 0001:000b1d70       _fts3SegReaderCursorAppend 100b2d70 f   interop.obj
 0001:000b1df0       _sqlite3Fts3CreateStatTable 100b2df0 f   interop.obj
 0001:000b1e20       _fts3DestroyMethod         100b2e20 f   interop.obj
 0001:000b1ec0       _execSqlF                  100b2ec0 f   interop.obj
 0001:000b1f10       _pragmaVtabClose           100b2f10 f   interop.obj
 0001:000b1f30       _loadStat4                 100b2f30 f   interop.obj
 0001:000b23a0       _fts5DestroyMethod         100b33a0 f   interop.obj
 0001:000b23d0       _fts5DisconnectMethod      100b33d0 f   interop.obj
 0001:000b23f0       _sqlite3Fts5IterClose      100b33f0 f   interop.obj
 0001:000b2420       _sqlite3Fts5IndexRollback  100b3420 f   interop.obj
 0001:000b2470       _fts5ExprPhraseFree        100b3470 f   interop.obj
 0001:000b2530       _rtreeSavepoint            100b3530 f   interop.obj
 0001:000b2550       _rtreeRename               100b3550 f   interop.obj
 0001:000b25b0       _rtreeEndTransaction       100b35b0 f   interop.obj
 0001:000b25d0       _rtreeRelease              100b35d0 f   interop.obj
 0001:000b2660       _sqlite3Fts3SegReaderFinish 100b3660 f   interop.obj
 0001:000b26b0       _fts3SegReaderRequire      100b36b0 f   interop.obj
 0001:000b26f0       _fts3auxCloseMethod        100b36f0 f   interop.obj
 0001:000b2750       _fts3SegReaderCursorFree   100b3750 f   interop.obj
 0001:000b2770       _fts3CreateTables          100b3770 f   interop.obj
 0001:000b28b0       _sqlite3RunVacuum          100b38b0 f   interop.obj
 0001:000b2c60       _sqlite3AnalysisLoad       100b3c60 f   interop.obj
 0001:000b2dc0       _sqlite3VdbeExec           100b3dc0 f   interop.obj
 0001:000b85d8       $LN3301                    100b95d8     * CIL library *:* CIL module *
 0001:000b8878       $LN3302                    100b9878     * CIL library *:* CIL module *
 0001:000b8888       $LN3303                    100b9888     * CIL library *:* CIL module *
 0001:000b88a0       _sqlite3Step               100b98a0 f   interop.obj
 0001:000b8a20       _fts5VocabResetCursor      100b9a20 f   interop.obj
 0001:000b8a60       _sqlite3Fts5StorageRollback 100b9a60 f   interop.obj
 0001:000b8a80       _fts5RollbackToMethod      100b9a80 f   interop.obj
 0001:000b8ab0       _fts5RollbackMethod        100b9ab0 f   interop.obj
 0001:000b8ad0       _sqlite3Fts5ParseTerm      100b9ad0 f   interop.obj
 0001:000b8ca0       _sqlite3Fts5ParseNearsetFree 100b9ca0 f   interop.obj
 0001:000b8ce0       _sqlite3Fts5ParsePhraseFree 100b9ce0 f   interop.obj
 0001:000b8cf0       _sqlite3Fts5ParseNearset   100b9cf0 f   interop.obj
 0001:000b8e10       _sqlite3Fts5ParseNodeFree  100b9e10 f   interop.obj
 0001:000b8e60       _fts5yy_destructor         100b9e60 f   interop.obj
 0001:000b8e9c       $LN305                     100b9e9c     * CIL library *:* CIL module *
 0001:000b8ec0       _rtreeDestroy              100b9ec0 f   interop.obj
 0001:000b8f30       _rtreeDisconnect           100b9f30 f   interop.obj
 0001:000b8f40       _fts3SegReaderNextDocid    100b9f40 f   interop.obj
 0001:000b90b0       _fts3SegReaderFirstDocid   100ba0b0 f   interop.obj
 0001:000b9160       _sqlite3Fts3EvalPhraseCleanup 100ba160 f   interop.obj
 0001:000b91f0       _sqlite3InitOne            100ba1f0 f   interop.obj
 0001:000b9550       _fts5VocabCloseMethod      100ba550 f   interop.obj
 0001:000b95a0       _sqlite3Fts5ExprFree       100ba5a0 f   interop.obj
 0001:000b95d0       _fts5yy_pop_parser_stack   100ba5d0 f   interop.obj
 0001:000b9618       $LN302                     100ba618     * CIL library *:* CIL module *
 0001:000b9640       _sqlite3Fts3MsrIncrNext    100ba640 f   interop.obj
 0001:000b97a0       _fts3FreeExprNode          100ba7a0 f   interop.obj
 0001:000b97d0       _incrPhraseTokenNext       100ba7d0 f   interop.obj
 0001:000b9860       _sqlite3Init               100ba860 f   interop.obj
 0001:000b9900       _attachFunc                100ba900 f   interop.obj
 0001:000b9d64       $LN426                     100bad64     * CIL library *:* CIL module *
 0001:000b9d80       _fts5FreeCursorComponents  100bad80 f   interop.obj
 0001:000b9e90       _fts5yyStackOverflow       100bae90 f   interop.obj
 0001:000b9ec0       _sqlite3Fts5ParserFinalize 100baec0 f   interop.obj
 0001:000b9ee0       _sqlite3Fts3ExprFree       100baee0 f   interop.obj
 0001:000b9f70       _fts3ExprBalance           100baf70 f   interop.obj
 0001:000ba280       _fts3ExprParse             100bb280 f   interop.obj
 0001:000ba500       _fts3EvalIncrPhraseNext    100bb500 f   interop.obj
 0001:000ba8d0       _fts3ClearCursor           100bb8d0 f   interop.obj
 0001:000babf0       _sqlite3ReadSchema         100bbbf0 f   interop.obj
 0001:000bac30       _sqlite3Reindex            100bbc30 f   interop.obj
 0001:000bada0       _sqlite3DropIndex          100bbda0 f   interop.obj
 0001:000baf90       _sqlite3StartTable         100bbf90 f   interop.obj
 0001:000bb3d0       _sqlite3LocateTable        100bc3d0 f   interop.obj
 0001:000bb4e0       _sqlite3Analyze            100bc4e0 f   interop.obj
 0001:000bb600       _fts5CloseMethod           100bc600 f   interop.obj
 0001:000bb640       _fts5yy_shift              100bc640 f   interop.obj
 0001:000bb690       _sqlite3Fts5ParserFree     100bc690 f   interop.obj
 0001:000bb750       _fts3ExprParseUnbalanced   100bc750 f   interop.obj
 0001:000bb7d0       _fts3EvalPhraseNext        100bc7d0 f   interop.obj
 0001:000bb850       _fts3SetHasStat            100bc850 f   interop.obj
 0001:000bb8c0       _fts3EofMethod             100bc8c0 f   interop.obj
 0001:000bb8e0       _fts3CloseMethod           100bc8e0 f   interop.obj
 0001:000bb900       _sqlite3VtabBeginParse     100bc900 f   interop.obj
 0001:000bb9e0       _sqlite3DropTrigger        100bc9e0 f   interop.obj
 0001:000bbae0       _sqlite3FkCheck            100bcae0 f   interop.obj
 0001:000bbf60       _sqlite3LocateTableItem    100bcf60 f   interop.obj
 0001:000bbfc0       _sqlite3AlterBeginAddColumn 100bcfc0 f   interop.obj
 0001:000bc1f0       _sqlite3AlterRenameTable   100bd1f0 f   interop.obj
 0001:000bc580       _sqlite3Fts3ExprParse      100bd580 f   interop.obj
 0001:000bc680       _fts3EvalNextRow           100bd680 f   interop.obj
 0001:000bcaa0       $LN218                     100bdaa0     * CIL library *:* CIL module *
 0001:000bcab0       _fts3BeginMethod           100bdab0 f   interop.obj
 0001:000bcad0       _selectExpander            100bdad0 f   interop.obj
 0001:000bd2d0       _xferOptimization          100be2d0 f   interop.obj
 0001:000bdac0       _sqlite3SrcListLookup      100beac0 f   interop.obj
 0001:000bdb20       _sqlite3CreateIndex        100beb20 f   interop.obj
 0001:000be710       _convertToWithoutRowidTable 100bf710 f   interop.obj
 0001:000beaf0       _sqlite3AddPrimaryKey      100bfaf0 f   interop.obj
 0001:000beca0       _sqlite3BeginTrigger       100bfca0 f   interop.obj
 0001:000bf0a0       _sqlite3SelectExpand       100c00a0 f   interop.obj
 0001:000bf0f0       _sqlite3SelectPrep         100c00f0 f   interop.obj
 0001:000bf180       _sqlite3Select             100c0180 f   interop.obj
 0001:000c0840       _sqlite3MaterializeView    100c1840 f   interop.obj
 0001:000c0950       _sqlite3EndTable           100c1950 f   interop.obj
 0001:000c0de0       _sqlite3CodeSubselect      100c1de0 f   interop.obj
 0001:000c1360       _exprCodeSubselect         100c2360 f   interop.obj
 0001:000c1380       _sqlite3CreateView         100c2380 f   interop.obj
 0001:000c1550       _exprCodeVector            100c2550 f   interop.obj
 0001:000c15f0       _sqlite3ExprCodeIN         100c25f0 f   interop.obj
 0001:000c1b60       _codeVectorCompare         100c2b60 f   interop.obj
 0001:000c1d60       _exprCodeBetween           100c2d60 f   interop.obj
 0001:000c1e90       _sqlite3ExprIfTrue         100c2e90 f   interop.obj
 0001:000c2184       $LN164                     100c3184     * CIL library *:* CIL module *
 0001:000c21ac       $LN157                     100c31ac     * CIL library *:* CIL module *
 0001:000c2240       _sqlite3ExprIfFalse        100c3240 f   interop.obj
 0001:000c2570       $LN167                     100c3570     * CIL library *:* CIL module *
 0001:000c2598       $LN160                     100c3598     * CIL library *:* CIL module *
 0001:000c2620       _sqlite3ExprCodeTarget     100c3620 f   interop.obj
 0001:000c3458       $LN809                     100c4458     * CIL library *:* CIL module *
 0001:000c34d0       $LN784                     100c44d0     * CIL library *:* CIL module *
 0001:000c3560       _sqlite3Pragma             100c4560 f   interop.obj
 0001:000c5b78       $LN2510                    100c6b78     * CIL library *:* CIL module *
 0001:000c5c28       $LN2511                    100c6c28     * CIL library *:* CIL module *
 0001:000c5c38       $LN2512                    100c6c38     * CIL library *:* CIL module *
 0001:000c5c50       _sqlite3ExprCode           100c6c50 f   interop.obj
 0001:000c5cb0       _updateVirtualTable        100c6cb0 f   interop.obj
 0001:000c6000       _sqlite3Update             100c7000 f   interop.obj
 0001:000c73e0       _sqlite3FinishCoding       100c83e0 f   interop.obj
 0001:000c7630       _codeAttach                100c8630 f   interop.obj
 0001:000c7830       _sqlite3ExprCodeAndCache   100c8830 f   interop.obj
 0001:000c7880       _sqlite3UpsertDoUpdate     100c8880 f   interop.obj
 0001:000c7a40       _sqlite3GenerateConstraintChecks 100c8a40 f   interop.obj
 0001:000c8750       $LN668                     100c9750     * CIL library *:* CIL module *
 0001:000c8760       $LN669                     100c9760     * CIL library *:* CIL module *
 0001:000c8778       $LN670                     100c9778     * CIL library *:* CIL module *
 0001:000c8790       _sqlite3Insert             100c9790 f   interop.obj
 0001:000c9940       _sqlite3Attach             100ca940 f   interop.obj
 0001:000c9960       _sqlite3Detach             100ca960 f   interop.obj
 0001:000c9980       _codeTriggerProgram        100ca980 f   interop.obj
 0001:000c9b90       _codeRowTrigger            100cab90 f   interop.obj
 0001:000c9e60       _getRowTrigger             100cae60 f   interop.obj
 0001:000c9eb0       _sqlite3CodeRowTriggerDirect 100caeb0 f   interop.obj
 0001:000c9f50       _sqlite3CodeRowTrigger     100caf50 f   interop.obj
 0001:000c9fc0       _sqlite3GenerateRowDelete  100cafc0 f   interop.obj
 0001:000ca2d0       _sqlite3DeleteFrom         100cb2d0 f   interop.obj
 0001:000cacd0       _sqlite3FkDropTable        100cbcd0 f   interop.obj
 0001:000cae10       _sqlite3DropTable          100cbe10 f   interop.obj
 0001:000cb090       _yy_reduce                 100cc090 f   interop.obj
 0001:000ccae8       $LN2312                    100cdae8     * CIL library *:* CIL module *
 0001:000ccf60       _sqlite3Parser             100cdf60 f   interop.obj
 0001:000cd040       _sqlite3RunParser          100ce040 f   interop.obj
 0001:000cd5b0       _sqlite3Prepare            100ce5b0 f   interop.obj
 0001:000cd980       _pragmaVtabConnect         100ce980 f   interop.obj
 0001:000cdb80       _jsonEachConnect           100ceb80 f   interop.obj
 0001:000cdbd0       _fts5VocabInitVtab         100cebd0 f   interop.obj
 0001:000cdd90       _sqlite3Fts5ConfigDeclareVtab 100ced90 f   interop.obj
 0001:000cde30       _stmtConnect               100cee30 f   interop.obj
 0001:000cde80       _statConnect               100cee80 f   interop.obj
 0001:000cdf60       _fts3tokConnectMethod      100cef60 f   interop.obj
 0001:000ce070       _fts3auxConnectMethod      100cf070 f   interop.obj
 0001:000ce1c0       _fts3DeclareVtab           100cf1c0 f   interop.obj
 0001:000ce290       _sqlite3LockAndPrepare     100cf290 f   interop.obj
 0001:000ce3a0       _fts5VocabCreateMethod     100cf3a0 f   interop.obj
 0001:000ce3c0       _fts5VocabConnectMethod    100cf3c0 f   interop.obj
 0001:000ce3e0       _sqlite3Fts3InitTok        100cf3e0 f   interop.obj
 0001:000ce440       _sqlite3Prepare16          100cf440 f   interop.obj
 0001:000ce5c0       _sqlite3Reprepare          100cf5c0 f   interop.obj
 0001:000ce7a0       _sha1QueryFunc             100cf7a0 f   interop.obj
 0001:000cec70       $LN300                     100cfc70     * CIL library *:* CIL module *
 0001:000cec90       _fts5VocabOpenMethod       100cfc90 f   interop.obj
 0001:000cee50       _fts5StorageCount          100cfe50 f   interop.obj
 0001:000cef20       _fts5StorageGetStmt        100cff20 f   interop.obj
 0001:000cf0f0       $LN276                     100d00f0     * CIL library *:* CIL module *
 0001:000cf104       $LN272                     100d0104     * CIL library *:* CIL module *
 0001:000cf110       _fts5FindRankFunction      100d0110 f   interop.obj
 0001:000cf2a0       _fts5PrepareStatement      100d02a0 f   interop.obj
 0001:000cf340       _fts5SorterNext            100d0340 f   interop.obj
 0001:000cf470       _fts5DataDelete            100d0470 f   interop.obj
 0001:000cf530       _fts5IndexPrepareStmt      100d0530 f   interop.obj
 0001:000cf590       _sqlite3Fts5ConfigLoad     100d0590 f   interop.obj
 0001:000cf700       _sessionSeekToRow          100d0700 f   interop.obj
 0001:000cf750       _sessionTableInfo          100d0750 f   interop.obj
 0001:000cfa40       _statNext                  100d0a40 f   interop.obj
 0001:000cff70       $LN353                     100d0f70     * CIL library *:* CIL module *
 0001:000cff7c       $LN345                     100d0f7c     * CIL library *:* CIL module *
 0001:000cff90       _rtreeCheckCount           100d0f90 f   interop.obj
 0001:000d0030       _rtreeCheckMapping         100d1030 f   interop.obj
 0001:000d0150       _rtreeCheckGetNode         100d1150 f   interop.obj
 0001:000d0250       _getIntFromStmt            100d1250 f   interop.obj
 0001:000d02d0       _rtreeQueryStat1           100d12d0 f   interop.obj
 0001:000d0450       _newRowid                  100d1450 f   interop.obj
 0001:000d04e0       _parentWrite               100d14e0 f   interop.obj
 0001:000d0530       _rowidWrite                100d1530 f   interop.obj
 0001:000d0580       _nodeWrite                 100d1580 f   interop.obj
 0001:000d06b0       _fts3SqlStmt               100d16b0 f   interop.obj
 0001:000d0930       _fts3CursorSeekStmt        100d1930 f   interop.obj
 0001:000d09d0       _fts3DatabasePageSize      100d19d0 f   interop.obj
 0001:000d0b10       _pragmaVtabNext            100d1b10 f   interop.obj
 0001:000d0b60       _blobSeekToRow             100d1b60 f   interop.obj
 0001:000d0d30       _sqlite3Fts5StorageDocsize 100d1d30 f   interop.obj
 0001:000d0e30       _sqlite3Fts5StorageStmt    100d1e30 f   interop.obj
 0001:000d0e60       _fts5StorageNewRowid       100d1e60 f   interop.obj
 0001:000d0f30       _fts5StorageInsertDocsize  100d1f30 f   interop.obj
 0001:000d1020       _fts5SeekCursor            100d2020 f   interop.obj
 0001:000d10f0       _fts5CursorFirstSorted     100d20f0 f   interop.obj
 0001:000d11f0       _fts5WriteInit             100d21f0 f   interop.obj
 0001:000d12b0       _fts5IdxSelectStmt         100d22b0 f   interop.obj
 0001:000d12f0       _fts5IndexDataVersion      100d22f0 f   interop.obj
 0001:000d13c0       _fts5DataRemoveSegment     100d23c0 f   interop.obj
 0001:000d1460       _fts5DataWrite             100d2460 f   interop.obj
 0001:000d15c0       _sessionConflictHandler    100d25c0 f   interop.obj
 0001:000d16e0       _sessionGenerateChangeset  100d26e0 f   interop.obj
 0001:000d1b00       _sessionInitTable          100d2b00 f   interop.obj
 0001:000d1b90       _statFilter                100d2b90 f   interop.obj
 0001:000d1c90       _rtreeCheckNode            100d2c90 f   interop.obj
 0001:000d1e50       _getNodeSize               100d2e50 f   interop.obj
 0001:000d1f40       _rtreeSqlInit              100d2f40 f   interop.obj
 0001:000d22a0       _nodeRelease               100d32a0 f   interop.obj
 0001:000d2310       _fts3DoAutoincrmerge       100d3310 f   interop.obj
 0001:000d23e0       _fts3IncrmergeHintLoad     100d33e0 f   interop.obj
 0001:000d24d0       _fts3IncrmergeHintStore    100d34d0 f   interop.obj
 0001:000d25a0       _fts3RepackSegdirLevel     100d35a0 f   interop.obj
 0001:000d2750       _fts3RemoveSegdirEntry     100d3750 f   interop.obj
 0001:000d27c0       _fts3IncrmergeOutputIdx    100d37c0 f   interop.obj
 0001:000d2840       _fts3IsAppendable          100d3840 f   interop.obj
 0001:000d28a0       _fts3IncrmergeCsr          100d38a0 f   interop.obj
 0001:000d2a80       _fts3UpdateDocTotals       100d3a80 f   interop.obj
 0001:000d2d80       _fts3InsertDocsize         100d3d80 f   interop.obj
 0001:000d2eb0       _fts3PromoteSegments       100d3eb0 f   interop.obj
 0001:000d3140       _fts3DeleteSegment         100d4140 f   interop.obj
 0001:000d31b0       _fts3SegmentIsMaxLevel     100d41b0 f   interop.obj
 0001:000d3270       _fts3SegmentMaxLevel       100d4270 f   interop.obj
 0001:000d3350       _fts3IsEmpty               100d4350 f   interop.obj
 0001:000d33d0       _fts3WriteSegdir           100d43d0 f   interop.obj
 0001:000d3530       _sqlite3Fts3MaxLevel       100d4530 f   interop.obj
 0001:000d35a0       _fts3WriteSegment          100d45a0 f   interop.obj
 0001:000d3670       _fts3AllocateSegdirIdx     100d4670 f   interop.obj
 0001:000d3750       _fts3InsertData            100d4750 f   interop.obj
 0001:000d3890       _sqlite3Fts3AllSegdirs     100d4890 f   interop.obj
 0001:000d39b0       _fts3Writelock             100d49b0 f   interop.obj
 0001:000d3a20       _fts3SqlExec               100d4a20 f   interop.obj
 0001:000d3a70       _sqlite3Fts3SelectDoctotal 100d4a70 f   interop.obj
 0001:000d3b30       _fts3SelectDocsize         100d4b30 f   interop.obj
 0001:000d3be0       _fts3EvalAverageDocsize    100d4be0 f   interop.obj
 0001:000d3d00       _fts3CursorSeek            100d4d00 f   interop.obj
 0001:000d3d80       _fts3InitVtab              100d4d80 f   interop.obj
 0001:000d4cc8       $LN684                     100d5cc8     * CIL library *:* CIL module *
 0001:000d4cf0       _pragmaVtabFilter          100d5cf0 f   interop.obj
 0001:000d5540       _sqlite3Fts5StorageContentInsert 100d6540 f   interop.obj
 0001:000d5610       _fts5ColumnMethod          100d6610 f   interop.obj
 0001:000d5760       _fts5ApiColumnText         100d6760 f   interop.obj
 0001:000d5800       _sqlite3Fts5IndexReset     100d6800 f   interop.obj
 0001:000d5840       _sqlite3Fts5IndexSetCookie 100d6840 f   interop.obj
 0001:000d58b0       _sqlite3Fts5IndexSetAverages 100d68b0 f   interop.obj
 0001:000d58e0       _fts5WriteFlushLeaf        100d68e0 f   interop.obj
 0001:000d59e0       _fts5WriteDlidxAppend      100d69e0 f   interop.obj
 0001:000d5bb0       _fts5WriteDlidxClear       100d6bb0 f   interop.obj
 0001:000d5c50       _fts5StructureWrite        100d6c50 f   interop.obj
 0001:000d5dc0       _fts5DataRead              100d6dc0 f   interop.obj
 0001:000d5ef0       _sessionApplyOneOp         100d6ef0 f   interop.obj
 0001:000d6260       _sessionPreupdateOneChange 100d7260 f   interop.obj
 0001:000d6560       _sqlite3DbstatRegister     100d7560 f   interop.obj
 0001:000d65c0       _rtreeCheckTable           100d75c0 f   interop.obj
 0001:000d67d0       _rtreeInit                 100d77d0 f   interop.obj
 0001:000d6ad0       _updateMapping             100d7ad0 f   interop.obj
 0001:000d6b70       _rtreeSearchPointSwap      100d7b70 f   interop.obj
 0001:000d6bf0       _rtreeClose                100d7bf0 f   interop.obj
 0001:000d6c50       _rtreeConnect              100d7c50 f   interop.obj
 0001:000d6c80       _rtreeCreate               100d7c80 f   interop.obj
 0001:000d6cb0       _nodeAcquire               100d7cb0 f   interop.obj
 0001:000d6f20       _fts3MatchinfoSelectDoctotal 100d7f20 f   interop.obj
 0001:000d6fa0       _fts3IncrmergeWriter       100d7fa0 f   interop.obj
 0001:000d7180       _fts3IncrmergeRelease      100d8180 f   interop.obj
 0001:000d7300       _fts3IncrmergePush         100d8300 f   interop.obj
 0001:000d7530       _fts3DeleteSegdir          100d8530 f   interop.obj
 0001:000d7650       _fts3SegWriterAdd          100d8650 f   interop.obj
 0001:000d79e0       _fts3NodeWrite             100d89e0 f   interop.obj
 0001:000d7af0       _sqlite3Fts3ReadBlock      100d8af0 f   interop.obj
 0001:000d7c20       _fts3DeleteAll             100d8c20 f   interop.obj
 0001:000d7d50       _sqlite3Fts3SelectDocsize  100d8d50 f   interop.obj
 0001:000d7d70       _sqlite3Fts3EvalTestDeferred 100d8d70 f   interop.obj
 0001:000d7e00       _fts3ColumnMethod          100d8e00 f   interop.obj
 0001:000d7f50       _fts3SelectLeaf            100d8f50 f   interop.obj
 0001:000d8070       _fts3CreateMethod          100d9070 f   interop.obj
 0001:000d80a0       _fts3ConnectMethod         100d90a0 f   interop.obj
 0001:000d80d0       _sqlite3Fts5StorageConfigValue 100d90d0 f   interop.obj
 0001:000d81c0       _sqlite3Fts5StorageReset   100d91c0 f   interop.obj
 0001:000d81d0       _fts5StorageSaveTotals     100d91d0 f   interop.obj
 0001:000d8270       _sqlite3Fts5StorageOpen    100d9270 f   interop.obj
 0001:000d8420       _fts5ApiColumnSize         100d9420 f   interop.obj
 0001:000d8570       _fts5CsrPoslist            100d9570 f   interop.obj
 0001:000d86e0       _fts5NewTransaction        100d96e0 f   interop.obj
 0001:000d8710       _fts5IndexIntegrityCheckEmpty 100d9710 f   interop.obj
 0001:000d87a0       _sqlite3Fts5IndexGetAverages 100d97a0 f   interop.obj
 0001:000d8860       _sqlite3Fts5IndexReinit    100d9860 f   interop.obj
 0001:000d88e0       _fts5TrimSegments          100d98e0 f   interop.obj
 0001:000d8b90       _fts5WriteAppendPoslistData 100d9b90 f   interop.obj
 0001:000d8ca0       _fts5WriteAppendRowid      100d9ca0 f   interop.obj
 0001:000d8d40       _fts5WriteFlushDlidx       100d9d40 f   interop.obj
 0001:000d8d80       _fts5SegIterReverse        100d9d80 f   interop.obj
 0001:000d8f20       _fts5SegIterReverseNewPage 100d9f20 f   interop.obj
 0001:000d9000       _fts5DlidxIterPrevR        100da000 f   interop.obj
 0001:000d90c0       _fts5DlidxIterLast         100da0c0 f   interop.obj
 0001:000d9180       _fts5DlidxIterNextR        100da180 f   interop.obj
 0001:000d9230       _fts5StructureReadUncached 100da230 f   interop.obj
 0001:000d92d0       _fts5LeafRead              100da2d0 f   interop.obj
 0001:000d9310       _sessionApplyOneWithRetry  100da310 f   interop.obj
 0001:000d9430       _sessionDiffFindModified   100da430 f   interop.obj
 0001:000d9510       _sessionDiffFindNew        100da510 f   interop.obj
 0001:000d95d0       _xPreUpdate                100da5d0 f   interop.obj
 0001:000d9690       _rtreecheck                100da690 f   interop.obj
 0001:000d9780       _fixLeafParent             100da780 f   interop.obj
 0001:000d9880       _SplitNode                 100da880 f   interop.obj
 0001:000d9ce0       _ChooseLeaf                100dace0 f   interop.obj
 0001:000d9ed0       _findLeafNode              100daed0 f   interop.obj
 0001:000d9f80       _rtreeSearchPointPop       100daf80 f   interop.obj
 0001:000da0a0       _rtreeEnqueue              100db0a0 f   interop.obj
 0001:000da190       _rtreeNodeOfFirstSearchPoint 100db190 f   interop.obj
 0001:000da1f0       _fts3TruncateSegment       100db1f0 f   interop.obj
 0001:000da590       _fts3IncrmergeLoad         100db590 f   interop.obj
 0001:000daa70       _fts3IncrmergeAppend       100dba70 f   interop.obj
 0001:000dac50       _fts3SegWriterFlush        100dbc50 f   interop.obj
 0001:000dad30       _sqlite3Fts3MsrOvfl        100dbd30 f   interop.obj
 0001:000dadf0       _fts3SegReaderNext         100dbdf0 f   interop.obj
 0001:000db090       _fts3EvalNext              100dc090 f   interop.obj
 0001:000db150       _fts3EvalTokenCosts        100dc150 f   interop.obj
 0001:000db240       _fts3NextMethod            100dc240 f   interop.obj
 0001:000db2c0       _fts3SegReaderCursor       100dc2c0 f   interop.obj
 0001:000db550       _sqlite3Fts5StorageDeleteAll 100dc550 f   interop.obj
 0001:000db5c0       _fts5StorageLoadTotals     100dc5c0 f   interop.obj
 0001:000db5f0       _fts5ApiPhraseFirstColumn  100dc5f0 f   interop.obj
 0001:000db6f0       _fts5ApiPhraseFirst        100dc6f0 f   interop.obj
 0001:000db740       _fts5CacheInstArray        100dc740 f   interop.obj
 0001:000db980       _fts5BeginMethod           100dc980 f   interop.obj
 0001:000db9a0       _fts5OpenMethod            100dc9a0 f   interop.obj
 0001:000dba40       _sqlite3Fts5IndexOpen      100dca40 f   interop.obj
 0001:000dbb30       _fts5MergeChunkCallback    100dcb30 f   interop.obj
 0001:000dbb50       _fts5WriteFlushBtree       100dcb50 f   interop.obj
 0001:000dbc40       _fts5ChunkIterate          100dcc40 f   interop.obj
 0001:000dbd20       _fts5SegIterNext_Reverse   100dcd20 f   interop.obj
 0001:000dbda0       _fts5SegIterNextPage       100dcda0 f   interop.obj
 0001:000dbe40       _fts5DlidxIterInit         100dce40 f   interop.obj
 0001:000dbf70       _fts5DlidxIterPrev         100dcf70 f   interop.obj
 0001:000dbf80       _fts5DlidxIterNext         100dcf80 f   interop.obj
 0001:000dbf90       _fts5StructureRead         100dcf90 f   interop.obj
 0001:000dbfe0       _sessionRetryConstraints   100dcfe0 f   interop.obj
 0001:000dc5f0       _sqlite3RtreeInit          100dd5f0 f   interop.obj
 0001:000dc6e0       _Reinsert                  100dd6e0 f   interop.obj
 0001:000dcb00       _deleteCell                100ddb00 f   interop.obj
 0001:000dcb90       _removeNode                100ddb90 f   interop.obj
 0001:000dcc90       _rtreeColumn               100ddc90 f   interop.obj
 0001:000dce70       _rtreeRowid                100dde70 f   interop.obj
 0001:000dcef0       _rtreeSearchPointNew       100ddef0 f   interop.obj
 0001:000dcfe0       _fts3IncrmergeChomp        100ddfe0 f   interop.obj
 0001:000dd0a0       _sqlite3Fts3SegReaderStep  100de0a0 f   interop.obj
 0001:000dd640       _fts3SegReaderStart        100de640 f   interop.obj
 0001:000dd700       _fts3auxNextMethod         100de700 f   interop.obj
 0001:000dd950       _fts3SegReaderCursorAddZero 100de950 f   interop.obj
 0001:000dd970       _sqlite3Fts3SegReaderCursor 100de970 f   interop.obj
 0001:000dd9b0       _sqlite3Fts5StorageRowCount 100de9b0 f   interop.obj
 0001:000dd9f0       _sqlite3Fts5StorageSize    100de9f0 f   interop.obj
 0001:000ddaa0       _fts5ApiInst               100deaa0 f   interop.obj
 0001:000ddb00       _fts5ApiInstCount          100deb00 f   interop.obj
 0001:000ddb30       _fts5ApiRowCount           100deb30 f   interop.obj
 0001:000ddb50       _fts5ApiColumnTotalSize    100deb50 f   interop.obj
 0001:000ddb70       _fts5IndexIntegrityCheckSegment 100deb70 f   interop.obj
 0001:000ddf10       _sqlite3Fts5IndexLoadConfig 100def10 f   interop.obj
 0001:000ddf30       _fts5WriteFinish           100def30 f   interop.obj
 0001:000de030       _fts5WriteBtreeTerm        100df030 f   interop.obj
 0001:000de060       _fts5SegiterPoslist        100df060 f   interop.obj
 0001:000de140       _fts5SegIterGotoPage       100df140 f   interop.obj
 0001:000de1d0       _fts5SegIterLoadDlidx      100df1d0 f   interop.obj
 0001:000de220       _fts5SegIterLoadRowid      100df220 f   interop.obj
 0001:000de270       _sessionChangesetApply     100df270 f   interop.obj
 0001:000de830       _rtreeInsertCell           100df830 f   interop.obj
 0001:000de940       _rtreeStepToLeaf           100df940 f   interop.obj
 0001:000deb60       _sqlite3Fts3MsrIncrStart   100dfb60 f   interop.obj
 0001:000dec10       _sqlite3Fts3SegReaderStart 100dfc10 f   interop.obj
 0001:000dec30       _fts3auxFilterMethod       100dfc30 f   interop.obj
 0001:000dedf0       _fts3TermSelect            100dfdf0 f   interop.obj
 0001:000def60       _fts3TermSegReaderCursor   100dff60 f   interop.obj
 0001:000df130       _fts5InitVtab              100e0130 f   interop.obj
 0001:000df240       _fts5WriteAppendTerm       100e0240 f   interop.obj
 0001:000df3f0       _fts5IterSetOutputs_Full   100e03f0 f   interop.obj
 0001:000df4a0       _fts5IterSetOutputs_Col    100e04a0 f   interop.obj
 0001:000df4f0       _fts5IterSetOutputs_Nocolset 100e04f0 f   interop.obj
 0001:000df550       _fts5SegIterNextFrom       100e0550 f   interop.obj
 0001:000df670       _fts5LeafSeek              100e0670 f   interop.obj
 0001:000df970       _fts5SegIterLoadTerm       100e0970 f   interop.obj
 0001:000dfad0       _reinsertNodeContent       100e0ad0 f   interop.obj
 0001:000dfb80       _rtreeFilter               100e0b80 f   interop.obj
 0001:000dfdf0       _rtreeNext                 100e0df0 f   interop.obj
 0001:000dfe20       _fts3ChecksumIndex         100e0e20 f   interop.obj
 0001:000dffd0       _sqlite3Fts3Incrmerge      100e0fd0 f   interop.obj
 0001:000e04d0       _fts3SegmentMerge          100e14d0 f   interop.obj
 0001:000e0750       _sqlite3Fts3InitAux        100e1750 f   interop.obj
 0001:000e07b0       _fts3EvalSelectDeferred    100e17b0 f   interop.obj
 0001:000e0980       _fts3EvalPhraseLoad        100e1980 f   interop.obj
 0001:000e09f0       _fts3EvalAllocateReaders   100e19f0 f   interop.obj
 0001:000e0ab0       _sqlite3Fts3Init           100e1ab0 f   interop.obj
 0001:000e0cb0       _openDatabase              100e1cb0 f   interop.obj
 0001:000e12b0       _fts5CreateMethod          100e22b0 f   interop.obj
 0001:000e12e0       _fts5ConnectMethod         100e22e0 f   interop.obj
 0001:000e1310       _fts5IterSetOutputs_Col100 100e2310 f   interop.obj
 0001:000e13d0       _fts5MultiIterNext         100e23d0 f   interop.obj
 0001:000e14c0       _fts5SegIterNext           100e24c0 f   interop.obj
 0001:000e17b0       _fts5SegIterNext_None      100e27b0 f   interop.obj
 0001:000e1960       _fts5SegIterSetNext        100e2960 f   interop.obj
 0001:000e1a10       _rtreeDeleteRowid          100e2a10 f   interop.obj
 0001:000e1bf0       _fts3IntegrityCheck        100e2bf0 f   interop.obj
 0001:000e2010       _fts3DoIncrmerge           100e3010 f   interop.obj
 0001:000e20d0       _fts3DoOptimize            100e30d0 f   interop.obj
 0001:000e2200       _sqlite3Fts3PendingTermsFlush 100e3200 f   interop.obj
 0001:000e2310       _fts3PendingTermsDocid     100e3310 f   interop.obj
 0001:000e23a0       _fts3EvalPhraseStart       100e33a0 f   interop.obj
 0001:000e24a0       _fts3RenameMethod          100e34a0 f   interop.obj
 0001:000e2570       _fts3SyncMethod            100e3570 f   interop.obj
 0001:000e2760       _sqlite3Fts5IterNextScan   100e3760 f   interop.obj
 0001:000e27d0       _sqlite3Fts5IterNext       100e37d0 f   interop.obj
 0001:000e2800       _fts5MultiIterNextFrom     100e3800 f   interop.obj
 0001:000e2880       _fts5MultiIterNew2         100e3880 f   interop.obj
 0001:000e2950       _fts5IterSetOutputCb       100e3950 f   interop.obj
 0001:000e29d0       _fts5SegIterHashInit       100e39d0 f   interop.obj
 0001:000e2b10       _fts5SegIterSeekInit       100e3b10 f   interop.obj
 0001:000e2ce0       _fts5SegIterInit           100e3ce0 f   interop.obj
 0001:000e2dc0       _rtreeUpdate               100e3dc0 f   interop.obj
 0001:000e30c0       _sqlite3Fts3Optimize       100e40c0 f   interop.obj
 0001:000e3170       _fts3DoIntegrityCheck      100e4170 f   interop.obj
 0001:000e31a0       _fts3DoRebuild             100e41a0 f   interop.obj
 0001:000e3480       _fts3DeleteTerms           100e4480 f   interop.obj
 0001:000e3620       _fts3EvalRestart           100e4620 f   interop.obj
 0001:000e3720       _fts3EvalStartReaders      100e4720 f   interop.obj
 0001:000e37e0       _fts3SavepointMethod       100e47e0 f   interop.obj
 0001:000e3800       _fts3OptimizeFunc          100e4800 f   interop.obj
 0001:000e3890       _fts5VocabInstanceNext     100e4890 f   interop.obj
 0001:000e3920       _sqlite3Fts5IterNextFrom   100e4920 f   interop.obj
 0001:000e3950       _fts5MultiIterNew          100e4950 f   interop.obj
 0001:000e3bd0       _fts5ExprNodeNext_TERM     100e4bd0 f   interop.obj
 0001:000e3c50       _fts5ExprSynonymAdvanceto  100e4c50 f   interop.obj
 0001:000e3d10       _fts5ExprAdvanceto         100e4d10 f   interop.obj
 0001:000e3e00       _fts3DeleteByRowid         100e4e00 f   interop.obj
 0001:000e3f30       _fts3SpecialInsert         100e4f30 f   interop.obj
 0001:000e4050       _sqlite3Fts3EvalPhrasePoslist 100e5050 f   interop.obj
 0001:000e4470       _fts3EvalGatherStats       100e5470 f   interop.obj
 0001:000e4640       _fts3EvalStart             100e5640 f   interop.obj
 0001:000e4780       _fts3FilterMethod          100e5780 f   interop.obj
 0001:000e4a50       _fts5VocabNextMethod       100e5a50 f   interop.obj
 0001:000e4e60       _sqlite3Fts5IndexIntegrityCheck 100e5e60 f   interop.obj
 0001:000e5080       _fts5SetupPrefixIter       100e6080 f   interop.obj
 0001:000e5370       _fts5IndexMergeLevel       100e6370 f   interop.obj
 0001:000e57e0       _fts5ExprNodeTest_STRING   100e67e0 f   interop.obj
 0001:000e5990       _fts3ExprTermOffsetInit    100e6990 f   interop.obj
 0001:000e5a10       _fts3MatchinfoLcs          100e6a10 f   interop.obj
 0001:000e5bc0       _fts3ExprLocalHitsCb       100e6bc0 f   interop.obj
 0001:000e5c40       _fts3SnippetFindPositions  100e6c40 f   interop.obj
 0001:000e5cb0       _sqlite3Fts3UpdateMethod   100e6cb0 f   interop.obj
 0001:000e5fa0       _sqlite3Fts3EvalPhraseStats 100e6fa0 f   interop.obj
 0001:000e6040       _fts3UpdateMethod          100e7040 f   interop.obj
 0001:000e6060       _sqlite3Fts5StorageIntegrity 100e7060 f   interop.obj
 0001:000e6450       _sqlite3Fts5IndexQuery     100e7450 f   interop.obj
 0001:000e65e0       _fts5IndexCrisismerge      100e75e0 f   interop.obj
 0001:000e6650       _fts5IndexMerge            100e7650 f   interop.obj
 0001:000e6730       _fts5ExprNodeTest          100e7730 f   interop.obj
 0001:000e676c       $LN169                     100e776c     * CIL library *:* CIL module *
 0001:000e6790       _fts5ExprNodeNext_STRING   100e7790 f   interop.obj
 0001:000e6910       _fts5ExprNearInitAll       100e7910 f   interop.obj
 0001:000e6a50       _sqlite3Fts3Offsets        100e7a50 f   interop.obj
 0001:000e6e60       _fts3ExprGlobalHitsCb      100e7e60 f   interop.obj
 0001:000e6e90       _fts3BestSnippet           100e7e90 f   interop.obj
 0001:000e7010       _fts3OffsetsFunc           100e8010 f   interop.obj
 0001:000e7060       _fts5VocabFilterMethod     100e8060 f   interop.obj
 0001:000e71d0       _sqlite3Fts5IndexMerge     100e81d0 f   interop.obj
 0001:000e7270       _fts5IndexAutomerge        100e8270 f   interop.obj
 0001:000e7310       _fts5ExprAssignXNext       100e8310 f   interop.obj
 0001:000e7370       _sqlite3Fts5ExprClonePhrase 100e8370 f   interop.obj
 0001:000e7650       _fts5ExprNodeFirst         100e8650 f   interop.obj
 0001:000e7750       _sqlite3Fts3Snippet        100e8750 f   interop.obj
 0001:000e7a70       _fts3MatchinfoValues       100e8a70 f   interop.obj
 0001:000e7d30       $LN179                     100e8d30     * CIL library *:* CIL module *
 0001:000e7d50       $LN175                     100e8d50     * CIL library *:* CIL module *
 0001:000e7d70       _fts3SnippetFunc           100e8d70 f   interop.obj
 0001:000e7ee4       $LN212                     100e8ee4     * CIL library *:* CIL module *
 0001:000e7f00       _sqlite3Fts5VocabInit      100e8f00 f   interop.obj
 0001:000e7f60       _sqlite3Fts5StorageMerge   100e8f60 f   interop.obj
 0001:000e7f70       _fts5FlushOneHash          100e8f70 f   interop.obj
 0001:000e83c0       _sqlite3Fts5ParseNode      100e93c0 f   interop.obj
 0001:000e8560       _sqlite3Fts5ExprFirst      100e9560 f   interop.obj
 0001:000e85f0       _fts3GetMatchinfo          100e95f0 f   interop.obj
 0001:000e8820       _fts5CursorFirst           100e9820 f   interop.obj
 0001:000e8860       _fts5CursorReseek          100e9860 f   interop.obj
 0001:000e88f0       _fts5IndexFlush            100e98f0 f   interop.obj
 0001:000e8910       _sqlite3Fts5ParseImplicitAnd 100e9910 f   interop.obj
 0001:000e89e0       _fts5yy_reduce             100e99e0 f   interop.obj
 0001:000e8c8c       $LN450                     100e9c8c     * CIL library *:* CIL module *
 0001:000e8d00       _sqlite3Fts3Matchinfo      100e9d00 f   interop.obj
 0001:000e8d80       _fts3MatchinfoFunc         100e9d80 f   interop.obj
 0001:000e8dd0       _fts5NextMethod            100e9dd0 f   interop.obj
 0001:000e8e70       _sqlite3Fts5IndexSync      100e9e70 f   interop.obj
 0001:000e8eb0       _sqlite3Fts5IndexBeginWrite 100e9eb0 f   interop.obj
 0001:000e8f40       _sqlite3Fts5IndexOptimize  100e9f40 f   interop.obj
 0001:000e9010       _sqlite3Fts5Parser         100ea010 f   interop.obj
 0001:000e90f8       $LN324                     100ea0f8     * CIL library *:* CIL module *
 0001:000e9120       _fts3FindFunctionMethod    100ea120 f   interop.obj
 0001:000e91e0       _sqlite3Fts5StorageSync    100ea1e0 f   interop.obj
 0001:000e9240       _sqlite3Fts5StorageIndexInsert 100ea240 f   interop.obj
 0001:000e9380       _sqlite3Fts5StorageOptimize 100ea380 f   interop.obj
 0001:000e9390       _sqlite3Fts5StorageRebuild 100ea390 f   interop.obj
 0001:000e95d0       _fts5StorageDeleteFromIndex 100ea5d0 f   interop.obj
 0001:000e9760       _sqlite3Fts5StorageRename  100ea760 f   interop.obj
 0001:000e9840       _fts5ReleaseMethod         100ea840 f   interop.obj
 0001:000e9860       _fts5SavepointMethod       100ea860 f   interop.obj
 0001:000e9880       _fts5RenameMethod          100ea880 f   interop.obj
 0001:000e98a0       _fts5ApiQueryPhrase        100ea8a0 f   interop.obj
 0001:000e9990       _fts5SyncMethod            100ea990 f   interop.obj
 0001:000e99c0       _fts5StorageInsert         100ea9c0 f   interop.obj
 0001:000e9a10       _fts5SpecialInsert         100eaa10 f   interop.obj
 0001:000e9b80       _sqlite3Fts5ExprNew        100eab80 f   interop.obj
 0001:000e9d50       _sqlite3Fts5StorageDelete  100ead50 f   interop.obj
 0001:000e9e30       _fts5SpecialDelete         100eae30 f   interop.obj
 0001:000e9e70       _fts5FilterMethod          100eae70 f   interop.obj
 0001:000ea1f0       _fts5ExprFunction          100eb1f0 f   interop.obj
 0001:000ea440       _fts5UpdateMethod          100eb440 f   interop.obj
 0001:000ea710       _fts5ExprFunctionTcl       100eb710 f   interop.obj
 0001:000ea730       _fts5ExprFunctionHr        100eb730 f   interop.obj
 0001:000ea750       _sqlite3Fts5ExprInit       100eb750 f   interop.obj
 0001:000ea7e0       _fts5Init                  100eb7e0 f   interop.obj
 0001:000ea930       $$000000                   100eb930     LIBCMT:_ftol3_.obj
 0001:000eacb0       $$000000                   100ebcb0     LIBCMT:ulldiv.obj
 0001:000ead20       $$000000                   100ebd20     LIBCMT:llshr.obj
 0001:000ead50       $$000000                   100ebd50     LIBCMT:ullrem.obj
 0001:000eadd0       $$000000                   100ebdd0     libucrt:87ctrigh.obj
 0001:000eae00       $$000000                   100ebe00     libucrt:tan_sse2_precise.obj
 0001:000eb070       $$000000                   100ec070     libucrt:87ctriga.obj
 0001:000eb090       $$000000                   100ec090     libucrt:floor_pentium4.obj
 0001:000eb190       $$000000                   100ec190     libucrt:sqrt_sse2_precise.obj
 0001:000eb290       $$000000                   100ec290     libucrt:pow_sse2_precise.obj
 0001:000ebde0       $$000000                   100ecde0     libucrt:exp_sse2_precise.obj
 0001:000ec0c0       $$000000                   100ed0c0     libucrt:log10_sse2_precise.obj
 0001:000ec370       $$000000                   100ed370     libucrt:log_sse2_precise.obj
 0001:000ec600       $$000000                   100ed600     libucrt:cos_sse2_precise.obj
 0001:000ec7c0       $$000000                   100ed7c0     libucrt:sin_sse2_precise.obj
 0001:000ec990       $$000000                   100ed990     libucrt:atan_sse2_precise.obj
 0001:000ecc80       $$000000                   100edc80     libucrt:asin_sse2_precise.obj
 0001:000ed1d0       $$000000                   100ee1d0     libucrt:acos_sse2_precise.obj
 0001:000ed6f0       $$000000                   100ee6f0     libucrt:87trigh.obj
 0001:000ed7f0       $$000000                   100ee7f0     libucrt:87cdisp.obj
 0001:000eda80       $$000000                   100eea80     libucrt:tan.obj
 0001:000edbb0       $$000000                   100eebb0     libucrt:87triga.obj
 0001:000edd20       $$000000                   100eed20     libucrt:pow.obj
 0001:000edfb0       $$000000                   100eefb0     libucrt:87ctran.obj
 0001:000ee040       $$000000                   100ef040     libucrt:cos.obj
 0001:000ee170       $$000000                   100ef170     libucrt:sin.obj
 0001:000ee2a0       $$000000                   100ef2a0     libucrt:atan.obj
 0001:000ee3c0       $$000000                   100ef3c0     libucrt:asin.obj
 0001:000ee510       $$000000                   100ef510     libucrt:acos.obj
 0001:000ee660       $$000000                   100ef660     libucrt:tan_pentium4.obj
 0001:000ee8c0       $$000000                   100ef8c0     libucrt:pow_pentium4.obj
 0001:000ef3e0       $$000000                   100f03e0     libucrt:exp_pentium4.obj
 0001:000ef6a0       $$000000                   100f06a0     libucrt:cos_pentium4.obj
 0001:000ef850       $$000000                   100f0850     libucrt:sin_pentium4.obj
 0001:000efa20       $$000000                   100f0a20     libucrt:atan_pentium4.obj
 0001:000efcf0       $$000000                   100f0cf0     libucrt:asin_pentium4.obj
 0001:000f0270       $$000000                   100f1270     libucrt:acos_pentium4.obj
 0002:00000250       _GS_ExceptionPointers      100f2250     LIBCMT:gs_report.obj
 0002:0000025c       ?module_names@?A0x89697e75@@3QBQB_WB 100f225c     libvcruntime:winapi_downlevel.obj
 0002:0000030c       ?candidate_modules@?1??try_get_FlsAlloc@@YAP6GKP6GXPAX@Z@ZXZ@4QBW4module_id@?A0x89697e75@@B 100f230c     libvcruntime:winapi_downlevel.obj
 0002:00000320       ?candidate_modules@?1??try_get_FlsFree@@YAP6GHK@ZXZ@4QBW4module_id@?A0x89697e75@@B 100f2320     libvcruntime:winapi_downlevel.obj
 0002:00000330       ?candidate_modules@?1??try_get_FlsGetValue@@YAP6GPAXK@ZXZ@4QBW4module_id@?A0x89697e75@@B 100f2330     libvcruntime:winapi_downlevel.obj
 0002:00000344       ?candidate_modules@?1??try_get_FlsSetValue@@YAP6GHKPAX@ZXZ@4QBW4module_id@?A0x89697e75@@B 100f2344     libvcruntime:winapi_downlevel.obj
 0002:00000358       ?candidate_modules@?1??try_get_InitializeCriticalSectionEx@@YAP6GHPAU_RTL_CRITICAL_SECTION@@KK@ZXZ@4QBW4module_id@?A0x89697e75@@B 100f2358     libvcruntime:winapi_downlevel.obj
 0002:00000380       ?tokenTable@@3QBQBDB       100f2380     libvcruntime:undname.obj
 0002:000003b8       ?nameTable@@3QBQBDB        100f23b8     libvcruntime:undname.obj
 0002:000004fc       ?rttiTable@@3QBQBDB        100f24fc     libvcruntime:undname.obj
 0002:00000ab8       _errtable                  100f2ab8     libucrt:errno.obj
 0002:00000d30       ___acrt_initializers       100f2d30     libucrt:initialization.obj
 0002:00000da8       _module_names              100f2da8     libucrt:winapi_thunks.obj
 0002:00001248       ?candidate_modules@?1??try_get_CompareStringEx@@YAP6GHPB_WK0H0HPAU_nlsversioninfo@@PAXJ@ZXZ@4QBW4module_id@?A0x352e5c4b@@B 100f3248     libucrt:winapi_thunks.obj
 0002:00001260       ?candidate_modules@?1??try_get_FlsAlloc@@YAP6GKP6GXPAX@Z@ZXZ@4QBW4module_id@?A0x352e5c4b@@B 100f3260     libucrt:winapi_thunks.obj
 0002:00001268       ?candidate_modules@?1??try_get_FlsFree@@YAP6GHK@ZXZ@4QBW4module_id@?A0x352e5c4b@@B 100f3268     libucrt:winapi_thunks.obj
 0002:00001270       ?candidate_modules@?1??try_get_FlsGetValue@@YAP6GPAXK@ZXZ@4QBW4module_id@?A0x352e5c4b@@B 100f3270     libucrt:winapi_thunks.obj
 0002:00001278       ?candidate_modules@?1??try_get_FlsSetValue@@YAP6GHKPAX@ZXZ@4QBW4module_id@?A0x352e5c4b@@B 100f3278     libucrt:winapi_thunks.obj
 0002:00001280       ?candidate_modules@?1??try_get_GetCurrentPackageId@@YAP6GJPAIPAE@ZXZ@4QBW4module_id@?A0x352e5c4b@@B 100f3280     libucrt:winapi_thunks.obj
 0002:0000129c       ?candidate_modules@?1??try_get_InitializeCriticalSectionEx@@YAP6GHPAU_RTL_CRITICAL_SECTION@@KK@ZXZ@4QBW4module_id@?A0x352e5c4b@@B 100f329c     libucrt:winapi_thunks.obj
 0002:000012a4       ?candidate_modules@?1??try_get_LCMapStringEx@@YAP6GHPB_WK0HPA_WHPAU_nlsversioninfo@@PAXJ@ZXZ@4QBW4module_id@?A0x352e5c4b@@B 100f32a4     libucrt:winapi_thunks.obj
 0002:000012bc       ?candidate_modules@?1??try_get_LocaleNameToLCID@@YAP6GKPB_WK@ZXZ@4QBW4module_id@?A0x352e5c4b@@B 100f32bc     libucrt:winapi_thunks.obj
 0002:000012d8       ?candidate_modules@?1??try_get_RoInitialize@@YAP6GJW4RO_INIT_TYPE@@@ZXZ@4QBW4module_id@?A0x352e5c4b@@B 100f32d8     libucrt:winapi_thunks.obj
 0002:000012ec       ?candidate_modules@?1??try_get_RoUninitialize@@YAP6GXXZXZ@4QBW4module_id@?A0x352e5c4b@@B 100f32ec     libucrt:winapi_thunks.obj
 0002:00001de0       LOG_name                   100f3de0     libucrt:log.obj
 0002:00001df0       _NAME_                     100f3df0     libucrt:sqrt.obj
 0002:000021e4       __mb_locale_names          100f41e4     libucrt:mbctype.obj
 0002:00002228       _LcidToLocaleNameTable     100f4228     libucrt:lcidtoname_downlevel.obj
 0002:00003350       _LocaleNameToIndexTable    100f5350     libucrt:lcidtoname_downlevel.obj
 0002:00004310       emask                      100f6310     libucrt:log_pentium4.obj
 0002:00004320       Magic                      100f6320     libucrt:log_pentium4.obj
 0002:00004330       hi_mask                    100f6330     libucrt:log_pentium4.obj
 0002:00004340       LOG_2                      100f6340     libucrt:log_pentium4.obj
 0002:00004350       place_L                    100f6350     libucrt:log_pentium4.obj
 0002:00004370       One                        100f6370     libucrt:log_pentium4.obj
 0002:00004380       Zero                       100f6380     libucrt:log_pentium4.obj
 0002:00004390       Two52                      100f6390     libucrt:log_pentium4.obj
 0002:000043a0       Infs                       100f63a0     libucrt:log_pentium4.obj
 0002:000043b0       NaN                        100f63b0     libucrt:log_pentium4.obj
 0002:000043c0       coeff                      100f63c0     libucrt:log_pentium4.obj
 0002:0000440e       _log2max                   100f640e     libucrt:87tran.obj
 0002:00004418       _smallarg                  100f6418     libucrt:87tran.obj
 0002:00004422       _half                      100f6422     libucrt:87tran.obj
 0002:0000446e       One                        100f646e     libucrt:87disp.obj
 0002:00004476       Three                      100f6476     libucrt:87disp.obj
 0002:0000447e       XAMtoTagTab                100f647e     libucrt:87disp.obj
 0002:00004490       One                        100f6490     libucrt:common.obj
 0002:000044a4       DblMax                     100f64a4     libucrt:common.obj
 0002:000044ac       DblMin                     100f64ac     libucrt:common.obj
 0002:000044b4       IeeeAdjO                   100f64b4     libucrt:common.obj
 0002:000044bc       IeeeAdjU                   100f64bc     libucrt:common.obj
 0002:000044c4       _infinity                  100f64c4     libucrt:common.obj
 0002:000044cc       _zero                      100f64cc     libucrt:common.obj
 0002:00004d00       LOG_name                   100f6d00     libucrt:log10.obj
 0002:00004d10       _One                       100f6d10     libucrt:ceil_pentium4.obj
 0002:00004d20       _Bns                       100f6d20     libucrt:ceil_pentium4.obj
 0002:00004d30       _Zero                      100f6d30     libucrt:ceil_pentium4.obj
 0002:00004d40       _S                         100f6d40     libucrt:ceil_pentium4.obj
 0002:00004d50       _NegZero                   100f6d50     libucrt:ceil_pentium4.obj
 0002:00004dc8       ?_names@?1??_get_fname@@9@9 100f6dc8     libucrt:fpexcept.obj
 0002:00004eb0       _over                      100f6eb0     libucrt:fpctrl.obj
 0002:00004ebc       _under                     100f6ebc     libucrt:fpctrl.obj
 0002:00004ed0       emask                      100f6ed0     libucrt:log10_pentium4.obj
 0002:00004ee0       CC                         100f6ee0     libucrt:log10_pentium4.obj
 0002:00004ef0       Magic                      100f6ef0     libucrt:log10_pentium4.obj
 0002:00004f00       hi_mask                    100f6f00     libucrt:log10_pentium4.obj
 0002:00004f10       LOG10_2                    100f6f10     libucrt:log10_pentium4.obj
 0002:00004f20       place_L                    100f6f20     libucrt:log10_pentium4.obj
 0002:00004f40       One                        100f6f40     libucrt:log10_pentium4.obj
 0002:00004f50       Zero                       100f6f50     libucrt:log10_pentium4.obj
 0002:00004f60       Two52                      100f6f60     libucrt:log10_pentium4.obj
 0002:00004f70       Infs                       100f6f70     libucrt:log10_pentium4.obj
 0002:00004f80       NaN                        100f6f80     libucrt:log10_pentium4.obj
 0002:00004f90       coeff                      100f6f90     libucrt:log10_pentium4.obj
 0002:0000eef0       ?max32BitValue@?1??winCurrentTimeInt64@@9@9 10100ef0     interop.obj
 0002:0000eef8       ?aEnc@?1??synthCollSeq@@9@9 10100ef8     interop.obj
 0002:0000eefb       ?zerobyte@?5??syncJournal@@9@9 10100efb     interop.obj
 0002:0000eefc       ?defaultMethods@?1??sqlite3PCacheSetDefault@@9@9 10100efc     interop.obj
 0002:0000ef30       ?isFtsIdChar@?1??sqlite3Fts3IsIdChar@@9@9 10100f30     interop.obj
 0002:0000efb0       _winIoNolockMethod         10100fb0     interop.obj
 0002:0000effc       ?vfsFlags@?BBH@??sqlite3VdbeExec@@9@9 10100ffc     interop.obj
 0002:0000f000       ?aSpecial@?5??jsonAppendString@@9@9 10101000     interop.obj
 0002:0000f020       ?aMsg@?1??sqlite3ErrStr@@9@9 10101020     interop.obj
 0002:0000f094       ?readCookie@?MG@??sqlite3Pragma@@9@9 10101094     interop.obj
 0002:0000f0a0       ?encnames@?LM@??sqlite3Pragma@@9@9 101010a0     interop.obj
 0002:0000f0e8       _fts5yy_lookahead          101010e8     interop.obj
 0002:0000f161       ?fakeSortOrder@?1??sqlite3VdbePreUpdateHook@@9@9 10101161     interop.obj
 0002:0000f162       ?lenOne@?3??trimFunc@@9@9  10101162     interop.obj
 0002:0000f164       ?zTrans@?1??re_esc_char@@9@9 10101164     interop.obj
 0002:0000f170       ?azSql@?1??rtreeSqlInit@@9@9 10101170     interop.obj
 0002:0000f190       ?aKeyword@?1??getNextNode@@9@9 10101190     interop.obj
 0002:0000f1b0       ?aGTb@?HH@??sqlite3VdbeExec@@9@9 101011b0     interop.obj
 0002:0000f1b8       _winIoMethod               101011b8     interop.obj
 0002:0000f204       ?az@?2??sqlite3Savepoint@@9@9 10101204     interop.obj
 0002:0000f210       _sqlite3Utf8Trans1         10101210     interop.obj
 0002:0000f250       _likeInfoNorm              10101250     interop.obj
 0002:0000f254       ?iLn@?3??sqlite3AutoincrementBegin@@9@9 10101254     interop.obj
 0002:0000f258       _aPrefix                   10101258     interop.obj
 0002:0000f260       ?iLn@?3??autoIncrementEnd@@9@9 10101260     interop.obj
 0002:0000f264       ?detach_func@?1??sqlite3Detach@@9@9 10101264     interop.obj
 0002:0000f280       ?autoInc@?3??sqlite3AutoincrementBegin@@9@9 10101280     interop.obj
 0002:0000f2b0       ?aFuncs@?1??RegisterExtensionFunctions@@9@9 101012b0     interop.obj
 0002:0000f4a8       ?iLn@?BM@??sqlite3_blob_open@@9@9 101014a8     interop.obj
 0002:0000f4b0       _zKWText                   101014b0     interop.obj
 0002:0000f6e0       ?aFunc@?1??sqlite3Json1Init@@9@9 101016e0     interop.obj
 0002:0000f7d0       _aKWLen                    101017d0     interop.obj
 0002:0000f850       _cType                     10101850     interop.obj
 0002:0000f86c       ?zText@?1??getSafetyLevel@@9@9 1010186c     interop.obj
 0002:0000f888       ?nullRow@?BC@??sqlite3StartTable@@9@9 10101888     interop.obj
 0002:0000f890       ?aEntry@?1??sqlite3Fts5UnicodeFold@@9@9 10101890     interop.obj
 0002:0000fb20       ?aAgg@?1??sqlite3Json1Init@@9@9 10101b20     interop.obj
 0002:0000fb40       ?aEntry@?1??sqlite3FtsUnicodeIsalnum@@9@9 10101b40     interop.obj
 0002:00010198       _yy_default                10102198     interop.obj
 0002:00010570       _jsonIsSpace               10102570     interop.obj
 0002:00010670       ?fts5Mod@?1??fts5Init@@9@9 10102670     interop.obj
 0002:000106cc       ?aCode@?6??sqlite3StartTable@@9@9 101026cc     interop.obj
 0002:000106d0       ?aiOff@?1??sqlite3FtsUnicodeFold@@9@9 101026d0     interop.obj
 0002:00010770       ?aEntry@?1??sqlite3Fts5UnicodeIsalnum@@9@9 10102770     interop.obj
 0002:00010dc8       _yyRuleInfo                10102dc8     interop.obj
 0002:00011074       ?azType@?BG@??sqlite3VdbeExec@@9@9 10103074     interop.obj
 0002:00011084       _fts5yy_default            10103084     interop.obj
 0002:000110a8       ?aEndOp@?BP@??sqlite3WhereCodeOneLoopStart@@9@9 101030a8     interop.obj
 0002:000110b0       _aKWOffset                 101030b0     interop.obj
 0002:000111b0       ?zEsc@?1??re_esc_char@@9@9 101031b0     interop.obj
 0002:000111c8       _xtra_utf8_bits            101031c8     interop.obj
 0002:000111d8       _pragmaVtabModule          101031d8     interop.obj
 0002:00011234       ?totals@?1??sqliteDefaultBusyCallback@@9@9 10103234     interop.obj
 0002:00011240       ?ops@?BD@??exprAnalyze@@9@9 10103240     interop.obj
 0002:00011244       ?azModeName@?1??sqlite3JournalModename@@9@9 10103244     interop.obj
 0002:0001125c       ?zeroHdr@?4??zeroJournalHdr@@9@9 1010325c     interop.obj
 0002:00011278       ?colmask@?1??sqlite3Fts5PoslistSafeAppend@@9@9 10103278     interop.obj
 0002:00011280       ?aEntry@?1??sqlite3FtsUnicodeFold@@9@9 10103280     interop.obj
 0002:0001150c       ?aAscii@?1??sqlite3FtsUnicodeIsalnum@@9@9 1010350c     interop.obj
 0002:0001151c       ?azEndings@?1??sqlite3LoadExtension@@9@9 1010351c     interop.obj
 0002:00011520       ?aiOff@?1??sqlite3Fts5UnicodeFold@@9@9 10103520     interop.obj
 0002:000115bc       _jsonType                  101035bc     interop.obj
 0002:000115dc       ?attach_func@?1??sqlite3Attach@@9@9 101035dc     interop.obj
 0002:000115f8       ?fts3aux_module@?1??sqlite3Fts3InitAux@@9@9 101035f8     interop.obj
 0002:00011654       ?aEQb@?HG@??sqlite3VdbeExec@@9@9 10103654     interop.obj
 0002:00011660       ?autoIncEnd@?3??autoIncrementEnd@@9@9 10103660     interop.obj
 0002:00011674       ?or_logic@?IK@??sqlite3VdbeExec@@9@9 10103674     interop.obj
 0002:00011680       _aKWCode                   10103680     interop.obj
 0002:00011700       _MemJournalMethods         10103700     interop.obj
 0002:00011750       _azInteropCompileOpt       10103750     interop.obj
 0002:00011778       ?minInt@?1??doubleToInt64@@9@9 10103778     interop.obj
 0002:00011780       _aXformType                10103780     interop.obj
 0002:00011810       ?azColName@?BA@??sqlite3Prepare@@9@9 10103810     interop.obj
 0002:00011840       ?aTable@?1??openStatTable@@9@9 10103840     interop.obj
 0002:00011858       ?aMJNeeded@?4??vdbeCommit@@9@9 10103858     interop.obj
 0002:00011860       _aDigits                   10103860     interop.obj
 0002:00011884       _aHardLimit                10103884     interop.obj
 0002:000118b4       _statMutex                 101038b4     interop.obj
 0002:000118c0       ?aFlagOp@?5??sqlite3_db_config@@9@9 101038c0     interop.obj
 0002:00011900       _pragCName                 10103900     interop.obj
 0002:000119d0       _sqlite3CtypeMap           101039d0     interop.obj
 0002:00011ad8       ?iOffset@?1??getSafetyLevel@@9@9 10103ad8     interop.obj
 0002:00011ae0       ?azType@?8??createTableStmt@@9@9 10103ae0     interop.obj
 0002:00011af4       _likeInfoAlt               10103af4     interop.obj
 0002:00011af8       ?fts3tok_module@?1??sqlite3Fts3InitTok@@9@9 10103af8     interop.obj
 0002:00011b54       ?azType@?1??typeofFunc@@9@9 10103b54     interop.obj
 0002:00011b68       ?iLn@?LK@??sqlite3Pragma@@9@9 10103b68     interop.obj
 0002:00011b70       ?getCacheSize@?N@??sqlite3Pragma@@9@9 10103b70     interop.obj
 0002:00011b94       _fts5yy_reduce_ofst        10103b94     interop.obj
 0002:00011ba8       _yy_reduce_ofst            10103ba8     interop.obj
 0002:00011e68       _sqlite3StrBINARY          10103e68     interop.obj
 0002:00011e70       ?aMod@?1??sqlite3Json1Init@@9@9 10103e70     interop.obj
 0002:00011e80       _globInfo                  10103e80     interop.obj
 0002:00011e84       ?and_logic@?IJ@??sqlite3VdbeExec@@9@9 10103e84     interop.obj
 0002:00011e90       ?x@?1??sqlite3Pow10@@9@9   10103e90     interop.obj
 0002:00011ed8       ?aStep@?GD@??sqlite3WhereCodeOneLoopStart@@9@9 10103ed8     interop.obj
 0002:00011ee0       ?aOp@?2??isAuxiliaryVtabOperator@@9@9 10103ee0     interop.obj
 0002:00011f00       _sqlite3SmallTypeSizes     10103f00     interop.obj
 0002:00011f80       ?aLen@?2??vdbeSorterCompareInt@@9@9 10103f80     interop.obj
 0002:00011f8c       ?aAscii@?1??sqlite3Fts5UnicodeIsalnum@@9@9 10103f8c     interop.obj
 0002:00011f9c       ?aMx@?1??getDigits@@9@9    10103f9c     interop.obj
 0002:00011fa8       _porterTokenizerModule     10103fa8     interop.obj
 0002:00011fc4       ?azOne@?3??trimFunc@@9@9   10103fc4     interop.obj
 0002:00011fc8       _xtra_utf8_bytes           10103fc8     interop.obj
 0002:000120c8       _sqlite3Apis               101040c8     interop.obj
 0002:00012484       _statGetFuncdef            10104484     interop.obj
 0002:000124a0       ?iLength@?1??getSafetyLevel@@9@9 101044a0     interop.obj
 0002:000124a8       ?nullMem@?1??columnNullValue@@9@9 101044a8     interop.obj
 0002:000124d0       _sqlite3UpperToLower       101044d0     interop.obj
 0002:000125d0       ?a@?1??sqlite3LogEst@@9@9  101045d0     interop.obj
 0002:000125e0       _sFts5Api                  101045e0     interop.obj
 0002:00012630       ?fts5Vocab@?1??sqlite3Fts5VocabInit@@9@9 10104630     interop.obj
 0002:0001268c       _statInitFuncdef           1010468c     interop.obj
 0002:000126a8       ?delays@?1??sqliteDefaultBusyCallback@@9@9 101046a8     interop.obj
 0002:000126b4       ?aFlag@?LM@??sqlite3VdbeExec@@9@9 101046b4     interop.obj
 0002:000126b8       _simpleTokenizerModule     101046b8     interop.obj
 0002:000126d4       _aJournalMagic             101046d4     interop.obj
 0002:000126e0       _aPragmaName               101046e0     interop.obj
 0002:000129e0       _fts5yy_action             101049e0     interop.obj
 0002:00012a50       _hexdigits                 10104a50     interop.obj
 0002:00012a60       ?aKeyword@?1??sqlite3JoinType@@9@9 10104a60     interop.obj
 0002:00012a78       _yy_action                 10104a78     interop.obj
 0002:0001376c       ?zKeyText@?1??sqlite3JoinType@@9@9 1010576c     interop.obj
 0002:00013790       _sqlite3azCompileOpt       10105790     interop.obj
 0002:000137d4       _utf_mask                  101057d4     interop.obj
 0002:000137e4       ?aStartOp@?BP@??sqlite3WhereCodeOneLoopStart@@9@9 101057e4     interop.obj
 0002:000137f0       _sqlite3OpcodeProperty     101057f0     interop.obj
 0002:0001389c       _sqlite3IntTokens          1010589c     interop.obj
 0002:000138ac       ?aFlag@?N@??sqlite3VdbeSerialGet@@9@9 101058ac     interop.obj
 0002:000138b0       ?maxInt@?1??doubleToInt64@@9@9 101058b0     interop.obj
 0002:000138b8       ?setCookie@?MF@??sqlite3Pragma@@9@9 101058b8     interop.obj
 0002:000138c0       ?iCode@?1??soundexFunc@@9@9 101058c0     interop.obj
 0002:00013940       ?winMemMethods@?1??sqlite3MemGetWin32@@9@9 10105940     interop.obj
 0002:00013960       _yy_lookahead              10105960     interop.obj
 0002:00014070       ?endCode@?LK@??sqlite3Pragma@@9@9 10106070     interop.obj
 0002:00014090       _porterIdChar              10106090     interop.obj
 0002:000140e0       ?zEncode@?1??hash_finish@@9@9 101060e0     interop.obj
 0002:000140f4       ?x@?1??sqlite3LogEstAdd@@9@9 101060f4     interop.obj
 0002:00014114       ?iLn@?DE@??sqlite3Pragma@@9@9 10106114     interop.obj
 0002:00014118       ?zero@?1??fts5WriteFlushLeaf@@9@9 10106118     interop.obj
 0002:00014120       _fmtinfo                   10106120     interop.obj
 0002:000141ac       ?aType@?1??sqlite3_value_type@@9@9 101061ac     interop.obj
 0002:000141cc       _fts5yy_shift_ofst         101061cc     interop.obj
 0002:000141f0       _yy_shift_ofst             101061f0     interop.obj
 0002:000145c4       ?iLn@?N@??sqlite3Pragma@@9@9 101065c4     interop.obj
 0002:000145c8       _zMagicHeader              101065c8     interop.obj
 0002:000145d8       ?sMutex@?1??sqlite3DefaultMutex@@9@9 101065d8     interop.obj
 0002:00014600       ?aAggs@?1??RegisterExtensionFunctions@@9@9 10106600     interop.obj
 0002:00014660       ?aLTb@?HF@??sqlite3VdbeExec@@9@9 10106660     interop.obj
 0002:00014668       ?sMutex@?1??sqlite3NoopMutex@@9@9 10106668     interop.obj
 0002:00014690       _yyFallback                10106690     interop.obj
 0002:000146e4       ?aStart@?GD@??sqlite3WhereCodeOneLoopStart@@9@9 101066e4     interop.obj
 0002:000146e8       ?winFiletimeEpoch@?1??winCurrentTimeInt64@@9@9 101066e8     interop.obj
 0002:000146f0       ?zChars@?1??winGetTempname@@9@9 101066f0     interop.obj
 0002:00014730       ?iValue@?1??getSafetyLevel@@9@9 10106730     interop.obj
 0002:00014738       ?flags@?2??sqlite3OpenTempDatabase@@9@9 10106738     interop.obj
 0002:00014740       _aiClass                   10106740     interop.obj
 0002:00014840       _statPushFuncdef           10106840     interop.obj
 0002:0001485c       ?module@?1??sqlite3Fts3UnicodeTokenizer@@9@9 1010685c     interop.obj
 0002:00014878       _fts3Module                10106878     interop.obj
 0002:000148d4       ?outOfMem@?1??sqlite3_errmsg16@@9@9 101068d4     interop.obj
 0002:000148f0       ?trans@?1??sqlite3_complete@@9@9 101068f0     interop.obj
 0002:00014930       ?zOrd@?DF@??sqlite3_str_vappendf@@9@9 10106930     interop.obj
 0002:00014940       ?setMeta6@?DE@??sqlite3Pragma@@9@9 10106940     interop.obj
 0002:00014954       _fts5yyRuleInfo            10106954     interop.obj
 0002:0001498c       ?aCopy@?7??sqlite3RunVacuum@@9@9 1010698c     interop.obj
 0002:00014998       ?aMap@?1??sqlite3_vtab_on_conflict@@9@9 10106998     interop.obj
 0002:000149a0       ?iCode@?1??soundex@@9@9    101069a0     interop.obj
 0002:00014a20       _aKWHash                   10106a20     interop.obj
 0002:00014aa0       ?azName@?1??sqlite3OpcodeName@@9@9 10106aa0     interop.obj
 0002:00014d50       _aKWNext                   10106d50     interop.obj
 0002:00014dd0       ?openBlob@?BM@??sqlite3_blob_open@@9@9 10106dd0     interop.obj
 0002:00014de8       ?misuse@?1??sqlite3_errmsg16@@9@9 10106de8     interop.obj
 0002:00014e80       _Int32ToUInt32             10106e80     LIBCMT:_ftol3_.obj
 0002:00014e88       _DP2to32                   10106e88     LIBCMT:_ftol3_.obj
 0002:00014e90       _MantissaMask              10106e90     LIBCMT:_ftol3_.obj
 0002:00014e98       _IntegerBit                10106e98     LIBCMT:_ftol3_.obj
 0002:00014ea0       _SignBit64                 10106ea0     LIBCMT:_ftol3_.obj
 0002:00014ea8       _MinFP64                   10106ea8     LIBCMT:_ftol3_.obj
 0002:00014eb0       _MinInt64                  10106eb0     LIBCMT:_ftol3_.obj
 0002:00014eb8       _MaxInt64                  10106eb8     LIBCMT:_ftol3_.obj
 0002:00014ec0       _MaxUInt64                 10106ec0     LIBCMT:_ftol3_.obj
 0002:00014ec8       _MaxFP32                   10106ec8     LIBCMT:_ftol3_.obj
 0002:00014ed0       _MinFP32                   10106ed0     LIBCMT:_ftol3_.obj
 0002:00014ed8       _MinSubInexact             10106ed8     LIBCMT:_ftol3_.obj
 0002:00014ee0       _FpExcptTable              10106ee0     LIBCMT:_ftol3_.obj
 0002:00014ef0       _i1075                     10106ef0     LIBCMT:_ftol3_.obj
 0002:00014ef4       _i1087                     10106ef4     LIBCMT:_ftol3_.obj
 0002:00014ef8       _x0800                     10106ef8     LIBCMT:_ftol3_.obj
 0002:00014efc       _x17FF                     10106efc     LIBCMT:_ftol3_.obj
 0002:00014f00       _CWMask                    10106f00     LIBCMT:_ftol3_.obj
 0002:00014f10       PI32INV                    10106f10     libucrt:tan_sse2_precise.obj
 0002:00014f20       SHIFTER                    10106f20     libucrt:tan_sse2_precise.obj
 0002:00014f30       P_1                        10106f30     libucrt:tan_sse2_precise.obj
 0002:00014f40       P_2                        10106f40     libucrt:tan_sse2_precise.obj
 0002:00014f50       P_3                        10106f50     libucrt:tan_sse2_precise.obj
 0002:00014f60       QQ_2                       10106f60     libucrt:tan_sse2_precise.obj
 0002:00014f68       ONE                        10106f68     libucrt:tan_sse2_precise.obj
 0002:00014f70       MASK_35                    10106f70     libucrt:tan_sse2_precise.obj
 0002:00014f80       sign_mask                  10106f80     libucrt:tan_sse2_precise.obj
 0002:00014f88       TWO_POW_55                 10106f88     libucrt:tan_sse2_precise.obj
 0002:00014f90       TWO_POW_M55                10106f90     libucrt:tan_sse2_precise.obj
 0002:00014f98       TWO_POW_M53                10106f98     libucrt:tan_sse2_precise.obj
 0002:00014fa0       INF                        10106fa0     libucrt:tan_sse2_precise.obj
 0002:00014fb0       _One                       10106fb0     libucrt:floor_pentium4.obj
 0002:00014fc0       _Bns                       10106fc0     libucrt:floor_pentium4.obj
 0002:00014fd0       _NegOne                    10106fd0     libucrt:floor_pentium4.obj
 0002:00014fe0       _NegZero                   10106fe0     libucrt:floor_pentium4.obj
 0002:00014ff0       _S                         10106ff0     libucrt:floor_pentium4.obj
 0002:00015000       Shifter                    10107000     libucrt:pow_sse2_precise.obj
 0002:00015010       SIGMASK                    10107010     libucrt:pow_sse2_precise.obj
 0002:00015020       ONEMASK                    10107020     libucrt:pow_sse2_precise.obj
 0002:00015030       ABSVALMASK                 10107030     libucrt:pow_sse2_precise.obj
 0002:00015040       cev                        10107040     libucrt:pow_sse2_precise.obj
 0002:00015068       HALFSIG                    10107068     libucrt:pow_sse2_precise.obj
 0002:00015070       LHN                        10107070     libucrt:pow_sse2_precise.obj
 0002:00015078       sNaN                       10107078     libucrt:pow_sse2_precise.obj
 0002:00015080       INF                        10107080     libucrt:pow_sse2_precise.obj
 0002:00015088       NEG_INF                    10107088     libucrt:pow_sse2_precise.obj
 0002:00015090       NEG_ZERO                   10107090     libucrt:pow_sse2_precise.obj
 0002:00015098       NEG_BIG                    10107098     libucrt:pow_sse2_precise.obj
 0002:000150a0       POS_BIG                    101070a0     libucrt:pow_sse2_precise.obj
 0002:000150a8       EMIN                       101070a8     libucrt:pow_sse2_precise.obj
 0002:000150b0       QIND                       101070b0     libucrt:pow_sse2_precise.obj
 0002:000150c0       smask                      101070c0     libucrt:exp_sse2_precise.obj
 0002:000150d0       emask                      101070d0     libucrt:exp_sse2_precise.obj
 0002:000150e0       mmask                      101070e0     libucrt:exp_sse2_precise.obj
 0002:000150f0       bias                       101070f0     libucrt:exp_sse2_precise.obj
 0002:00015100       Shifter                    10107100     libucrt:exp_sse2_precise.obj
 0002:00015110       twom60                     10107110     libucrt:exp_sse2_precise.obj
 0002:00015120       cv                         10107120     libucrt:exp_sse2_precise.obj
 0002:00015170       ONE_val                    10107170     libucrt:exp_sse2_precise.obj
 0002:00015178       EMIN                       10107178     libucrt:exp_sse2_precise.obj
 0002:00015180       MAX_ARG                    10107180     libucrt:exp_sse2_precise.obj
 0002:00015188       MIN_ARG                    10107188     libucrt:exp_sse2_precise.obj
 0002:00015190       INF                        10107190     libucrt:exp_sse2_precise.obj
 0002:00015198       QNAN_BIT                   10107198     libucrt:exp_sse2_precise.obj
 0002:000151a0       ZERO                       101071a0     libucrt:exp_sse2_precise.obj
 0002:000151a8       XMAX                       101071a8     libucrt:exp_sse2_precise.obj
 0002:000151b0       XMIN                       101071b0     libucrt:exp_sse2_precise.obj
 0002:000151b8       Sm_Thres                   101071b8     libucrt:exp_sse2_precise.obj
 0002:000151c0       Del_Thres                  101071c0     libucrt:exp_sse2_precise.obj
 0002:000151d0       emask                      101071d0     libucrt:log10_sse2_precise.obj
 0002:000151e0       CC                         101071e0     libucrt:log10_sse2_precise.obj
 0002:000151f0       Magic                      101071f0     libucrt:log10_sse2_precise.obj
 0002:00015200       hi_mask                    10107200     libucrt:log10_sse2_precise.obj
 0002:00015210       LOG10_2                    10107210     libucrt:log10_sse2_precise.obj
 0002:00015220       place_L                    10107220     libucrt:log10_sse2_precise.obj
 0002:00015240       One                        10107240     libucrt:log10_sse2_precise.obj
 0002:00015250       Zero                       10107250     libucrt:log10_sse2_precise.obj
 0002:00015260       Two52                      10107260     libucrt:log10_sse2_precise.obj
 0002:00015270       Infs                       10107270     libucrt:log10_sse2_precise.obj
 0002:00015280       NaN                        10107280     libucrt:log10_sse2_precise.obj
 0002:00015290       coeff                      10107290     libucrt:log10_sse2_precise.obj
 0002:000152d0       emask                      101072d0     libucrt:log_sse2_precise.obj
 0002:000152e0       Magic                      101072e0     libucrt:log_sse2_precise.obj
 0002:000152f0       hi_mask                    101072f0     libucrt:log_sse2_precise.obj
 0002:00015300       LOG_2                      10107300     libucrt:log_sse2_precise.obj
 0002:00015310       place_L                    10107310     libucrt:log_sse2_precise.obj
 0002:00015330       One                        10107330     libucrt:log_sse2_precise.obj
 0002:00015340       Zero                       10107340     libucrt:log_sse2_precise.obj
 0002:00015350       Two52                      10107350     libucrt:log_sse2_precise.obj
 0002:00015360       Infs                       10107360     libucrt:log_sse2_precise.obj
 0002:00015370       NaN                        10107370     libucrt:log_sse2_precise.obj
 0002:00015380       coeff                      10107380     libucrt:log_sse2_precise.obj
 0002:000153b0       SC_1                       101073b0     libucrt:cos_sse2_precise.obj
 0002:000153c0       SC_2                       101073c0     libucrt:cos_sse2_precise.obj
 0002:000153d0       SC_3                       101073d0     libucrt:cos_sse2_precise.obj
 0002:000153e0       SC_4                       101073e0     libucrt:cos_sse2_precise.obj
 0002:000153f0       PI32INV                    101073f0     libucrt:cos_sse2_precise.obj
 0002:000153f8       SHIFTER                    101073f8     libucrt:cos_sse2_precise.obj
 0002:00015400       P_2                        10107400     libucrt:cos_sse2_precise.obj
 0002:00015410       P_1                        10107410     libucrt:cos_sse2_precise.obj
 0002:00015418       P_3                        10107418     libucrt:cos_sse2_precise.obj
 0002:00015420       TWO_POW_55                 10107420     libucrt:cos_sse2_precise.obj
 0002:00015428       TWO_POW_M55                10107428     libucrt:cos_sse2_precise.obj
 0002:00015430       ALL_ONES                   10107430     libucrt:cos_sse2_precise.obj
 0002:00015438       NEG_ZERO                   10107438     libucrt:cos_sse2_precise.obj
 0002:00015440       ONE                        10107440     libucrt:cos_sse2_precise.obj
 0002:00015450       SIGN_MASK                  10107450     libucrt:cos_sse2_precise.obj
 0002:00015460       SC_1                       10107460     libucrt:sin_sse2_precise.obj
 0002:00015470       SC_2                       10107470     libucrt:sin_sse2_precise.obj
 0002:00015480       SC_3                       10107480     libucrt:sin_sse2_precise.obj
 0002:00015490       SC_4                       10107490     libucrt:sin_sse2_precise.obj
 0002:000154a0       PI32INV                    101074a0     libucrt:sin_sse2_precise.obj
 0002:000154a8       SHIFTER                    101074a8     libucrt:sin_sse2_precise.obj
 0002:000154b0       P_2                        101074b0     libucrt:sin_sse2_precise.obj
 0002:000154c0       P_1                        101074c0     libucrt:sin_sse2_precise.obj
 0002:000154c8       P_3                        101074c8     libucrt:sin_sse2_precise.obj
 0002:000154d0       TWO_POW_55                 101074d0     libucrt:sin_sse2_precise.obj
 0002:000154d8       TWO_POW_M55                101074d8     libucrt:sin_sse2_precise.obj
 0002:000154e0       ALL_ONES                   101074e0     libucrt:sin_sse2_precise.obj
 0002:000154e8       NEG_ZERO                   101074e8     libucrt:sin_sse2_precise.obj
 0002:000154f0       ONE                        101074f0     libucrt:sin_sse2_precise.obj
 0002:00015500       _mexp                      10107500     libucrt:atan_sse2_precise.obj
 0002:00015510       _mabs                      10107510     libucrt:atan_sse2_precise.obj
 0002:00015520       _pi_2d                     10107520     libucrt:atan_sse2_precise.obj
 0002:00015530       _d1400                     10107530     libucrt:atan_sse2_precise.obj
 0002:00015540       _d1213                     10107540     libucrt:atan_sse2_precise.obj
 0002:00015550       _d1011                     10107550     libucrt:atan_sse2_precise.obj
 0002:00015560       _d89                       10107560     libucrt:atan_sse2_precise.obj
 0002:00015570       _d67                       10107570     libucrt:atan_sse2_precise.obj
 0002:00015580       _d45                       10107580     libucrt:atan_sse2_precise.obj
 0002:00015590       _d23                       10107590     libucrt:atan_sse2_precise.obj
 0002:000155a0       _d01                       101075a0     libucrt:atan_sse2_precise.obj
 0002:000155b0       _p60                       101075b0     libucrt:atan_sse2_precise.obj
 0002:000155c0       _p45                       101075c0     libucrt:atan_sse2_precise.obj
 0002:000155d0       _p23                       101075d0     libucrt:atan_sse2_precise.obj
 0002:000155e0       _p01                       101075e0     libucrt:atan_sse2_precise.obj
 0002:000155f0       _qnan_bit                  101075f0     libucrt:atan_sse2_precise.obj
 0002:000155f8       _cntshf                    101075f8     libucrt:atan_sse2_precise.obj
 0002:00015600       _zero                      10107600     libucrt:atan_sse2_precise.obj
 0002:00015608       _onen                      10107608     libucrt:atan_sse2_precise.obj
 0002:00015610       _one                       10107610     libucrt:atan_sse2_precise.obj
 0002:00015618       _cnst8                     10107618     libucrt:atan_sse2_precise.obj
 0002:00015620       _in3                       10107620     libucrt:atan_sse2_precise.obj
 0002:00015628       _in2                       10107628     libucrt:atan_sse2_precise.obj
 0002:00015630       _in1                       10107630     libucrt:atan_sse2_precise.obj
 0002:00015638       _in0                       10107638     libucrt:atan_sse2_precise.obj
 0002:00015640       _in                        10107640     libucrt:atan_sse2_precise.obj
 0002:00015648       _minval                    10107648     libucrt:atan_sse2_precise.obj
 0002:00015650       libm_small                 10107650     libucrt:atan_sse2_precise.obj
 0002:00015660       Shifter                    10107660     libucrt:asin_sse2_precise.obj
 0002:00015670       PI_BY_2                    10107670     libucrt:asin_sse2_precise.obj
 0002:00015680       SIGNMASK                   10107680     libucrt:asin_sse2_precise.obj
 0002:00015690       HALFMASK                   10107690     libucrt:asin_sse2_precise.obj
 0002:000156a0       HALFMASK2                  101076a0     libucrt:asin_sse2_precise.obj
 0002:000156a8       cv                         101076a8     libucrt:asin_sse2_precise.obj
 0002:000156c0       cv2                        101076c0     libucrt:asin_sse2_precise.obj
 0002:00015700       ABSVALMASK                 10107700     libucrt:asin_sse2_precise.obj
 0002:00015708       TMASK                      10107708     libucrt:asin_sse2_precise.obj
 0002:00015710       ONEMASK                    10107710     libucrt:asin_sse2_precise.obj
 0002:00015718       EMIN                       10107718     libucrt:asin_sse2_precise.obj
 0002:00015720       MAX_ARG                    10107720     libucrt:asin_sse2_precise.obj
 0002:00015728       MIN_ARG                    10107728     libucrt:asin_sse2_precise.obj
 0002:00015730       INF                        10107730     libucrt:asin_sse2_precise.obj
 0002:00015738       ZERO                       10107738     libucrt:asin_sse2_precise.obj
 0002:00015740       Shifter                    10107740     libucrt:acos_sse2_precise.obj
 0002:00015750       PI_BY_2                    10107750     libucrt:acos_sse2_precise.obj
 0002:00015760       NEG_PI                     10107760     libucrt:acos_sse2_precise.obj
 0002:00015770       PI                         10107770     libucrt:acos_sse2_precise.obj
 0002:00015780       SIGNMASK                   10107780     libucrt:acos_sse2_precise.obj
 0002:00015790       HALFMASK                   10107790     libucrt:acos_sse2_precise.obj
 0002:000157a0       HALFMASK2                  101077a0     libucrt:acos_sse2_precise.obj
 0002:000157b0       cv                         101077b0     libucrt:acos_sse2_precise.obj
 0002:000157d0       cv2                        101077d0     libucrt:acos_sse2_precise.obj
 0002:00015810       ABSVALMASK                 10107810     libucrt:acos_sse2_precise.obj
 0002:00015818       TMASK                      10107818     libucrt:acos_sse2_precise.obj
 0002:00015820       ONEMASK                    10107820     libucrt:acos_sse2_precise.obj
 0002:00015828       ONE_BY_2                   10107828     libucrt:acos_sse2_precise.obj
 0002:00015830       EMIN                       10107830     libucrt:acos_sse2_precise.obj
 0002:00015838       MAX_ARG                    10107838     libucrt:acos_sse2_precise.obj
 0002:00015840       MIN_ARG                    10107840     libucrt:acos_sse2_precise.obj
 0002:00015848       INF                        10107848     libucrt:acos_sse2_precise.obj
 0002:00015850       ZERO                       10107850     libucrt:acos_sse2_precise.obj
 0002:00015858       ALPHA                      10107858     libucrt:acos_sse2_precise.obj
 0002:00015860       _tanhmaxarg                10107860     libucrt:87trigh.obj
 0002:000158d0       DblMax                     101078d0     libucrt:87cdisp.obj
 0002:000158d8       DblMin                     101078d8     libucrt:87cdisp.obj
 0002:000158e0       IeeeAdjO                   101078e0     libucrt:87cdisp.obj
 0002:000158e8       IeeeAdjU                   101078e8     libucrt:87cdisp.obj
 0002:000158f0       _infinity                  101078f0     libucrt:87cdisp.obj
 0002:000158f8       _zero                      101078f8     libucrt:87cdisp.obj
 0002:00015900       _NAME_                     10107900     libucrt:tan.obj
 0002:00016f60       POW_name                   10108f60     libucrt:pow.obj
 0002:0001abf0       _NAME_                     1010cbf0     libucrt:cos.obj
 0002:0001b400       _NAME_                     1010d400     libucrt:sin.obj
 0002:0001b410       _NAME_                     1010d410     libucrt:atan.obj
 0002:0001cc30       _NAME_                     1010ec30     libucrt:asin.obj
 0002:0001e340       _NAME_                     10110340     libucrt:acos.obj
 0002:0001e350       PI32INV                    10110350     libucrt:tan_pentium4.obj
 0002:0001e360       SHIFTER                    10110360     libucrt:tan_pentium4.obj
 0002:0001e370       P_1                        10110370     libucrt:tan_pentium4.obj
 0002:0001e380       P_2                        10110380     libucrt:tan_pentium4.obj
 0002:0001e390       P_3                        10110390     libucrt:tan_pentium4.obj
 0002:0001e3a0       QQ_2                       101103a0     libucrt:tan_pentium4.obj
 0002:0001e3a8       ONE                        101103a8     libucrt:tan_pentium4.obj
 0002:0001e3b0       MASK_35                    101103b0     libucrt:tan_pentium4.obj
 0002:0001e3c0       sign_mask                  101103c0     libucrt:tan_pentium4.obj
 0002:0001e3c8       TWO_POW_55                 101103c8     libucrt:tan_pentium4.obj
 0002:0001e3d0       TWO_POW_M55                101103d0     libucrt:tan_pentium4.obj
 0002:0001e3d8       TWO_POW_M53                101103d8     libucrt:tan_pentium4.obj
 0002:0001e3e0       INF                        101103e0     libucrt:tan_pentium4.obj
 0002:0001e3f0       Shifter                    101103f0     libucrt:pow_pentium4.obj
 0002:0001e400       SIGMASK                    10110400     libucrt:pow_pentium4.obj
 0002:0001e410       ONEMASK                    10110410     libucrt:pow_pentium4.obj
 0002:0001e420       ABSVALMASK                 10110420     libucrt:pow_pentium4.obj
 0002:0001e430       cev                        10110430     libucrt:pow_pentium4.obj
 0002:0001e458       HALFSIG                    10110458     libucrt:pow_pentium4.obj
 0002:0001e460       LHN                        10110460     libucrt:pow_pentium4.obj
 0002:0001e468       sNaN                       10110468     libucrt:pow_pentium4.obj
 0002:0001e470       INF                        10110470     libucrt:pow_pentium4.obj
 0002:0001e478       NEG_INF                    10110478     libucrt:pow_pentium4.obj
 0002:0001e480       NEG_ZERO                   10110480     libucrt:pow_pentium4.obj
 0002:0001e488       NEG_BIG                    10110488     libucrt:pow_pentium4.obj
 0002:0001e490       POS_BIG                    10110490     libucrt:pow_pentium4.obj
 0002:0001e498       EMIN                       10110498     libucrt:pow_pentium4.obj
 0002:0001e4a0       QIND                       101104a0     libucrt:pow_pentium4.obj
 0002:0001e4b0       smask                      101104b0     libucrt:exp_pentium4.obj
 0002:0001e4c0       emask                      101104c0     libucrt:exp_pentium4.obj
 0002:0001e4d0       mmask                      101104d0     libucrt:exp_pentium4.obj
 0002:0001e4e0       bias                       101104e0     libucrt:exp_pentium4.obj
 0002:0001e4f0       Shifter                    101104f0     libucrt:exp_pentium4.obj
 0002:0001e500       twom60                     10110500     libucrt:exp_pentium4.obj
 0002:0001e510       cv                         10110510     libucrt:exp_pentium4.obj
 0002:0001e560       ONE_val                    10110560     libucrt:exp_pentium4.obj
 0002:0001e568       EMIN                       10110568     libucrt:exp_pentium4.obj
 0002:0001e570       MAX_ARG                    10110570     libucrt:exp_pentium4.obj
 0002:0001e578       MIN_ARG                    10110578     libucrt:exp_pentium4.obj
 0002:0001e580       INF                        10110580     libucrt:exp_pentium4.obj
 0002:0001e588       ZERO                       10110588     libucrt:exp_pentium4.obj
 0002:0001e590       XMAX                       10110590     libucrt:exp_pentium4.obj
 0002:0001e598       XMIN                       10110598     libucrt:exp_pentium4.obj
 0002:0001e5a0       Sm_Thres                   101105a0     libucrt:exp_pentium4.obj
 0002:0001e5a8       Del_Thres                  101105a8     libucrt:exp_pentium4.obj
 0002:0001e5b0       SC_1                       101105b0     libucrt:cos_pentium4.obj
 0002:0001e5c0       SC_2                       101105c0     libucrt:cos_pentium4.obj
 0002:0001e5d0       SC_3                       101105d0     libucrt:cos_pentium4.obj
 0002:0001e5e0       SC_4                       101105e0     libucrt:cos_pentium4.obj
 0002:0001e5f0       PI32INV                    101105f0     libucrt:cos_pentium4.obj
 0002:0001e5f8       SHIFTER                    101105f8     libucrt:cos_pentium4.obj
 0002:0001e600       P_2                        10110600     libucrt:cos_pentium4.obj
 0002:0001e610       P_1                        10110610     libucrt:cos_pentium4.obj
 0002:0001e618       P_3                        10110618     libucrt:cos_pentium4.obj
 0002:0001e620       TWO_POW_55                 10110620     libucrt:cos_pentium4.obj
 0002:0001e628       TWO_POW_M55                10110628     libucrt:cos_pentium4.obj
 0002:0001e630       ALL_ONES                   10110630     libucrt:cos_pentium4.obj
 0002:0001e638       NEG_ZERO                   10110638     libucrt:cos_pentium4.obj
 0002:0001e640       ONE                        10110640     libucrt:cos_pentium4.obj
 0002:0001e650       SIGN_MASK                  10110650     libucrt:cos_pentium4.obj
 0002:0001e660       SC_1                       10110660     libucrt:sin_pentium4.obj
 0002:0001e670       SC_2                       10110670     libucrt:sin_pentium4.obj
 0002:0001e680       SC_3                       10110680     libucrt:sin_pentium4.obj
 0002:0001e690       SC_4                       10110690     libucrt:sin_pentium4.obj
 0002:0001e6a0       PI32INV                    101106a0     libucrt:sin_pentium4.obj
 0002:0001e6a8       SHIFTER                    101106a8     libucrt:sin_pentium4.obj
 0002:0001e6b0       P_2                        101106b0     libucrt:sin_pentium4.obj
 0002:0001e6c0       P_1                        101106c0     libucrt:sin_pentium4.obj
 0002:0001e6c8       P_3                        101106c8     libucrt:sin_pentium4.obj
 0002:0001e6d0       TWO_POW_55                 101106d0     libucrt:sin_pentium4.obj
 0002:0001e6d8       TWO_POW_M55                101106d8     libucrt:sin_pentium4.obj
 0002:0001e6e0       ALL_ONES                   101106e0     libucrt:sin_pentium4.obj
 0002:0001e6e8       NEG_ZERO                   101106e8     libucrt:sin_pentium4.obj
 0002:0001e6f0       ONE                        101106f0     libucrt:sin_pentium4.obj
 0002:0001e700       _mexp                      10110700     libucrt:atan_pentium4.obj
 0002:0001e710       _mabs                      10110710     libucrt:atan_pentium4.obj
 0002:0001e720       _pi_2d                     10110720     libucrt:atan_pentium4.obj
 0002:0001e730       _d1400                     10110730     libucrt:atan_pentium4.obj
 0002:0001e740       _d1213                     10110740     libucrt:atan_pentium4.obj
 0002:0001e750       _d1011                     10110750     libucrt:atan_pentium4.obj
 0002:0001e760       _d89                       10110760     libucrt:atan_pentium4.obj
 0002:0001e770       _d67                       10110770     libucrt:atan_pentium4.obj
 0002:0001e780       _d45                       10110780     libucrt:atan_pentium4.obj
 0002:0001e790       _d23                       10110790     libucrt:atan_pentium4.obj
 0002:0001e7a0       _d01                       101107a0     libucrt:atan_pentium4.obj
 0002:0001e7b0       _p60                       101107b0     libucrt:atan_pentium4.obj
 0002:0001e7c0       _p45                       101107c0     libucrt:atan_pentium4.obj
 0002:0001e7d0       _p23                       101107d0     libucrt:atan_pentium4.obj
 0002:0001e7e0       _p01                       101107e0     libucrt:atan_pentium4.obj
 0002:0001e7f0       _cntshf                    101107f0     libucrt:atan_pentium4.obj
 0002:0001e7f8       _zero                      101107f8     libucrt:atan_pentium4.obj
 0002:0001e800       _onen                      10110800     libucrt:atan_pentium4.obj
 0002:0001e808       _one                       10110808     libucrt:atan_pentium4.obj
 0002:0001e810       _cnst8                     10110810     libucrt:atan_pentium4.obj
 0002:0001e818       _in3                       10110818     libucrt:atan_pentium4.obj
 0002:0001e820       _in2                       10110820     libucrt:atan_pentium4.obj
 0002:0001e828       _in1                       10110828     libucrt:atan_pentium4.obj
 0002:0001e830       _in0                       10110830     libucrt:atan_pentium4.obj
 0002:0001e838       _in                        10110838     libucrt:atan_pentium4.obj
 0002:0001e840       _minval                    10110840     libucrt:atan_pentium4.obj
 0002:0001e848       libm_small                 10110848     libucrt:atan_pentium4.obj
 0002:0001e850       Shifter                    10110850     libucrt:asin_pentium4.obj
 0002:0001e860       PI_BY_2                    10110860     libucrt:asin_pentium4.obj
 0002:0001e870       SIGNMASK                   10110870     libucrt:asin_pentium4.obj
 0002:0001e880       HALFMASK                   10110880     libucrt:asin_pentium4.obj
 0002:0001e890       HALFMASK2                  10110890     libucrt:asin_pentium4.obj
 0002:0001e898       cv                         10110898     libucrt:asin_pentium4.obj
 0002:0001e8b0       cv2                        101108b0     libucrt:asin_pentium4.obj
 0002:0001e8f0       ABSVALMASK                 101108f0     libucrt:asin_pentium4.obj
 0002:0001e8f8       TMASK                      101108f8     libucrt:asin_pentium4.obj
 0002:0001e900       ONEMASK                    10110900     libucrt:asin_pentium4.obj
 0002:0001e908       EMIN                       10110908     libucrt:asin_pentium4.obj
 0002:0001e910       MAX_ARG                    10110910     libucrt:asin_pentium4.obj
 0002:0001e918       MIN_ARG                    10110918     libucrt:asin_pentium4.obj
 0002:0001e920       INF                        10110920     libucrt:asin_pentium4.obj
 0002:0001e928       ZERO                       10110928     libucrt:asin_pentium4.obj
 0002:0001e930       Shifter                    10110930     libucrt:acos_pentium4.obj
 0002:0001e940       PI_BY_2                    10110940     libucrt:acos_pentium4.obj
 0002:0001e950       NEG_PI                     10110950     libucrt:acos_pentium4.obj
 0002:0001e960       PI                         10110960     libucrt:acos_pentium4.obj
 0002:0001e970       SIGNMASK                   10110970     libucrt:acos_pentium4.obj
 0002:0001e980       HALFMASK                   10110980     libucrt:acos_pentium4.obj
 0002:0001e990       HALFMASK2                  10110990     libucrt:acos_pentium4.obj
 0002:0001e9a0       cv                         101109a0     libucrt:acos_pentium4.obj
 0002:0001e9c0       cv2                        101109c0     libucrt:acos_pentium4.obj
 0002:0001ea00       ABSVALMASK                 10110a00     libucrt:acos_pentium4.obj
 0002:0001ea08       TMASK                      10110a08     libucrt:acos_pentium4.obj
 0002:0001ea10       ONEMASK                    10110a10     libucrt:acos_pentium4.obj
 0002:0001ea18       ONE_BY_2                   10110a18     libucrt:acos_pentium4.obj
 0002:0001ea20       EMIN                       10110a20     libucrt:acos_pentium4.obj
 0002:0001ea28       MAX_ARG                    10110a28     libucrt:acos_pentium4.obj
 0002:0001ea30       MIN_ARG                    10110a30     libucrt:acos_pentium4.obj
 0002:0001ea38       INF                        10110a38     libucrt:acos_pentium4.obj
 0002:0001ea40       ZERO                       10110a40     libucrt:acos_pentium4.obj
 0002:0001ea48       ALPHA                      10110a48     libucrt:acos_pentium4.obj
 0002:00056158       __sehtable$?dllmain_crt_process_attach@@YAHQAUHINSTANCE__@@QAX@Z 10148158     LIBCMT:dll_dllmain.obj
 0002:00056178       __sehtable$?dllmain_crt_process_detach@@YAH_N@Z 10148178     LIBCMT:dll_dllmain.obj
 0002:00056198       __sehtable$?dllmain_dispatch@@YAHQAUHINSTANCE__@@KQAX@Z 10148198     LIBCMT:dll_dllmain.obj
 0002:000561b8       __sehtable$___scrt_is_nonwritable_in_current_image 101481b8     LIBCMT:utility.obj
 0002:000561d8       __sehtable$??$thread_start@P6GIPAX@Z@@YGKQAX@Z 101481d8     libucrt:thread.obj
 0002:000561f8       __sehtable$?common_exit@@YAXHW4_crt_exit_cleanup_mode@@W4_crt_exit_return_mode@@@Z 101481f8     libucrt:exit.obj
 0002:00056220       __sehtable$??$?RV<lambda_800076c951b434888f4765a74a194fcc>@@AAV<lambda_4e60a939b0d047cfe11ddc22648dfba9>@@V<lambda_6dbb1268764f43b569ce7b67e331d33a>@@@?$__crt_seh_guarded_call@H@@QAEH$$QAV<lambda_800076c951b434888f4765a74a194fcc>@@AAV<lambda_4e60a939b0d047cfe11ddc22648dfba9>@@$$QAV<lambda_6dbb1268764f43b569ce7b67e331d33a>@@@Z 10148220     libucrt:onexit.obj
 0002:00056240       __sehtable$??$?RV<lambda_995298e7d72eb4c2aab26c0585b3abe5>@@AAV<lambda_275893d493268fdec8709772e3fcec0e>@@V<lambda_293819299cbf9a7022e18b56a874bb5c>@@@?$__crt_seh_guarded_call@H@@QAEH$$QAV<lambda_995298e7d72eb4c2aab26c0585b3abe5>@@AAV<lambda_275893d493268fdec8709772e3fcec0e>@@$$QAV<lambda_293819299cbf9a7022e18b56a874bb5c>@@@Z 10148240     libucrt:onexit.obj
 0002:00056260       __sehtable$_terminate      10148260     libucrt:terminate.obj
 0002:00056280       __sehtable$??$?RV<lambda_9df27f884b057bc3edfc946cb5b7cf47>@@AAV<lambda_e69574bed617af4e071282c136b37893>@@V<lambda_cc0d902bcbbeb830f749456577db4721>@@@?$__crt_seh_guarded_call@X@@QAEX$$QAV<lambda_9df27f884b057bc3edfc946cb5b7cf47>@@AAV<lambda_e69574bed617af4e071282c136b37893>@@$$QAV<lambda_cc0d902bcbbeb830f749456577db4721>@@@Z 10148280     libucrt:per_thread_data.obj
 0002:000562a0       __sehtable$??$?RV<lambda_3518db117f0e7cdb002338c5d3c47b6c>@@AAV<lambda_b2ea41f6bbb362cd97d94c6828d90b61>@@V<lambda_abdedf541bb04549bc734292b4a045d4>@@@?$__crt_seh_guarded_call@X@@QAEX$$QAV<lambda_3518db117f0e7cdb002338c5d3c47b6c>@@AAV<lambda_b2ea41f6bbb362cd97d94c6828d90b61>@@$$QAV<lambda_abdedf541bb04549bc734292b4a045d4>@@@Z 101482a0     libucrt:per_thread_data.obj
 0002:000562c0       __sehtable$??$?RV<lambda_51b6e8b1eb166f2a3faf91f424b38130>@@AAV<lambda_6250bd4b2a391816dd638c3bf72b0bcb>@@V<lambda_0b5a4a3e68152e1d9b943535f5f47bed>@@@?$__crt_seh_guarded_call@X@@QAEX$$QAV<lambda_51b6e8b1eb166f2a3faf91f424b38130>@@AAV<lambda_6250bd4b2a391816dd638c3bf72b0bcb>@@$$QAV<lambda_0b5a4a3e68152e1d9b943535f5f47bed>@@@Z 101482c0     libucrt:per_thread_data.obj
 0002:000562e0       __sehtable$??$?RV<lambda_5b71d36f03204c0beab531769a5b5694>@@AAV<lambda_be2b3da3f62db62e9dad5dc70221a656>@@V<lambda_8f9ce462984622f9bf76b59e2aaaf805>@@@?$__crt_seh_guarded_call@X@@QAEX$$QAV<lambda_5b71d36f03204c0beab531769a5b5694>@@AAV<lambda_be2b3da3f62db62e9dad5dc70221a656>@@$$QAV<lambda_8f9ce462984622f9bf76b59e2aaaf805>@@@Z 101482e0     libucrt:per_thread_data.obj
 0002:00056300       __sehtable$___acrt_uninitialize_locale 10148300     libucrt:wsetlocale.obj
 0002:00056320       __sehtable$__isindst       10148320     libucrt:tzset.obj
 0002:00056340       __sehtable$___tzset        10148340     libucrt:tzset.obj
 0002:00056360       __sehtable$___acrt_update_thread_multibyte_data 10148360     libucrt:mbctype.obj
 0002:00056380       __sehtable$??$?RV<lambda_978dc153c237d78434369da87b74ff60>@@AAV<lambda_ad1ced32f4ac17aa236e5ef05d6b3b7c>@@V<lambda_4a8533e2866a575feecb8298ce776b0d>@@@?$__crt_seh_guarded_call@X@@QAEX$$QAV<lambda_978dc153c237d78434369da87b74ff60>@@AAV<lambda_ad1ced32f4ac17aa236e5ef05d6b3b7c>@@$$QAV<lambda_4a8533e2866a575feecb8298ce776b0d>@@@Z 10148380     libucrt:mbctype.obj
 0002:000563a0       __sehtable$___acrt_initialize_lowio 101483a0     libucrt:ioinit.obj
 0002:000563c0       __sehtable$__query_new_handler 101483c0     libucrt:new_handler.obj
 0002:000563e0       __sehtable$_raise          101483e0     libucrt:signal.obj
 0002:00056400       __sehtable$??$?RV<lambda_a048d3beccc847880fc8490e18b82769>@@AAV<lambda_ec61778202f4f5fc7e7711acc23c3bca>@@V<lambda_f7496a158712204296dd6628a163878e>@@@?$__crt_seh_guarded_call@P6AXH@Z@@QAEP6AXH@Z$$QAV<lambda_a048d3beccc847880fc8490e18b82769>@@AAV<lambda_ec61778202f4f5fc7e7711acc23c3bca>@@$$QAV<lambda_f7496a158712204296dd6628a163878e>@@@Z 10148400     libucrt:signal.obj
 0002:00056420       __sehtable$___acrt_update_thread_locale_data 10148420     libucrt:locale_refcounting.obj
 0002:00056440       __sehtable$??$common_getenv_s@D@@YAHQAIQADIQBD@Z 10148440     libucrt:getenv.obj
 0002:00056460       __sehtable$___acrt_lowio_ensure_fh_exists 10148460     libucrt:osfinfo.obj
 0002:00056480       __sehtable$_common_flush_all 10148480     libucrt:fflush.obj
 0002:000564a8       __sehtable$__fcloseall     101484a8     libucrt:closeall.obj
 0002:000564c8       __sehtable$??$?RV<lambda_61cee617f5178ae960314fd4d05640a0>@@AAV<lambda_6978c1fb23f02e42e1d9e99668cc68aa>@@V<lambda_9cd88cf8ad10232537feb2133f08c833>@@@?$__crt_seh_guarded_call@H@@QAEH$$QAV<lambda_61cee617f5178ae960314fd4d05640a0>@@AAV<lambda_6978c1fb23f02e42e1d9e99668cc68aa>@@$$QAV<lambda_9cd88cf8ad10232537feb2133f08c833>@@@Z 101484c8     libucrt:commit.obj
 0002:000564e8       __sehtable$__write         101484e8     libucrt:write.obj
 0002:00056508       __sehtable$_fclose         10148508     libucrt:fclose.obj
 0002:00056528       __sehtable$??$?RV<lambda_123407a5e2ac06da108355a851863b7a>@@AAV<lambda_2fe9b910cf3cbf4a0ab98a02ba45b3ec>@@V<lambda_ae55bdf541ad94d75914d381c370e64d>@@@?$__crt_seh_guarded_call@H@@QAEH$$QAV<lambda_123407a5e2ac06da108355a851863b7a>@@AAV<lambda_2fe9b910cf3cbf4a0ab98a02ba45b3ec>@@$$QAV<lambda_ae55bdf541ad94d75914d381c370e64d>@@@Z 10148528     libucrt:close.obj
 0002:00056548       __sehtable$__IsNonwritableInCurrentImage 10148548     LIBCMT:pesect.obj
 0002:00056570       .edata                     10148570     System.Data.SQLite.exp
 0002:00056598       rgpv                       10148598     System.Data.SQLite.exp
 0002:00056b78       rgszName                   10148b78     System.Data.SQLite.exp
 0002:00057158       rgwOrd                     10149158     System.Data.SQLite.exp
 0002:00057448       szName                     10149448     System.Data.SQLite.exp
 0002:0005745f       $N00001                    1014945f     System.Data.SQLite.exp
 0002:0005747c       $N00002                    1014947c     System.Data.SQLite.exp
 0002:0005749a       $N00003                    1014949a     System.Data.SQLite.exp
 0002:000574b0       $N00004                    101494b0     System.Data.SQLite.exp
 0002:000574c4       $N00005                    101494c4     System.Data.SQLite.exp
 0002:000574d9       $N00006                    101494d9     System.Data.SQLite.exp
 0002:000574f3       $N00007                    101494f3     System.Data.SQLite.exp
 0002:0005750b       $N00008                    1014950b     System.Data.SQLite.exp
 0002:00057522       $N00009                    10149522     System.Data.SQLite.exp
 0002:00057538       $N00010                    10149538     System.Data.SQLite.exp
 0002:00057559       $N00011                    10149559     System.Data.SQLite.exp
 0002:0005756d       $N00012                    1014956d     System.Data.SQLite.exp
 0002:00057586       $N00013                    10149586     System.Data.SQLite.exp
 0002:0005759f       $N00014                    1014959f     System.Data.SQLite.exp
 0002:000575b3       $N00015                    101495b3     System.Data.SQLite.exp
 0002:000575c5       $N00016                    101495c5     System.Data.SQLite.exp
 0002:000575d9       $N00017                    101495d9     System.Data.SQLite.exp
 0002:000575ed       $N00018                    101495ed     System.Data.SQLite.exp
 0002:0005760d       $N00019                    1014960d     System.Data.SQLite.exp
 0002:0005761e       $N00020                    1014961e     System.Data.SQLite.exp
 0002:00057631       $N00021                    10149631     System.Data.SQLite.exp
 0002:00057650       $N00022                    10149650     System.Data.SQLite.exp
 0002:00057662       $N00023                    10149662     System.Data.SQLite.exp
 0002:0005767f       $N00024                    1014967f     System.Data.SQLite.exp
 0002:0005769c       $N00025                    1014969c     System.Data.SQLite.exp
 0002:000576b8       $N00026                    101496b8     System.Data.SQLite.exp
 0002:000576e0       $N00027                    101496e0     System.Data.SQLite.exp
 0002:000576f5       $N00028                    101496f5     System.Data.SQLite.exp
 0002:00057707       $N00029                    10149707     System.Data.SQLite.exp
 0002:0005771b       $N00030                    1014971b     System.Data.SQLite.exp
 0002:0005772f       $N00031                    1014972f     System.Data.SQLite.exp
 0002:00057742       $N00032                    10149742     System.Data.SQLite.exp
 0002:00057758       $N00033                    10149758     System.Data.SQLite.exp
 0002:00057770       $N00034                    10149770     System.Data.SQLite.exp
 0002:00057783       $N00035                    10149783     System.Data.SQLite.exp
 0002:00057796       $N00036                    10149796     System.Data.SQLite.exp
 0002:000577b4       $N00037                    101497b4     System.Data.SQLite.exp
 0002:000577c6       $N00038                    101497c6     System.Data.SQLite.exp
 0002:000577d8       $N00039                    101497d8     System.Data.SQLite.exp
 0002:000577ec       $N00040                    101497ec     System.Data.SQLite.exp
 0002:000577ff       $N00041                    101497ff     System.Data.SQLite.exp
 0002:00057814       $N00042                    10149814     System.Data.SQLite.exp
 0002:00057829       $N00043                    10149829     System.Data.SQLite.exp
 0002:00057847       $N00044                    10149847     System.Data.SQLite.exp
 0002:00057857       $N00045                    10149857     System.Data.SQLite.exp
 0002:00057872       $N00046                    10149872     System.Data.SQLite.exp
 0002:00057889       $N00047                    10149889     System.Data.SQLite.exp
 0002:00057897       $N00048                    10149897     System.Data.SQLite.exp
 0002:000578b0       $N00049                    101498b0     System.Data.SQLite.exp
 0002:000578c1       $N00050                    101498c1     System.Data.SQLite.exp
 0002:000578da       $N00051                    101498da     System.Data.SQLite.exp
 0002:000578f5       $N00052                    101498f5     System.Data.SQLite.exp
 0002:00057909       $N00053                    10149909     System.Data.SQLite.exp
 0002:0005791e       $N00054                    1014991e     System.Data.SQLite.exp
 0002:00057935       $N00055                    10149935     System.Data.SQLite.exp
 0002:0005794a       $N00056                    1014994a     System.Data.SQLite.exp
 0002:00057967       $N00057                    10149967     System.Data.SQLite.exp
 0002:00057986       $N00058                    10149986     System.Data.SQLite.exp
 0002:000579b1       $N00059                    101499b1     System.Data.SQLite.exp
 0002:000579da       $N00060                    101499da     System.Data.SQLite.exp
 0002:000579f2       $N00061                    101499f2     System.Data.SQLite.exp
 0002:00057a0c       $N00062                    10149a0c     System.Data.SQLite.exp
 0002:00057a32       $N00063                    10149a32     System.Data.SQLite.exp
 0002:00057a56       $N00064                    10149a56     System.Data.SQLite.exp
 0002:00057a6c       $N00065                    10149a6c     System.Data.SQLite.exp
 0002:00057a8e       $N00066                    10149a8e     System.Data.SQLite.exp
 0002:00057aa1       $N00067                    10149aa1     System.Data.SQLite.exp
 0002:00057ab6       $N00068                    10149ab6     System.Data.SQLite.exp
 0002:00057ad7       $N00069                    10149ad7     System.Data.SQLite.exp
 0002:00057aeb       $N00070                    10149aeb     System.Data.SQLite.exp
 0002:00057b01       $N00071                    10149b01     System.Data.SQLite.exp
 0002:00057b23       $N00072                    10149b23     System.Data.SQLite.exp
 0002:00057b43       $N00073                    10149b43     System.Data.SQLite.exp
 0002:00057b5e       $N00074                    10149b5e     System.Data.SQLite.exp
 0002:00057b7b       $N00075                    10149b7b     System.Data.SQLite.exp
 0002:00057ba4       $N00076                    10149ba4     System.Data.SQLite.exp
 0002:00057bcb       $N00077                    10149bcb     System.Data.SQLite.exp
 0002:00057be5       $N00078                    10149be5     System.Data.SQLite.exp
 0002:00057c01       $N00079                    10149c01     System.Data.SQLite.exp
 0002:00057c29       $N00080                    10149c29     System.Data.SQLite.exp
 0002:00057c4f       $N00081                    10149c4f     System.Data.SQLite.exp
 0002:00057c63       $N00082                    10149c63     System.Data.SQLite.exp
 0002:00057c79       $N00083                    10149c79     System.Data.SQLite.exp
 0002:00057c9b       $N00084                    10149c9b     System.Data.SQLite.exp
 0002:00057cbb       $N00085                    10149cbb     System.Data.SQLite.exp
 0002:00057ccf       $N00086                    10149ccf     System.Data.SQLite.exp
 0002:00057ce4       $N00087                    10149ce4     System.Data.SQLite.exp
 0002:00057cf8       $N00088                    10149cf8     System.Data.SQLite.exp
 0002:00057d12       $N00089                    10149d12     System.Data.SQLite.exp
 0002:00057d2d       $N00090                    10149d2d     System.Data.SQLite.exp
 0002:00057d3e       $N00091                    10149d3e     System.Data.SQLite.exp
 0002:00057d51       $N00092                    10149d51     System.Data.SQLite.exp
 0002:00057d60       $N00093                    10149d60     System.Data.SQLite.exp
 0002:00057d88       $N00094                    10149d88     System.Data.SQLite.exp
 0002:00057dac       $N00095                    10149dac     System.Data.SQLite.exp
 0002:00057dc6       $N00096                    10149dc6     System.Data.SQLite.exp
 0002:00057ddf       $N00097                    10149ddf     System.Data.SQLite.exp
 0002:00057dfa       $N00098                    10149dfa     System.Data.SQLite.exp
 0002:00057e16       $N00099                    10149e16     System.Data.SQLite.exp
 0002:00057e37       $N00100                    10149e37     System.Data.SQLite.exp
 0002:00057e65       $N00101                    10149e65     System.Data.SQLite.exp
 0002:00057e7d       $N00102                    10149e7d     System.Data.SQLite.exp
 0002:00057e97       $N00103                    10149e97     System.Data.SQLite.exp
 0002:00057ebb       $N00104                    10149ebb     System.Data.SQLite.exp
 0002:00057ed6       $N00105                    10149ed6     System.Data.SQLite.exp
 0002:00057eec       $N00106                    10149eec     System.Data.SQLite.exp
 0002:00057f05       $N00107                    10149f05     System.Data.SQLite.exp
 0002:00057f26       $N00108                    10149f26     System.Data.SQLite.exp
 0002:00057f39       $N00109                    10149f39     System.Data.SQLite.exp
 0002:00057f50       $N00110                    10149f50     System.Data.SQLite.exp
 0002:00057f66       $N00111                    10149f66     System.Data.SQLite.exp
 0002:00057f78       $N00112                    10149f78     System.Data.SQLite.exp
 0002:00057f8c       $N00113                    10149f8c     System.Data.SQLite.exp
 0002:00057f9e       $N00114                    10149f9e     System.Data.SQLite.exp
 0002:00057faf       $N00115                    10149faf     System.Data.SQLite.exp
 0002:00057fc3       $N00116                    10149fc3     System.Data.SQLite.exp
 0002:00057fdd       $N00117                    10149fdd     System.Data.SQLite.exp
 0002:00057fef       $N00118                    10149fef     System.Data.SQLite.exp
 0002:00058004       $N00119                    1014a004     System.Data.SQLite.exp
 0002:0005801b       $N00120                    1014a01b     System.Data.SQLite.exp
 0002:00058039       $N00121                    1014a039     System.Data.SQLite.exp
 0002:00058055       $N00122                    1014a055     System.Data.SQLite.exp
 0002:00058065       $N00123                    1014a065     System.Data.SQLite.exp
 0002:00058074       $N00124                    1014a074     System.Data.SQLite.exp
 0002:00058085       $N00125                    1014a085     System.Data.SQLite.exp
 0002:0005809f       $N00126                    1014a09f     System.Data.SQLite.exp
 0002:000580ae       $N00127                    1014a0ae     System.Data.SQLite.exp
 0002:000580bb       $N00128                    1014a0bb     System.Data.SQLite.exp
 0002:000580d0       $N00129                    1014a0d0     System.Data.SQLite.exp
 0002:000580e0       $N00130                    1014a0e0     System.Data.SQLite.exp
 0002:000580f9       $N00131                    1014a0f9     System.Data.SQLite.exp
 0002:00058117       $N00132                    1014a117     System.Data.SQLite.exp
 0002:0005812c       $N00133                    1014a12c     System.Data.SQLite.exp
 0002:0005813d       $N00134                    1014a13d     System.Data.SQLite.exp
 0002:00058159       $N00135                    1014a159     System.Data.SQLite.exp
 0002:00058166       $N00136                    1014a166     System.Data.SQLite.exp
 0002:00058179       $N00137                    1014a179     System.Data.SQLite.exp
 0002:0005818b       $N00138                    1014a18b     System.Data.SQLite.exp
 0002:0005819c       $N00139                    1014a19c     System.Data.SQLite.exp
 0002:000581b3       $N00140                    1014a1b3     System.Data.SQLite.exp
 0002:000581c7       $N00141                    1014a1c7     System.Data.SQLite.exp
 0002:000581d9       $N00142                    1014a1d9     System.Data.SQLite.exp
 0002:000581f0       $N00143                    1014a1f0     System.Data.SQLite.exp
 0002:00058216       $N00144                    1014a216     System.Data.SQLite.exp
 0002:00058229       $N00145                    1014a229     System.Data.SQLite.exp
 0002:0005823b       $N00146                    1014a23b     System.Data.SQLite.exp
 0002:0005824d       $N00147                    1014a24d     System.Data.SQLite.exp
 0002:00058259       $N00148                    1014a259     System.Data.SQLite.exp
 0002:00058268       $N00149                    1014a268     System.Data.SQLite.exp
 0002:0005827e       $N00150                    1014a27e     System.Data.SQLite.exp
 0002:00058294       $N00151                    1014a294     System.Data.SQLite.exp
 0002:000582a9       $N00152                    1014a2a9     System.Data.SQLite.exp
 0002:000582c3       $N00153                    1014a2c3     System.Data.SQLite.exp
 0002:000582e8       $N00154                    1014a2e8     System.Data.SQLite.exp
 0002:000582fb       $N00155                    1014a2fb     System.Data.SQLite.exp
 0002:00058315       $N00156                    1014a315     System.Data.SQLite.exp
 0002:00058323       $N00157                    1014a323     System.Data.SQLite.exp
 0002:0005833a       $N00158                    1014a33a     System.Data.SQLite.exp
 0002:00058346       $N00159                    1014a346     System.Data.SQLite.exp
 0002:00058355       $N00160                    1014a355     System.Data.SQLite.exp
 0002:00058366       $N00161                    1014a366     System.Data.SQLite.exp
 0002:00058385       $N00162                    1014a385     System.Data.SQLite.exp
 0002:0005839a       $N00163                    1014a39a     System.Data.SQLite.exp
 0002:000583b3       $N00164                    1014a3b3     System.Data.SQLite.exp
 0002:000583d7       $N00165                    1014a3d7     System.Data.SQLite.exp
 0002:000583eb       $N00166                    1014a3eb     System.Data.SQLite.exp
 0002:0005840a       $N00167                    1014a40a     System.Data.SQLite.exp
 0002:0005841a       $N00168                    1014a41a     System.Data.SQLite.exp
 0002:00058428       $N00169                    1014a428     System.Data.SQLite.exp
 0002:00058441       $N00170                    1014a441     System.Data.SQLite.exp
 0002:00058455       $N00171                    1014a455     System.Data.SQLite.exp
 0002:00058469       $N00172                    1014a469     System.Data.SQLite.exp
 0002:0005847c       $N00173                    1014a47c     System.Data.SQLite.exp
 0002:00058490       $N00174                    1014a490     System.Data.SQLite.exp
 0002:000584a2       $N00175                    1014a4a2     System.Data.SQLite.exp
 0002:000584b4       $N00176                    1014a4b4     System.Data.SQLite.exp
 0002:000584c1       $N00177                    1014a4c1     System.Data.SQLite.exp
 0002:000584d0       $N00178                    1014a4d0     System.Data.SQLite.exp
 0002:000584eb       $N00179                    1014a4eb     System.Data.SQLite.exp
 0002:00058504       $N00180                    1014a504     System.Data.SQLite.exp
 0002:00058514       $N00181                    1014a514     System.Data.SQLite.exp
 0002:00058523       $N00182                    1014a523     System.Data.SQLite.exp
 0002:00058533       $N00183                    1014a533     System.Data.SQLite.exp
 0002:0005854d       $N00184                    1014a54d     System.Data.SQLite.exp
 0002:00058565       $N00185                    1014a565     System.Data.SQLite.exp
 0002:00058575       $N00186                    1014a575     System.Data.SQLite.exp
 0002:00058587       $N00187                    1014a587     System.Data.SQLite.exp
 0002:000585a5       $N00188                    1014a5a5     System.Data.SQLite.exp
 0002:000585ba       $N00189                    1014a5ba     System.Data.SQLite.exp
 0002:000585cf       $N00190                    1014a5cf     System.Data.SQLite.exp
 0002:000585eb       $N00191                    1014a5eb     System.Data.SQLite.exp
 0002:000585fe       $N00192                    1014a5fe     System.Data.SQLite.exp
 0002:00058611       $N00193                    1014a611     System.Data.SQLite.exp
 0002:00058629       $N00194                    1014a629     System.Data.SQLite.exp
 0002:00058641       $N00195                    1014a641     System.Data.SQLite.exp
 0002:00058658       $N00196                    1014a658     System.Data.SQLite.exp
 0002:0005866e       $N00197                    1014a66e     System.Data.SQLite.exp
 0002:00058684       $N00198                    1014a684     System.Data.SQLite.exp
 0002:00058694       $N00199                    1014a694     System.Data.SQLite.exp
 0002:000586ad       $N00200                    1014a6ad     System.Data.SQLite.exp
 0002:000586c0       $N00201                    1014a6c0     System.Data.SQLite.exp
 0002:000586d0       $N00202                    1014a6d0     System.Data.SQLite.exp
 0002:000586e2       $N00203                    1014a6e2     System.Data.SQLite.exp
 0002:000586f6       $N00204                    1014a6f6     System.Data.SQLite.exp
 0002:00058704       $N00205                    1014a704     System.Data.SQLite.exp
 0002:00058715       $N00206                    1014a715     System.Data.SQLite.exp
 0002:0005872c       $N00207                    1014a72c     System.Data.SQLite.exp
 0002:0005873a       $N00208                    1014a73a     System.Data.SQLite.exp
 0002:00058757       $N00209                    1014a757     System.Data.SQLite.exp
 0002:00058770       $N00210                    1014a770     System.Data.SQLite.exp
 0002:00058784       $N00211                    1014a784     System.Data.SQLite.exp
 0002:0005879a       $N00212                    1014a79a     System.Data.SQLite.exp
 0002:000587b0       $N00213                    1014a7b0     System.Data.SQLite.exp
 0002:000587d1       $N00214                    1014a7d1     System.Data.SQLite.exp
 0002:000587e6       $N00215                    1014a7e6     System.Data.SQLite.exp
 0002:000587fd       $N00216                    1014a7fd     System.Data.SQLite.exp
 0002:00058817       $N00217                    1014a817     System.Data.SQLite.exp
 0002:00058832       $N00218                    1014a832     System.Data.SQLite.exp
 0002:0005884e       $N00219                    1014a84e     System.Data.SQLite.exp
 0002:00058861       $N00220                    1014a861     System.Data.SQLite.exp
 0002:00058876       $N00221                    1014a876     System.Data.SQLite.exp
 0002:00058896       $N00222                    1014a896     System.Data.SQLite.exp
 0002:000588aa       $N00223                    1014a8aa     System.Data.SQLite.exp
 0002:000588c1       $N00224                    1014a8c1     System.Data.SQLite.exp
 0002:000588d8       $N00225                    1014a8d8     System.Data.SQLite.exp
 0002:000588ec       $N00226                    1014a8ec     System.Data.SQLite.exp
 0002:00058902       $N00227                    1014a902     System.Data.SQLite.exp
 0002:0005891a       $N00228                    1014a91a     System.Data.SQLite.exp
 0002:00058932       $N00229                    1014a932     System.Data.SQLite.exp
 0002:00058948       $N00230                    1014a948     System.Data.SQLite.exp
 0002:0005895d       $N00231                    1014a95d     System.Data.SQLite.exp
 0002:00058975       $N00232                    1014a975     System.Data.SQLite.exp
 0002:0005898f       $N00233                    1014a98f     System.Data.SQLite.exp
 0002:000589a5       $N00234                    1014a9a5     System.Data.SQLite.exp
 0002:000589c5       $N00235                    1014a9c5     System.Data.SQLite.exp
 0002:000589e2       $N00236                    1014a9e2     System.Data.SQLite.exp
 0002:000589f9       $N00237                    1014a9f9     System.Data.SQLite.exp
 0002:00058a0d       $N00238                    1014aa0d     System.Data.SQLite.exp
 0002:00058a2b       $N00239                    1014aa2b     System.Data.SQLite.exp
 0002:00058a3c       $N00240                    1014aa3c     System.Data.SQLite.exp
 0002:00058a4d       $N00241                    1014aa4d     System.Data.SQLite.exp
 0002:00058a5b       $N00242                    1014aa5b     System.Data.SQLite.exp
 0002:00058a6c       $N00243                    1014aa6c     System.Data.SQLite.exp
 0002:00058a84       $N00244                    1014aa84     System.Data.SQLite.exp
 0002:00058a9e       $N00245                    1014aa9e     System.Data.SQLite.exp
 0002:00058aaf       $N00246                    1014aaaf     System.Data.SQLite.exp
 0002:00058abb       $N00247                    1014aabb     System.Data.SQLite.exp
 0002:00058aca       $N00248                    1014aaca     System.Data.SQLite.exp
 0002:00058adb       $N00249                    1014aadb     System.Data.SQLite.exp
 0002:00058ae8       $N00250                    1014aae8     System.Data.SQLite.exp
 0002:00058afa       $N00251                    1014aafa     System.Data.SQLite.exp
 0002:00058b10       $N00252                    1014ab10     System.Data.SQLite.exp
 0002:00058b24       $N00253                    1014ab24     System.Data.SQLite.exp
 0002:00058b37       $N00254                    1014ab37     System.Data.SQLite.exp
 0002:00058b4d       $N00255                    1014ab4d     System.Data.SQLite.exp
 0002:00058b64       $N00256                    1014ab64     System.Data.SQLite.exp
 0002:00058b78       $N00257                    1014ab78     System.Data.SQLite.exp
 0002:00058b8c       $N00258                    1014ab8c     System.Data.SQLite.exp
 0002:00058b9f       $N00259                    1014ab9f     System.Data.SQLite.exp
 0002:00058bb2       $N00260                    1014abb2     System.Data.SQLite.exp
 0002:00058bc2       $N00261                    1014abc2     System.Data.SQLite.exp
 0002:00058bd4       $N00262                    1014abd4     System.Data.SQLite.exp
 0002:00058be6       $N00263                    1014abe6     System.Data.SQLite.exp
 0002:00058bfb       $N00264                    1014abfb     System.Data.SQLite.exp
 0002:00058c0b       $N00265                    1014ac0b     System.Data.SQLite.exp
 0002:00058c1b       $N00266                    1014ac1b     System.Data.SQLite.exp
 0002:00058c2b       $N00267                    1014ac2b     System.Data.SQLite.exp
 0002:00058c3c       $N00268                    1014ac3c     System.Data.SQLite.exp
 0002:00058c51       $N00269                    1014ac51     System.Data.SQLite.exp
 0002:00058c6f       $N00270                    1014ac6f     System.Data.SQLite.exp
 0002:00058c99       $N00271                    1014ac99     System.Data.SQLite.exp
 0002:00058cba       $N00272                    1014acba     System.Data.SQLite.exp
 0002:00058cd1       $N00273                    1014acd1     System.Data.SQLite.exp
 0002:00058ce6       $N00274                    1014ace6     System.Data.SQLite.exp
 0002:00058cfd       $N00275                    1014acfd     System.Data.SQLite.exp
 0002:00058d10       $N00276                    1014ad10     System.Data.SQLite.exp
 0002:00058d26       $N00277                    1014ad26     System.Data.SQLite.exp
 0002:00058d3a       $N00278                    1014ad3a     System.Data.SQLite.exp
 0002:00058d48       $N00279                    1014ad48     System.Data.SQLite.exp
 0002:00058d59       $N00280                    1014ad59     System.Data.SQLite.exp
 0002:00058d73       $N00281                    1014ad73     System.Data.SQLite.exp
 0002:00058d87       $N00282                    1014ad87     System.Data.SQLite.exp
 0002:00058d9b       $N00283                    1014ad9b     System.Data.SQLite.exp
 0002:00058dad       $N00284                    1014adad     System.Data.SQLite.exp
 0002:00058dc3       $N00285                    1014adc3     System.Data.SQLite.exp
 0002:00058dd5       $N00286                    1014add5     System.Data.SQLite.exp
 0002:00058de8       $N00287                    1014ade8     System.Data.SQLite.exp
 0002:00058dfc       $N00288                    1014adfc     System.Data.SQLite.exp
 0002:00058e12       $N00289                    1014ae12     System.Data.SQLite.exp
 0002:00058e27       $N00290                    1014ae27     System.Data.SQLite.exp
 0002:00058e47       $N00291                    1014ae47     System.Data.SQLite.exp
 0002:00058e59       $N00292                    1014ae59     System.Data.SQLite.exp
 0002:00058e6c       $N00293                    1014ae6c     System.Data.SQLite.exp
 0002:00058e7e       $N00294                    1014ae7e     System.Data.SQLite.exp
 0002:00058e92       $N00295                    1014ae92     System.Data.SQLite.exp
 0002:00058eb1       $N00296                    1014aeb1     System.Data.SQLite.exp
 0002:00058ec8       $N00297                    1014aec8     System.Data.SQLite.exp
 0002:00058ee3       $N00298                    1014aee3     System.Data.SQLite.exp
 0002:00058ef9       $N00299                    1014aef9     System.Data.SQLite.exp
 0002:00058f0f       $N00300                    1014af0f     System.Data.SQLite.exp
 0002:00058f22       $N00301                    1014af22     System.Data.SQLite.exp
 0002:00058f37       $N00302                    1014af37     System.Data.SQLite.exp
 0002:00058f57       $N00303                    1014af57     System.Data.SQLite.exp
 0002:00058f6e       $N00304                    1014af6e     System.Data.SQLite.exp
 0002:00058f85       $N00305                    1014af85     System.Data.SQLite.exp
 0002:00058fa3       $N00306                    1014afa3     System.Data.SQLite.exp
 0002:00058fb6       $N00307                    1014afb6     System.Data.SQLite.exp
 0002:00058fc6       $N00308                    1014afc6     System.Data.SQLite.exp
 0002:00058fd7       $N00309                    1014afd7     System.Data.SQLite.exp
 0002:00058fec       $N00310                    1014afec     System.Data.SQLite.exp
 0002:00059003       $N00311                    1014b003     System.Data.SQLite.exp
 0002:00059014       $N00312                    1014b014     System.Data.SQLite.exp
 0002:00059026       $N00313                    1014b026     System.Data.SQLite.exp
 0002:0005903d       $N00314                    1014b03d     System.Data.SQLite.exp
 0002:00059051       $N00315                    1014b051     System.Data.SQLite.exp
 0002:00059067       $N00316                    1014b067     System.Data.SQLite.exp
 0002:00059080       $N00317                    1014b080     System.Data.SQLite.exp
 0002:00059094       $N00318                    1014b094     System.Data.SQLite.exp
 0002:000590af       $N00319                    1014b0af     System.Data.SQLite.exp
 0002:000590c6       $N00320                    1014b0c6     System.Data.SQLite.exp
 0002:000590e0       $N00321                    1014b0e0     System.Data.SQLite.exp
 0002:000590f1       $N00322                    1014b0f1     System.Data.SQLite.exp
 0002:0005910c       $N00323                    1014b10c     System.Data.SQLite.exp
 0002:00059120       $N00324                    1014b120     System.Data.SQLite.exp
 0002:0005913b       $N00325                    1014b13b     System.Data.SQLite.exp
 0002:00059159       $N00326                    1014b159     System.Data.SQLite.exp
 0002:00059172       $N00327                    1014b172     System.Data.SQLite.exp
 0002:0005918e       $N00328                    1014b18e     System.Data.SQLite.exp
 0002:000591ac       $N00329                    1014b1ac     System.Data.SQLite.exp
 0002:000591c9       $N00330                    1014b1c9     System.Data.SQLite.exp
 0002:000591dd       $N00331                    1014b1dd     System.Data.SQLite.exp
 0002:000591fb       $N00332                    1014b1fb     System.Data.SQLite.exp
 0002:00059216       $N00333                    1014b216     System.Data.SQLite.exp
 0002:00059234       $N00334                    1014b234     System.Data.SQLite.exp
 0002:00059252       $N00335                    1014b252     System.Data.SQLite.exp
 0002:0005926c       $N00336                    1014b26c     System.Data.SQLite.exp
 0002:00059283       $N00337                    1014b283     System.Data.SQLite.exp
 0002:0005929f       $N00338                    1014b29f     System.Data.SQLite.exp
 0002:000592b9       $N00339                    1014b2b9     System.Data.SQLite.exp
 0002:000592d0       $N00340                    1014b2d0     System.Data.SQLite.exp
 0002:000592ea       $N00341                    1014b2ea     System.Data.SQLite.exp
 0002:00059309       $N00342                    1014b309     System.Data.SQLite.exp
 0002:00059320       $N00343                    1014b320     System.Data.SQLite.exp
 0002:0005933c       $N00344                    1014b33c     System.Data.SQLite.exp
 0002:00059356       $N00345                    1014b356     System.Data.SQLite.exp
 0002:00059375       $N00346                    1014b375     System.Data.SQLite.exp
 0002:0005938d       $N00347                    1014b38d     System.Data.SQLite.exp
 0002:000593aa       $N00348                    1014b3aa     System.Data.SQLite.exp
 0002:000593c4       $N00349                    1014b3c4     System.Data.SQLite.exp
 0002:000593de       $N00350                    1014b3de     System.Data.SQLite.exp
 0002:000593fc       $N00351                    1014b3fc     System.Data.SQLite.exp
 0002:00059414       $N00352                    1014b414     System.Data.SQLite.exp
 0002:00059431       $N00353                    1014b431     System.Data.SQLite.exp
 0002:00059446       $N00354                    1014b446     System.Data.SQLite.exp
 0002:0005945c       $N00355                    1014b45c     System.Data.SQLite.exp
 0002:00059471       $N00356                    1014b471     System.Data.SQLite.exp
 0002:00059485       $N00357                    1014b485     System.Data.SQLite.exp
 0002:00059499       $N00358                    1014b499     System.Data.SQLite.exp
 0002:000594b0       $N00359                    1014b4b0     System.Data.SQLite.exp
 0002:000594cc       $N00360                    1014b4cc     System.Data.SQLite.exp
 0002:000594e5       $N00361                    1014b4e5     System.Data.SQLite.exp
 0002:000594fb       $N00362                    1014b4fb     System.Data.SQLite.exp
 0002:00059511       $N00363                    1014b511     System.Data.SQLite.exp
 0002:00059527       $N00364                    1014b527     System.Data.SQLite.exp
 0002:00059542       $N00365                    1014b542     System.Data.SQLite.exp
 0002:00059558       $N00366                    1014b558     System.Data.SQLite.exp
 0002:00059571       $N00367                    1014b571     System.Data.SQLite.exp
 0002:0005958f       $N00368                    1014b58f     System.Data.SQLite.exp
 0002:000595a5       $N00369                    1014b5a5     System.Data.SQLite.exp
 0002:000595bb       $N00370                    1014b5bb     System.Data.SQLite.exp
 0002:000595cf       $N00371                    1014b5cf     System.Data.SQLite.exp
 0002:000595e5       $N00372                    1014b5e5     System.Data.SQLite.exp
 0002:000595fd       $N00373                    1014b5fd     System.Data.SQLite.exp
 0002:00059614       $N00374                    1014b614     System.Data.SQLite.exp
 0002:0005962c       $N00375                    1014b62c     System.Data.SQLite.exp
 0002:00059649       $N00376                    1014b649     System.Data.SQLite.exp
 0002:00059d82       .idata$6                   1014bd82     kernel32:KERNEL32.dll
 0002:00059e36       .idata$6                   1014be36     advapi32:ADVAPI32.dll
 0002:0005a1ee       .idata$6                   1014c1ee     mscoree:mscoree.dll
 0003:00000020       ?__vcrt_flsindex@@3KA      1014d020     libvcruntime:per_thread_data.obj
 0003:00000040       _errno_no_memory           1014d040     libucrt:errno.obj
 0003:00000044       _doserrno_no_memory        1014d044     libucrt:errno.obj
 0003:0000004c       ___acrt_flsindex           1014d04c     libucrt:per_thread_data.obj
 0003:00000118       _tzstd_program             1014d118     libucrt:timeset.obj
 0003:00000158       _tzdst_program             1014d158     libucrt:timeset.obj
 0003:00000198       _tzname_states             1014d198     libucrt:timeset.obj
 0003:000001a0       _dststart                  1014d1a0     libucrt:tzset.obj
 0003:000001ac       _dstend                    1014d1ac     libucrt:tzset.obj
 0003:000001c0       ___rgctypeflag             1014d1c0     libucrt:mbctype.obj
 0003:000001c8       ___rgcode_page_info        1014d1c8     libucrt:mbctype.obj
 0003:00000810       _winNolockAppData          1014d810     interop.obj
 0003:0000081c       _sqlite3OomStr             1014d81c     interop.obj
 0003:00000834       _winAppData                1014d834     interop.obj
 0003:00000840       ?dbstat_module@?1??sqlite3DbstatRegister@@9@9 1014d840     interop.obj
 0003:0000089c       _winIoerrRetry             1014d89c     interop.obj
 0003:000008a0       _stmtModule                1014d8a0     interop.obj
 0003:000008fc       _sqlite3PendingByte        1014d8fc     interop.obj
 0003:00000900       ?winVfs@?1??sqlite3_os_init@@9@9 1014d900     interop.obj
 0003:00000958       ?aCacheMode@?BD@??sqlite3ParseUri@@9@9 1014d958     interop.obj
 0003:00000970       _jsonTreeModule            1014d970     interop.obj
 0003:000009cc       ?one@?1??SHA1Transform@@9@9 1014d9cc     interop.obj
 0003:000009d0       ?aOpenMode@?BE@??sqlite3ParseUri@@9@9 1014d9d0     interop.obj
 0003:000009f8       _winMutex_isNt             1014d9f8     interop.obj
 0003:000009fc       _winIoerrRetryDelay        1014d9fc     interop.obj
 0003:00000a00       _jsonEachModule            1014da00     interop.obj
 0003:00000a60       ?aAlterTableFuncs@?1??sqlite3AlterFunctions@@9@9 1014da60     interop.obj
 0003:00000ab8       _rtreeModule               1014dab8     interop.obj
 0003:00000b20       _aSyscall                  1014db20     interop.obj
 0003:00000ee0       ?winLongPathNolockVfs@?1??sqlite3_os_init@@9@9 1014dee0     interop.obj
 0003:00000f38       ?winNolockVfs@?1??sqlite3_os_init@@9@9 1014df38     interop.obj
 0003:00000f90       _aAsciiTokenChar           1014df90     interop.obj
 0003:00001010       _sqlite3Config             1014e010     interop.obj
 0003:00001130       ?aAnalyzeTableFuncs@?1??sqlite3AnalyzeFunctions@@9@9 1014e130     interop.obj
 0003:00001150       _winMutex_staticMutexes    1014e150     interop.obj
 0003:000012a0       ?aDateTimeFuncs@?1??sqlite3RegisterDateTimeFunctions@@9@9 1014e2a0     interop.obj
 0003:00001380       ?winLongPathVfs@?1??sqlite3_os_init@@9@9 1014e380     interop.obj
 0003:000013e0       ?aBuiltinFunc@?1??sqlite3RegisterBuiltinFunctions@@9@9 1014e3e0     interop.obj
 0003:00001a70       _GS_ExceptionRecord        1014ea70     LIBCMT:gs_report.obj
 0003:00001ac0       _GS_ContextRecord          1014eac0     LIBCMT:gs_report.obj
 0003:00001d8c       ?__proc_attached@@3HA      1014ed8c     LIBCMT:dll_dllmain.obj
 0003:00001d98       ?module_local_atexit_table@@3U_onexit_table_t@@A 1014ed98     LIBCMT:utility.obj
 0003:00001da4       ?module_local_at_quick_exit_table@@3U_onexit_table_t@@A 1014eda4     LIBCMT:utility.obj
 0003:00001db0       ?is_initialized_as_dll@@3_NA 1014edb0     LIBCMT:utility.obj
 0003:00001ddc       ?__vcrt_startup_thread_ptd@@3U__vcrt_ptd@@A 1014eddc     libvcruntime:per_thread_data.obj
 0003:00001e04       ___vcrt_lock_table         1014ee04     libvcruntime:locks.obj
 0003:00001e1c       ___vcrt_locks_initialized  1014ee1c     libvcruntime:locks.obj
 0003:00001e20       ?module_handles@@3PAPAUHINSTANCE__@@A 1014ee20     libvcruntime:winapi_downlevel.obj
 0003:00001e30       ?encoded_function_pointers@@3PAPAXA 1014ee30     libvcruntime:winapi_downlevel.obj
 0003:00001e80       ?heap@@3V_HeapManager@@A   1014ee80     libvcruntime:undname.obj
 0003:00001e94       _c_termination_complete    1014ee94     libucrt:exit.obj
 0003:00001e98       _thread_local_exit_callback_func 1014ee98     libucrt:exit.obj
 0003:00001e9c       ?c_exit_complete@?5??common_exit@@YAXHW4_crt_exit_cleanup_mode@@W4_crt_exit_return_mode@@@Z@4_NA 1014ee9c     libucrt:exit.obj
 0003:00001ea0       ?program_name@?5???$common_configure_argv@D@@YAHW4_crt_argv_mode@@@Z@4PADA 1014eea0     libucrt:argv_parsing.obj
 0003:00001fd0       ___acrt_invalid_parameter_handler 1014efd0     libucrt:invalid_parameter.obj
 0003:00001fd8       _module_handles            1014efd8     libucrt:winapi_thunks.obj
 0003:00002028       _encoded_function_pointers 1014f028     libucrt:winapi_thunks.obj
 0003:000020a8       ?state_cache@?1??__acrt_is_packaged_app@@9@4JA 1014f0a8     libucrt:winapi_thunks.obj
 0003:000020c0       __tzname                   1014f0c0     libucrt:timeset.obj
 0003:000020c4       _last_tz                   1014f0c4     libucrt:tzset.obj
 0003:000020c8       _tz_api_used               1014f0c8     libucrt:tzset.obj
 0003:000020d0       _tz_info                   1014f0d0     libucrt:tzset.obj
 0003:0000217c       ?first_time@?1??__tzset@@9@4JA 1014f17c     libucrt:tzset.obj
 0003:00002180       ___acrt_lock_table         1014f180     libucrt:locks.obj
 0003:000022b8       ___acrt_locks_initialized  1014f2b8     libucrt:locks.obj
 0003:000022d4       _fSystemSet                1014f2d4     libucrt:mbctype.obj
 0003:000022d8       ?initialized@?1??__acrt_initialize_multibyte@@9@4_NA 1014f2d8     libucrt:mbctype.obj
 0003:000024fc       ___acrt_new_handler        1014f4fc     libucrt:new_handler.obj
 0003:00002500       _ctrlc_action              1014f500     libucrt:signal.obj
 0003:00002504       _ctrlbreak_action          1014f504     libucrt:signal.obj
 0003:00002508       _abort_action              1014f508     libucrt:signal.obj
 0003:0000250c       _term_action               1014f50c     libucrt:signal.obj
 0003:00002510       _user_matherr              1014f510     libucrt:matherr.obj
 0003:0000251c       ___acrt_global_new_mode    1014f51c     libucrt:new_mode.obj
 0003:00002534       __pmatherr_set             1014f534     libucrt:libm_error.obj
 0003:00002538       ___acrt_app_type           1014f538     libucrt:report_runtime_error.obj
 0003:00002548       _mem0                      1014f548     interop.obj
 0003:00002560       _sqlite3Hooks              1014f560     interop.obj
 0003:00002568       _sqlite3SharedCacheList    1014f568     interop.obj
 0003:0000256c       _winBigLock                1014f56c     interop.obj
 0003:00002570       ?nullElement@?1??findElementWithHash@@9@9 1014f570     interop.obj
 0003:00002580       _win_mem_data              1014f580     interop.obj
 0003:00002588       _sqlite3Stat               1014f588     interop.obj
 0003:000025d8       _winMutex_lock             1014f5d8     interop.obj
 0003:000025e0       _winShmNodeList            1014f5e0     interop.obj
 0003:000025e4       ?fakeCursor@?1??sqlite3BtreeFakeValidCursor@@9@9 1014f5e4     interop.obj
 0003:000025e8       _winMutex_isInit           1014f5e8     interop.obj
 0003:000025ec       _sqlite3Autoext            1014f5ec     interop.obj
 0003:000025f4       _vfsList                   1014f5f4     interop.obj
 0003:000043b8       ?dummy@?1??sqlite3VdbeGetOp@@9@9 101513b8     interop.obj
 0003:000043d0       _pcache1_g                 101513d0     interop.obj
 0003:00004438       _sqlite3SavedPrng          10151438     interop.obj
 0003:00004540       _sqlite3Prng               10151540     interop.obj
 0003:00004650       _sqlite3BuiltinFunctions   10151650     interop.obj
 0003:000046ac       ?dummyCurrentPage@?7??pcache1Create@@9@9 101516ac     interop.obj
 0003:000046b0       _winSysInfo                101516b0     interop.obj
 0003:000046d4       ?aZero@?MA@??sqlite3VdbeExec@@9@9 101516d4     interop.obj
 0004:00000000       __guard_fids___beginthreadex 10152000     libucrt:thread.obj
 0004:00000004       __guard_fids____dcrt_uninitialize_environments_nolock 10152004     libucrt:environment_initialization.obj
 0004:0000000c       __guard_fids__             1015200c     libucrt:initialization.obj
 0004:0000006c       __guard_fids____acrt_initialize_ptd 1015206c     libucrt:per_thread_data.obj
 0004:00000070       __guard_fids_??$expand_argument_wildcards@D@@YAHQAD0AAV?$argument_list@D@?A0xb0e4b824@@@Z 10152070     libucrt:argv_wildcards.obj
 0004:00000074       __guard_fids__             10152074     libucrt:locale_initializer.obj
 0004:00000078       __guard_fids__             10152078     libucrt:timeset_initializer.obj
 0004:0000007c       __guard_fids__             1015207c     libucrt:multibyte_initializer.obj
 0004:00000080       __guard_fids__             10152080     libucrt:stdio_initializer.obj
 0004:00000084       __guard_fids__             10152084     libucrt:stdio_initializer.obj
 0004:00000088       __guard_fids__             10152088     libucrt:sse2_initializer.obj
 0004:0000008c       __guard_fids____libm_error_support 1015208c     libucrt:libm_error.obj
 0004:00000090       __guard_fids__             10152090     libucrt:console_output_initializer.obj
 0004:00000094       __guard_fids_?dllmain_crt_process_attach@@YAHQAUHINSTANCE__@@QAX@Z 10152094     LIBCMT:dll_dllmain.obj
 0004:0000009c       __guard_fids_?dllmain_dispatch@@YAHQAUHINSTANCE__@@KQAX@Z 1015209c     LIBCMT:dll_dllmain.obj
 0004:000000a0       __guard_fids__             101520a0     LIBCMT:guard_support.obj
 0004:000000a4       __guard_fids____vcrt_initialize_ptd 101520a4     libvcruntime:per_thread_data.obj
 0006:00000060       $R000000                   10154060     SQLite.Interop.res

 Exports

  ordinal    name

        1    _interop_compileoption_get@4
        2    _interop_compileoption_used@4
        3    _interop_libversion@0
        4    _interop_sourceid@0
        5    _sqlite3_activate_see
               exported name: sqlite3_activate_see
        6    _sqlite3_aggregate_context
               exported name: sqlite3_aggregate_context
        7    _sqlite3_aggregate_count
               exported name: sqlite3_aggregate_count
        8    _sqlite3_auto_extension
               exported name: sqlite3_auto_extension
        9    _sqlite3_backup_finish
               exported name: sqlite3_backup_finish
       10    _sqlite3_backup_finish_interop@4
       11    _sqlite3_backup_init
               exported name: sqlite3_backup_init
       12    _sqlite3_backup_pagecount
               exported name: sqlite3_backup_pagecount
       13    _sqlite3_backup_remaining
               exported name: sqlite3_backup_remaining
       14    _sqlite3_backup_step
               exported name: sqlite3_backup_step
       15    _sqlite3_bind_blob
               exported name: sqlite3_bind_blob
       16    _sqlite3_bind_blob64
               exported name: sqlite3_bind_blob64
       17    _sqlite3_bind_double
               exported name: sqlite3_bind_double
       18    _sqlite3_bind_double_interop@12
       19    _sqlite3_bind_int
               exported name: sqlite3_bind_int
       20    _sqlite3_bind_int64
               exported name: sqlite3_bind_int64
       21    _sqlite3_bind_int64_interop@12
       22    _sqlite3_bind_null
               exported name: sqlite3_bind_null
       23    _sqlite3_bind_parameter_count
               exported name: sqlite3_bind_parameter_count
       24    _sqlite3_bind_parameter_index
               exported name: sqlite3_bind_parameter_index
       25    _sqlite3_bind_parameter_name
               exported name: sqlite3_bind_parameter_name
       26    _sqlite3_bind_parameter_name_interop@12
       27    _sqlite3_bind_pointer
               exported name: sqlite3_bind_pointer
       28    _sqlite3_bind_text
               exported name: sqlite3_bind_text
       29    _sqlite3_bind_text16
               exported name: sqlite3_bind_text16
       30    _sqlite3_bind_text64
               exported name: sqlite3_bind_text64
       31    _sqlite3_bind_value
               exported name: sqlite3_bind_value
       32    _sqlite3_bind_zeroblob
               exported name: sqlite3_bind_zeroblob
       33    _sqlite3_bind_zeroblob64
               exported name: sqlite3_bind_zeroblob64
       34    _sqlite3_blob_bytes
               exported name: sqlite3_blob_bytes
       35    _sqlite3_blob_close
               exported name: sqlite3_blob_close
       36    _sqlite3_blob_close_interop@4
       37    _sqlite3_blob_open
               exported name: sqlite3_blob_open
       38    _sqlite3_blob_read
               exported name: sqlite3_blob_read
       39    _sqlite3_blob_reopen
               exported name: sqlite3_blob_reopen
       40    _sqlite3_blob_write
               exported name: sqlite3_blob_write
       41    _sqlite3_busy_handler
               exported name: sqlite3_busy_handler
       42    _sqlite3_busy_timeout
               exported name: sqlite3_busy_timeout
       43    _sqlite3_cancel_auto_extension
               exported name: sqlite3_cancel_auto_extension
       44    _sqlite3_changes
               exported name: sqlite3_changes
       45    _sqlite3_changes_interop@4
       46    _sqlite3_clear_bindings
               exported name: sqlite3_clear_bindings
       47    _sqlite3_close
               exported name: sqlite3_close
       48    _sqlite3_close_interop@4
       49    _sqlite3_close_v2
               exported name: sqlite3_close_v2
       50    _sqlite3_collation_needed
               exported name: sqlite3_collation_needed
       51    _sqlite3_collation_needed16
               exported name: sqlite3_collation_needed16
       52    _sqlite3_column_blob
               exported name: sqlite3_column_blob
       53    _sqlite3_column_bytes
               exported name: sqlite3_column_bytes
       54    _sqlite3_column_bytes16
               exported name: sqlite3_column_bytes16
       55    _sqlite3_column_count
               exported name: sqlite3_column_count
       56    _sqlite3_column_database_name
               exported name: sqlite3_column_database_name
       57    _sqlite3_column_database_name16
               exported name: sqlite3_column_database_name16
       58    _sqlite3_column_database_name16_interop@12
       59    _sqlite3_column_database_name_interop@12
       60    _sqlite3_column_decltype
               exported name: sqlite3_column_decltype
       61    _sqlite3_column_decltype16
               exported name: sqlite3_column_decltype16
       62    _sqlite3_column_decltype16_interop@12
       63    _sqlite3_column_decltype_interop@12
       64    _sqlite3_column_double
               exported name: sqlite3_column_double
       65    _sqlite3_column_double_interop@12
       66    _sqlite3_column_int
               exported name: sqlite3_column_int
       67    _sqlite3_column_int64
               exported name: sqlite3_column_int64
       68    _sqlite3_column_int64_interop@12
       69    _sqlite3_column_name
               exported name: sqlite3_column_name
       70    _sqlite3_column_name16
               exported name: sqlite3_column_name16
       71    _sqlite3_column_name16_interop@12
       72    _sqlite3_column_name_interop@12
       73    _sqlite3_column_origin_name
               exported name: sqlite3_column_origin_name
       74    _sqlite3_column_origin_name16
               exported name: sqlite3_column_origin_name16
       75    _sqlite3_column_origin_name16_interop@12
       76    _sqlite3_column_origin_name_interop@12
       77    _sqlite3_column_table_name
               exported name: sqlite3_column_table_name
       78    _sqlite3_column_table_name16
               exported name: sqlite3_column_table_name16
       79    _sqlite3_column_table_name16_interop@12
       80    _sqlite3_column_table_name_interop@12
       81    _sqlite3_column_text
               exported name: sqlite3_column_text
       82    _sqlite3_column_text16
               exported name: sqlite3_column_text16
       83    _sqlite3_column_text16_interop@12
       84    _sqlite3_column_text_interop@12
       85    _sqlite3_column_type
               exported name: sqlite3_column_type
       86    _sqlite3_column_value
               exported name: sqlite3_column_value
       87    _sqlite3_commit_hook
               exported name: sqlite3_commit_hook
       88    _sqlite3_compileoption_get
               exported name: sqlite3_compileoption_get
       89    _sqlite3_compileoption_used
               exported name: sqlite3_compileoption_used
       90    _sqlite3_complete
               exported name: sqlite3_complete
       91    _sqlite3_complete16
               exported name: sqlite3_complete16
       92    _sqlite3_config
               exported name: sqlite3_config
       93    _sqlite3_context_collcompare_interop@20
       94    _sqlite3_context_collseq_interop@16
       95    _sqlite3_context_db_handle
               exported name: sqlite3_context_db_handle
       96    _sqlite3_create_collation
               exported name: sqlite3_create_collation
       97    _sqlite3_create_collation16
               exported name: sqlite3_create_collation16
       98    _sqlite3_create_collation_v2
               exported name: sqlite3_create_collation_v2
       99    _sqlite3_create_disposable_module
               exported name: sqlite3_create_disposable_module
      100    _sqlite3_create_disposable_module_interop@112
      101    _sqlite3_create_function
               exported name: sqlite3_create_function
      102    _sqlite3_create_function16
               exported name: sqlite3_create_function16
      103    _sqlite3_create_function_interop@36
      104    _sqlite3_create_function_v2
               exported name: sqlite3_create_function_v2
      105    _sqlite3_create_module
               exported name: sqlite3_create_module
      106    _sqlite3_create_module_v2
               exported name: sqlite3_create_module_v2
      107    _sqlite3_cursor_rowid_interop@12
      108    _sqlite3_data_count
               exported name: sqlite3_data_count
      109    _sqlite3_data_directory
               exported name: sqlite3_data_directory
      110    _sqlite3_db_cacheflush
               exported name: sqlite3_db_cacheflush
      111    _sqlite3_db_config
               exported name: sqlite3_db_config
      112    _sqlite3_db_filename
               exported name: sqlite3_db_filename
      113    _sqlite3_db_handle
               exported name: sqlite3_db_handle
      114    _sqlite3_db_mutex
               exported name: sqlite3_db_mutex
      115    _sqlite3_db_readonly
               exported name: sqlite3_db_readonly
      116    _sqlite3_db_release_memory
               exported name: sqlite3_db_release_memory
      117    _sqlite3_db_status
               exported name: sqlite3_db_status
      118    _sqlite3_declare_vtab
               exported name: sqlite3_declare_vtab
      119    _sqlite3_dispose_module
               exported name: sqlite3_dispose_module
      120    _sqlite3_enable_load_extension
               exported name: sqlite3_enable_load_extension
      121    _sqlite3_enable_shared_cache
               exported name: sqlite3_enable_shared_cache
      122    _sqlite3_errcode
               exported name: sqlite3_errcode
      123    _sqlite3_errmsg
               exported name: sqlite3_errmsg
      124    _sqlite3_errmsg16
               exported name: sqlite3_errmsg16
      125    _sqlite3_errmsg_interop@8
      126    _sqlite3_errstr
               exported name: sqlite3_errstr
      127    _sqlite3_exec
               exported name: sqlite3_exec
      128    _sqlite3_expanded_sql
               exported name: sqlite3_expanded_sql
      129    _sqlite3_expired
               exported name: sqlite3_expired
      130    _sqlite3_extended_errcode
               exported name: sqlite3_extended_errcode
      131    _sqlite3_extended_result_codes
               exported name: sqlite3_extended_result_codes
      132    _sqlite3_file_control
               exported name: sqlite3_file_control
      133    _sqlite3_finalize
               exported name: sqlite3_finalize
      134    _sqlite3_finalize_interop@4
      135    _sqlite3_free
               exported name: sqlite3_free
      136    _sqlite3_free_table
               exported name: sqlite3_free_table
      137    _sqlite3_fts5_init
               exported name: sqlite3_fts5_init
      138    _sqlite3_fts_init
               exported name: sqlite3_fts_init
      139    _sqlite3_get_autocommit
               exported name: sqlite3_get_autocommit
      140    _sqlite3_get_auxdata
               exported name: sqlite3_get_auxdata
      141    _sqlite3_get_table
               exported name: sqlite3_get_table
      142    _sqlite3_global_recover
               exported name: sqlite3_global_recover
      143    _sqlite3_index_column_info_interop@32
      144    _sqlite3_initialize
               exported name: sqlite3_initialize
      145    _sqlite3_interrupt
               exported name: sqlite3_interrupt
      146    _sqlite3_json_init
               exported name: sqlite3_json_init
      147    _sqlite3_key
               exported name: sqlite3_key
      148    _sqlite3_key_v2
               exported name: sqlite3_key_v2
      149    _sqlite3_keyword_check
               exported name: sqlite3_keyword_check
      150    _sqlite3_keyword_count
               exported name: sqlite3_keyword_count
      151    _sqlite3_keyword_name
               exported name: sqlite3_keyword_name
      152    _sqlite3_last_insert_rowid
               exported name: sqlite3_last_insert_rowid
      153    _sqlite3_last_insert_rowid_interop@8
      154    _sqlite3_libversion
               exported name: sqlite3_libversion
      155    _sqlite3_libversion_number
               exported name: sqlite3_libversion_number
      156    _sqlite3_limit
               exported name: sqlite3_limit
      157    _sqlite3_load_extension
               exported name: sqlite3_load_extension
      158    _sqlite3_log
               exported name: sqlite3_log
      159    _sqlite3_malloc
               exported name: sqlite3_malloc
      160    _sqlite3_malloc64
               exported name: sqlite3_malloc64
      161    _sqlite3_malloc_size_interop@4
      162    _sqlite3_memory_alarm
               exported name: sqlite3_memory_alarm
      163    _sqlite3_memory_highwater
               exported name: sqlite3_memory_highwater
      164    _sqlite3_memory_highwater_interop@8
      165    _sqlite3_memory_used
               exported name: sqlite3_memory_used
      166    _sqlite3_memory_used_interop@4
      167    _sqlite3_mprintf
               exported name: sqlite3_mprintf
      168    _sqlite3_msize
               exported name: sqlite3_msize
      169    _sqlite3_msize_interop@8
      170    _sqlite3_mutex_alloc
               exported name: sqlite3_mutex_alloc
      171    _sqlite3_mutex_enter
               exported name: sqlite3_mutex_enter
      172    _sqlite3_mutex_free
               exported name: sqlite3_mutex_free
      173    _sqlite3_mutex_leave
               exported name: sqlite3_mutex_leave
      174    _sqlite3_mutex_try
               exported name: sqlite3_mutex_try
      175    _sqlite3_next_stmt
               exported name: sqlite3_next_stmt
      176    _sqlite3_open
               exported name: sqlite3_open
      177    _sqlite3_open16
               exported name: sqlite3_open16
      178    _sqlite3_open16_interop@20
      179    _sqlite3_open_interop@20
      180    _sqlite3_open_v2
               exported name: sqlite3_open_v2
      181    _sqlite3_os_end
               exported name: sqlite3_os_end
      182    _sqlite3_os_init
               exported name: sqlite3_os_init
      183    _sqlite3_overload_function
               exported name: sqlite3_overload_function
      184    _sqlite3_percentile_init
               exported name: sqlite3_percentile_init
      185    _sqlite3_prepare
               exported name: sqlite3_prepare
      186    _sqlite3_prepare16
               exported name: sqlite3_prepare16
      187    _sqlite3_prepare16_interop@24
      188    _sqlite3_prepare16_v2
               exported name: sqlite3_prepare16_v2
      189    _sqlite3_prepare16_v3
               exported name: sqlite3_prepare16_v3
      190    _sqlite3_prepare_interop@24
      191    _sqlite3_prepare_v2
               exported name: sqlite3_prepare_v2
      192    _sqlite3_prepare_v3
               exported name: sqlite3_prepare_v3
      193    _sqlite3_preupdate_count
               exported name: sqlite3_preupdate_count
      194    _sqlite3_preupdate_depth
               exported name: sqlite3_preupdate_depth
      195    _sqlite3_preupdate_hook
               exported name: sqlite3_preupdate_hook
      196    _sqlite3_preupdate_new
               exported name: sqlite3_preupdate_new
      197    _sqlite3_preupdate_old
               exported name: sqlite3_preupdate_old
      198    _sqlite3_profile
               exported name: sqlite3_profile
      199    _sqlite3_progress_handler
               exported name: sqlite3_progress_handler
      200    _sqlite3_randomness
               exported name: sqlite3_randomness
      201    _sqlite3_realloc
               exported name: sqlite3_realloc
      202    _sqlite3_realloc64
               exported name: sqlite3_realloc64
      203    _sqlite3_regexp_init
               exported name: sqlite3_regexp_init
      204    _sqlite3_rekey
               exported name: sqlite3_rekey
      205    _sqlite3_rekey_v2
               exported name: sqlite3_rekey_v2
      206    _sqlite3_release_memory
               exported name: sqlite3_release_memory
      207    _sqlite3_reset
               exported name: sqlite3_reset
      208    _sqlite3_reset_auto_extension
               exported name: sqlite3_reset_auto_extension
      209    _sqlite3_reset_interop@4
      210    _sqlite3_result_blob
               exported name: sqlite3_result_blob
      211    _sqlite3_result_blob64
               exported name: sqlite3_result_blob64
      212    _sqlite3_result_double
               exported name: sqlite3_result_double
      213    _sqlite3_result_double_interop@8
      214    _sqlite3_result_error
               exported name: sqlite3_result_error
      215    _sqlite3_result_error16
               exported name: sqlite3_result_error16
      216    _sqlite3_result_error_code
               exported name: sqlite3_result_error_code
      217    _sqlite3_result_error_nomem
               exported name: sqlite3_result_error_nomem
      218    _sqlite3_result_error_toobig
               exported name: sqlite3_result_error_toobig
      219    _sqlite3_result_int
               exported name: sqlite3_result_int
      220    _sqlite3_result_int64
               exported name: sqlite3_result_int64
      221    _sqlite3_result_int64_interop@8
      222    _sqlite3_result_null
               exported name: sqlite3_result_null
      223    _sqlite3_result_pointer
               exported name: sqlite3_result_pointer
      224    _sqlite3_result_subtype
               exported name: sqlite3_result_subtype
      225    _sqlite3_result_text
               exported name: sqlite3_result_text
      226    _sqlite3_result_text16
               exported name: sqlite3_result_text16
      227    _sqlite3_result_text16be
               exported name: sqlite3_result_text16be
      228    _sqlite3_result_text16le
               exported name: sqlite3_result_text16le
      229    _sqlite3_result_text64
               exported name: sqlite3_result_text64
      230    _sqlite3_result_value
               exported name: sqlite3_result_value
      231    _sqlite3_result_zeroblob
               exported name: sqlite3_result_zeroblob
      232    _sqlite3_result_zeroblob64
               exported name: sqlite3_result_zeroblob64
      233    _sqlite3_rollback_hook
               exported name: sqlite3_rollback_hook
      234    _sqlite3_rtree_geometry_callback
               exported name: sqlite3_rtree_geometry_callback
      235    _sqlite3_rtree_query_callback
               exported name: sqlite3_rtree_query_callback
      236    _sqlite3_set_authorizer
               exported name: sqlite3_set_authorizer
      237    _sqlite3_set_auxdata
               exported name: sqlite3_set_auxdata
      238    _sqlite3_set_last_insert_rowid
               exported name: sqlite3_set_last_insert_rowid
      239    _sqlite3_sha_init
               exported name: sqlite3_sha_init
      240    _sqlite3_shutdown
               exported name: sqlite3_shutdown
      241    _sqlite3_sleep
               exported name: sqlite3_sleep
      242    _sqlite3_snprintf
               exported name: sqlite3_snprintf
      243    _sqlite3_soft_heap_limit
               exported name: sqlite3_soft_heap_limit
      244    _sqlite3_soft_heap_limit64
               exported name: sqlite3_soft_heap_limit64
      245    _sqlite3_sourceid
               exported name: sqlite3_sourceid
      246    _sqlite3_sql
               exported name: sqlite3_sql
      247    _sqlite3_status
               exported name: sqlite3_status
      248    _sqlite3_status64
               exported name: sqlite3_status64
      249    _sqlite3_step
               exported name: sqlite3_step
      250    _sqlite3_stmt_busy
               exported name: sqlite3_stmt_busy
      251    _sqlite3_stmt_readonly
               exported name: sqlite3_stmt_readonly
      252    _sqlite3_stmt_status
               exported name: sqlite3_stmt_status
      253    _sqlite3_str_append
               exported name: sqlite3_str_append
      254    _sqlite3_str_appendall
               exported name: sqlite3_str_appendall
      255    _sqlite3_str_appendchar
               exported name: sqlite3_str_appendchar
      256    _sqlite3_str_appendf
               exported name: sqlite3_str_appendf
      257    _sqlite3_str_errcode
               exported name: sqlite3_str_errcode
      258    _sqlite3_str_finish
               exported name: sqlite3_str_finish
      259    _sqlite3_str_length
               exported name: sqlite3_str_length
      260    _sqlite3_str_new
               exported name: sqlite3_str_new
      261    _sqlite3_str_reset
               exported name: sqlite3_str_reset
      262    _sqlite3_str_value
               exported name: sqlite3_str_value
      263    _sqlite3_str_vappendf
               exported name: sqlite3_str_vappendf
      264    _sqlite3_strglob
               exported name: sqlite3_strglob
      265    _sqlite3_stricmp
               exported name: sqlite3_stricmp
      266    _sqlite3_strlike
               exported name: sqlite3_strlike
      267    _sqlite3_strnicmp
               exported name: sqlite3_strnicmp
      268    _sqlite3_system_errno
               exported name: sqlite3_system_errno
      269    _sqlite3_table_column_metadata
               exported name: sqlite3_table_column_metadata
      270    _sqlite3_table_column_metadata_interop@44
      271    _sqlite3_table_cursor_interop@12
      272    _sqlite3_temp_directory
               exported name: sqlite3_temp_directory
      273    _sqlite3_test_control
               exported name: sqlite3_test_control
      274    _sqlite3_thread_cleanup
               exported name: sqlite3_thread_cleanup
      275    _sqlite3_threadsafe
               exported name: sqlite3_threadsafe
      276    _sqlite3_total_changes
               exported name: sqlite3_total_changes
      277    _sqlite3_totype_init
               exported name: sqlite3_totype_init
      278    _sqlite3_trace
               exported name: sqlite3_trace
      279    _sqlite3_trace_v2
               exported name: sqlite3_trace_v2
      280    _sqlite3_transfer_bindings
               exported name: sqlite3_transfer_bindings
      281    _sqlite3_update_hook
               exported name: sqlite3_update_hook
      282    _sqlite3_uri_boolean
               exported name: sqlite3_uri_boolean
      283    _sqlite3_uri_int64
               exported name: sqlite3_uri_int64
      284    _sqlite3_uri_parameter
               exported name: sqlite3_uri_parameter
      285    _sqlite3_user_data
               exported name: sqlite3_user_data
      286    _sqlite3_value_blob
               exported name: sqlite3_value_blob
      287    _sqlite3_value_bytes
               exported name: sqlite3_value_bytes
      288    _sqlite3_value_bytes16
               exported name: sqlite3_value_bytes16
      289    _sqlite3_value_double
               exported name: sqlite3_value_double
      290    _sqlite3_value_double_interop@8
      291    _sqlite3_value_dup
               exported name: sqlite3_value_dup
      292    _sqlite3_value_free
               exported name: sqlite3_value_free
      293    _sqlite3_value_int
               exported name: sqlite3_value_int
      294    _sqlite3_value_int64
               exported name: sqlite3_value_int64
      295    _sqlite3_value_int64_interop@8
      296    _sqlite3_value_nochange
               exported name: sqlite3_value_nochange
      297    _sqlite3_value_numeric_type
               exported name: sqlite3_value_numeric_type
      298    _sqlite3_value_pointer
               exported name: sqlite3_value_pointer
      299    _sqlite3_value_subtype
               exported name: sqlite3_value_subtype
      300    _sqlite3_value_text
               exported name: sqlite3_value_text
      301    _sqlite3_value_text16
               exported name: sqlite3_value_text16
      302    _sqlite3_value_text16_interop@8
      303    _sqlite3_value_text16be
               exported name: sqlite3_value_text16be
      304    _sqlite3_value_text16le
               exported name: sqlite3_value_text16le
      305    _sqlite3_value_text_interop@8
      306    _sqlite3_value_type
               exported name: sqlite3_value_type
      307    _sqlite3_version
               exported name: sqlite3_version
      308    _sqlite3_vfs_find
               exported name: sqlite3_vfs_find
      309    _sqlite3_vfs_register
               exported name: sqlite3_vfs_register
      310    _sqlite3_vfs_unregister
               exported name: sqlite3_vfs_unregister
      311    _sqlite3_vmprintf
               exported name: sqlite3_vmprintf
      312    _sqlite3_vsnprintf
               exported name: sqlite3_vsnprintf
      313    _sqlite3_vtab_collation
               exported name: sqlite3_vtab_collation
      314    _sqlite3_vtab_config
               exported name: sqlite3_vtab_config
      315    _sqlite3_vtab_nochange
               exported name: sqlite3_vtab_nochange
      316    _sqlite3_vtab_on_conflict
               exported name: sqlite3_vtab_on_conflict
      317    _sqlite3_vtshim_init
               exported name: sqlite3_vtshim_init
      318    _sqlite3_wal_autocheckpoint
               exported name: sqlite3_wal_autocheckpoint
      319    _sqlite3_wal_checkpoint
               exported name: sqlite3_wal_checkpoint
      320    _sqlite3_wal_checkpoint_v2
               exported name: sqlite3_wal_checkpoint_v2
      321    _sqlite3_wal_hook
               exported name: sqlite3_wal_hook
      322    _sqlite3_win32_compact_heap
               exported name: sqlite3_win32_compact_heap
      323    _sqlite3_win32_is_nt
               exported name: sqlite3_win32_is_nt
      324    _sqlite3_win32_mbcs_to_utf8
               exported name: sqlite3_win32_mbcs_to_utf8
      325    _sqlite3_win32_mbcs_to_utf8_v2
               exported name: sqlite3_win32_mbcs_to_utf8_v2
      326    _sqlite3_win32_reset_heap
               exported name: sqlite3_win32_reset_heap
      327    _sqlite3_win32_set_directory
               exported name: sqlite3_win32_set_directory
      328    _sqlite3_win32_set_directory16
               exported name: sqlite3_win32_set_directory16
      329    _sqlite3_win32_set_directory8
               exported name: sqlite3_win32_set_directory8
      330    _sqlite3_win32_sleep
               exported name: sqlite3_win32_sleep
      331    _sqlite3_win32_unicode_to_utf8
               exported name: sqlite3_win32_unicode_to_utf8
      332    _sqlite3_win32_utf8_to_mbcs
               exported name: sqlite3_win32_utf8_to_mbcs
      333    _sqlite3_win32_utf8_to_mbcs_v2
               exported name: sqlite3_win32_utf8_to_mbcs_v2
      334    _sqlite3_win32_utf8_to_unicode
               exported name: sqlite3_win32_utf8_to_unicode
      335    _sqlite3_win32_write_debug
               exported name: sqlite3_win32_write_debug
      336    _sqlite3changegroup_add
               exported name: sqlite3changegroup_add
      337    _sqlite3changegroup_add_strm
               exported name: sqlite3changegroup_add_strm
      338    _sqlite3changegroup_delete
               exported name: sqlite3changegroup_delete
      339    _sqlite3changegroup_new
               exported name: sqlite3changegroup_new
      340    _sqlite3changegroup_output
               exported name: sqlite3changegroup_output
      341    _sqlite3changegroup_output_strm
               exported name: sqlite3changegroup_output_strm
      342    _sqlite3changeset_apply
               exported name: sqlite3changeset_apply
      343    _sqlite3changeset_apply_strm
               exported name: sqlite3changeset_apply_strm
      344    _sqlite3changeset_apply_v2
               exported name: sqlite3changeset_apply_v2
      345    _sqlite3changeset_apply_v2_strm
               exported name: sqlite3changeset_apply_v2_strm
      346    _sqlite3changeset_concat
               exported name: sqlite3changeset_concat
      347    _sqlite3changeset_concat_strm
               exported name: sqlite3changeset_concat_strm
      348    _sqlite3changeset_conflict
               exported name: sqlite3changeset_conflict
      349    _sqlite3changeset_finalize
               exported name: sqlite3changeset_finalize
      350    _sqlite3changeset_fk_conflicts
               exported name: sqlite3changeset_fk_conflicts
      351    _sqlite3changeset_invert
               exported name: sqlite3changeset_invert
      352    _sqlite3changeset_invert_strm
               exported name: sqlite3changeset_invert_strm
      353    _sqlite3changeset_new
               exported name: sqlite3changeset_new
      354    _sqlite3changeset_next
               exported name: sqlite3changeset_next
      355    _sqlite3changeset_old
               exported name: sqlite3changeset_old
      356    _sqlite3changeset_op
               exported name: sqlite3changeset_op
      357    _sqlite3changeset_pk
               exported name: sqlite3changeset_pk
      358    _sqlite3changeset_start
               exported name: sqlite3changeset_start
      359    _sqlite3changeset_start_strm
               exported name: sqlite3changeset_start_strm
      360    _sqlite3rebaser_configure
               exported name: sqlite3rebaser_configure
      361    _sqlite3rebaser_create
               exported name: sqlite3rebaser_create
      362    _sqlite3rebaser_delete
               exported name: sqlite3rebaser_delete
      363    _sqlite3rebaser_rebase
               exported name: sqlite3rebaser_rebase
      364    _sqlite3rebaser_rebase_strm
               exported name: sqlite3rebaser_rebase_strm
      365    _sqlite3session_attach
               exported name: sqlite3session_attach
      366    _sqlite3session_changeset
               exported name: sqlite3session_changeset
      367    _sqlite3session_changeset_strm
               exported name: sqlite3session_changeset_strm
      368    _sqlite3session_create
               exported name: sqlite3session_create
      369    _sqlite3session_delete
               exported name: sqlite3session_delete
      370    _sqlite3session_diff
               exported name: sqlite3session_diff
      371    _sqlite3session_enable
               exported name: sqlite3session_enable
      372    _sqlite3session_indirect
               exported name: sqlite3session_indirect
      373    _sqlite3session_isempty
               exported name: sqlite3session_isempty
      374    _sqlite3session_patchset
               exported name: sqlite3session_patchset
      375    _sqlite3session_patchset_strm
               exported name: sqlite3session_patchset_strm
      376    _sqlite3session_table_filter
               exported name: sqlite3session_table_filter
